 PhysX3Common_x64

 Timestamp is 58e28be1 (Mon Apr  3 11:52:33 2017)

 Preferred load address is 0000000180000000

 Start         Length     Name                   Class
 0001:00000000 00005460H .text$di                CODE
 0001:00005460 0013b9c0H .text$mn                CODE
 0001:00140e20 00000012H .text$mn$00             CODE
 0001:00140e32 0000008eH .text$x                 CODE
 0001:00140ec0 0000000fH .text$yd                CODE
 0002:00000000 00000400H .idata$5                DATA
 0002:00000400 00000010H .00cfg                  DATA
 0002:00000410 00000008H .CRT$XCA                DATA
 0002:00000418 00001398H .CRT$XCU                DATA
 0002:000017b0 00000008H .CRT$XCZ                DATA
 0002:000017b8 00000008H .CRT$XIA                DATA
 0002:000017c0 00000008H .CRT$XIZ                DATA
 0002:000017c8 00000008H .CRT$XPA                DATA
 0002:000017d0 00000008H .CRT$XPZ                DATA
 0002:000017d8 00000008H .CRT$XTA                DATA
 0002:000017e0 00000010H .CRT$XTZ                DATA
 0002:000017f0 00004da8H .rdata                  DATA
 0002:00006598 000001f4H .rdata$r                DATA
 0002:0000678c 0000034cH .rdata$zzzdbg           DATA
 0002:00006ad8 00000008H .rtc$IAA                DATA
 0002:00006ae0 00000008H .rtc$IZZ                DATA
 0002:00006ae8 00000008H .rtc$TAA                DATA
 0002:00006af0 00000008H .rtc$TZZ                DATA
 0002:00006af8 0000c8c8H .xdata                  DATA
 0002:000133c0 000000f0H .xdata$x                DATA
 0002:000134b0 000133acH .edata                  DATA
 0002:0002685c 000000a0H .idata$2                DATA
 0002:000268fc 00000014H .idata$3                DATA
 0002:00026910 00000400H .idata$4                DATA
 0002:00026d10 000007f2H .idata$6                DATA
 0003:00000000 000013b0H .data                   DATA
 0003:000013b0 00000460H .data$r                 DATA
 0003:00001810 00002410H .bss                    DATA
 0004:00000000 000062b8H .pdata                  DATA
 0005:00000000 00000034H .gfids$y                DATA
 0006:00000000 000000a0H .rsrc$01                DATA
 0006:000000a0 000004b8H .rsrc$02                DATA

  Address         Publics by Value              Rva+Base               Lib:Object

 0000:00000000       __dynamic_value_reloc_table 0000000000000000     <absolute>
 0000:00000000       __guard_fids_table         0000000000000000     <absolute>
 0000:00000000       __guard_longjmp_table      0000000000000000     <absolute>
 0000:00000000       __guard_fids_count         0000000000000000     <absolute>
 0000:00000000       ___safe_se_handler_table   0000000000000000     <absolute>
 0000:00000000       ___safe_se_handler_count   0000000000000000     <absolute>
 0000:00000000       __guard_iat_count          0000000000000000     <absolute>
 0000:00000000       __guard_longjmp_count      0000000000000000     <absolute>
 0000:00000000       __guard_iat_table          0000000000000000     <absolute>
 0000:00000100       __guard_flags              0000000000000100     <absolute>
 0000:00000000       __ImageBase                0000000180000000     <linker-defined>
 0001:00005460       ?atomicExchange@shdfnd@physx@@YAHPECHH@Z 0000000180006460 f   PsWindowsAtomic.obj
 0001:00005470       ?atomicCompareExchange@shdfnd@physx@@YAHPECHHH@Z 0000000180006470 f   PsWindowsAtomic.obj
 0001:00005480       ?atomicCompareExchangePointer@shdfnd@physx@@YAPEAXPEAPECXPEAX1@Z 0000000180006480 f   PsWindowsAtomic.obj
 0001:00005490       ?atomicIncrement@shdfnd@physx@@YAHPECH@Z 0000000180006490 f   PsWindowsAtomic.obj
 0001:000054b0       ?atomicDecrement@shdfnd@physx@@YAHPECH@Z 00000001800064b0 f   PsWindowsAtomic.obj
 0001:000054c0       ?atomicAdd@shdfnd@physx@@YAHPECHH@Z 00000001800064c0 f   PsWindowsAtomic.obj
 0001:000054e0       ?atomicMax@shdfnd@physx@@YAHPECHH@Z 00000001800064e0 f   PsWindowsAtomic.obj
 0001:00005510       ?getCpuId@Cpu@shdfnd@physx@@SAEXZ 0000000180006510 f   PsWindowsCpu.obj
 0001:00005530       ??0FPUGuard@shdfnd@physx@@QEAA@XZ 0000000180006530 f   PsWindowsFPU.obj
 0001:00005570       ??1FPUGuard@shdfnd@physx@@QEAA@XZ 0000000180006570 f   PsWindowsFPU.obj
 0001:000055a0       ?enableFPExceptions@shdfnd@physx@@YAXXZ 00000001800065a0 f   PsWindowsFPU.obj
 0001:000055d0       ?disableFPExceptions@shdfnd@physx@@YAXXZ 00000001800065d0 f   PsWindowsFPU.obj
 0001:000055f0       ??4FPUGuard@shdfnd@physx@@QEAAAEAV012@AEBV012@@Z 00000001800065f0 f i PsWindowsFPU.obj
 0001:00005610       ??0MemoryMappedFile@shdfnd@physx@@QEAA@PEBDI@Z 0000000180006610 f   PsWindowsMemoryMappedFile.obj
 0001:000056d0       ??1MemoryMappedFile@shdfnd@physx@@QEAA@XZ 00000001800066d0 f   PsWindowsMemoryMappedFile.obj
 0001:00005720       ?getBaseAddress@MemoryMappedFile@shdfnd@physx@@QEAAPEAXXZ 0000000180006720 f   PsWindowsMemoryMappedFile.obj
 0001:00005730       ??0Allocator@shdfnd@physx@@QEAA@PEBD@Z 0000000180006730 f i PsWindowsMemoryMappedFile.obj
 0001:00005740       ??0PxFoundation@physx@@QEAA@AEBV01@@Z 0000000180006740 f i PsWindowsMemoryMappedFile.obj
 0001:00005750       ??0PxFoundation@physx@@QEAA@XZ 0000000180006750 f i PsWindowsMemoryMappedFile.obj
 0001:00005760       ??1PxFoundation@physx@@MEAA@XZ 0000000180006760 f i PsWindowsMemoryMappedFile.obj
 0001:00005770       ??4Allocator@shdfnd@physx@@QEAAAEAV012@$$QEAV012@@Z 0000000180006770 f i PsWindowsMemoryMappedFile.obj
 0001:00005780       ??4Allocator@shdfnd@physx@@QEAAAEAV012@AEBV012@@Z 0000000180006780 f i PsWindowsMemoryMappedFile.obj
 0001:00005790       ??4ErrorHandler@shdfnd@physx@@QEAAAEAV012@AEBV012@@Z 0000000180006790 f i PsWindowsMemoryMappedFile.obj
 0001:000057b0       ??4MutexImpl@shdfnd@physx@@QEAAAEAV012@AEBV012@@Z 00000001800067b0 f i PsWindowsMemoryMappedFile.obj
 0001:000057c0       ??4PAUtils@shdfnd@physx@@QEAAAEAV012@AEBV012@@Z 00000001800067c0 f i PsWindowsMemoryMappedFile.obj
 0001:000057d0       ??4PxFoundation@physx@@QEAAAEAV01@AEBV01@@Z 00000001800067d0 f i PsWindowsMemoryMappedFile.obj
 0001:000057e0       ??_EPxFoundation@physx@@MEAAPEAXI@Z 00000001800067e0 f i PsWindowsMemoryMappedFile.obj
 0001:00005870       ??_FAllocator@shdfnd@physx@@QEAAXXZ 0000000180006870 f i PsWindowsMemoryMappedFile.obj
 0001:00005880       ??_GPxFoundation@physx@@MEAAPEAXI@Z 0000000180006880 f i PsWindowsMemoryMappedFile.obj
 0001:000058b0       ??_I@YAXPEAX_K1P6AX0@Z@Z   00000001800068b0 f i PsWindowsMemoryMappedFile.obj
 0001:00005910       ?getAllocator@Foundation@shdfnd@physx@@UEBAAEAVPxBroadcastingAllocator@3@XZ 0000000180006910 f i PsWindowsMemoryMappedFile.obj
 0001:00005920       ?getCallbackCount@ErrorHandler@shdfnd@physx@@QEBAIXZ 0000000180006920 f i PsWindowsMemoryMappedFile.obj
 0001:00005930       ?getCheckedAllocator@Foundation@shdfnd@physx@@QEAAAEAVPxAllocatorCallback@3@XZ 0000000180006930 f i PsWindowsMemoryMappedFile.obj
 0001:00005940       ?getErrorCallback@ErrorHandler@shdfnd@physx@@QEBAPEAVPxErrorCallback@3@H@Z 0000000180006940 f i PsWindowsMemoryMappedFile.obj
 0001:00005950       ?getErrorHandler@Foundation@shdfnd@physx@@QEAAAEAVErrorHandler@23@XZ 0000000180006950 f i PsWindowsMemoryMappedFile.obj
 0001:00005960       ?getErrorMutex@Foundation@shdfnd@physx@@QEAAAEAV?$MutexT@V?$ReflectionAllocator@VMutexImpl@shdfnd@physx@@@shdfnd@physx@@@23@XZ 0000000180006960 f i PsWindowsMemoryMappedFile.obj
 0001:00005970       ?getMaxCallbackNum@ErrorHandler@shdfnd@physx@@QEBAIXZ 0000000180006970 f i PsWindowsMemoryMappedFile.obj
 0001:00005980       ?getNamedAllocMap@Foundation@shdfnd@physx@@QEAAAEAV?$HashMap@PEBVNamedAllocator@shdfnd@physx@@PEBDU?$Hash@PEBVNamedAllocator@shdfnd@physx@@@23@VNonTrackingAllocator@23@@23@XZ 0000000180006980 f i PsWindowsMemoryMappedFile.obj
 0001:00005990       ?getNamedAllocMutex@Foundation@shdfnd@physx@@QEAAAEAV?$MutexT@V?$ReflectionAllocator@VMutexImpl@shdfnd@physx@@@shdfnd@physx@@@23@XZ 0000000180006990 f i PsWindowsMemoryMappedFile.obj
 0001:000059a0       ?getPAUtils@Foundation@shdfnd@physx@@QEAAAEAVPAUtils@23@XZ 00000001800069a0 f i PsWindowsMemoryMappedFile.obj
 0001:000059b0       ?getReportAllocationNames@Foundation@shdfnd@physx@@UEBA_NXZ 00000001800069b0 f i PsWindowsMemoryMappedFile.obj
 0001:000059c0       ?getTempAllocFreeTable@Foundation@shdfnd@physx@@QEAAAEAV?$Array@PEATTempAllocatorChunk@shdfnd@physx@@VAllocator@23@@23@XZ 00000001800069c0 f i PsWindowsMemoryMappedFile.obj
 0001:000059d0       ?getTempAllocMutex@Foundation@shdfnd@physx@@QEAAAEAV?$MutexT@V?$ReflectionAllocator@VMutexImpl@shdfnd@physx@@@shdfnd@physx@@@23@XZ 00000001800069d0 f i PsWindowsMemoryMappedFile.obj
 0001:000059e0       ?setReportAllocationNames@Foundation@shdfnd@physx@@UEAAX_N@Z 00000001800069e0 f i PsWindowsMemoryMappedFile.obj
 0001:000059f0       ??0PsModuleUpdateLoader@shdfnd@physx@@QEAA@PEBD@Z 00000001800069f0 f   PsWindowsModuleUpdateLoader.obj
 0001:00005a40       ??1PsModuleUpdateLoader@shdfnd@physx@@QEAA@XZ 0000000180006a40 f   PsWindowsModuleUpdateLoader.obj
 0001:00005a70       ?LoadModule@PsModuleUpdateLoader@shdfnd@physx@@QEAAPEAUHINSTANCE__@@PEBD0@Z 0000000180006a70 f   PsWindowsModuleUpdateLoader.obj
 0001:00005a90       ??4PsModuleUpdateLoader@shdfnd@physx@@QEAAAEAV012@AEBV012@@Z 0000000180006a90 f i PsWindowsModuleUpdateLoader.obj
 0001:00005aa0       ??0MutexImpl@shdfnd@physx@@QEAA@XZ 0000000180006aa0 f   PsWindowsMutex.obj
 0001:00005ad0       ??1MutexImpl@shdfnd@physx@@QEAA@XZ 0000000180006ad0 f   PsWindowsMutex.obj
 0001:00005ae0       ?lock@MutexImpl@shdfnd@physx@@QEAAXXZ 0000000180006ae0 f   PsWindowsMutex.obj
 0001:00005af0       ?trylock@MutexImpl@shdfnd@physx@@QEAA_NXZ 0000000180006af0 f   PsWindowsMutex.obj
 0001:00005b10       ?unlock@MutexImpl@shdfnd@physx@@QEAAXXZ 0000000180006b10 f   PsWindowsMutex.obj
 0001:00005b20       ?getSize@MutexImpl@shdfnd@physx@@SAAEBIXZ 0000000180006b20 f   PsWindowsMutex.obj
 0001:00005b30       ??0ReadWriteLock@shdfnd@physx@@QEAA@XZ 0000000180006b30 f   PsWindowsMutex.obj
 0001:00005b80       ??1ReadWriteLock@shdfnd@physx@@QEAA@XZ 0000000180006b80 f   PsWindowsMutex.obj
 0001:00005be0       ?lockReader@ReadWriteLock@shdfnd@physx@@QEAAXXZ 0000000180006be0 f   PsWindowsMutex.obj
 0001:00005c20       ?lockWriter@ReadWriteLock@shdfnd@physx@@QEAAXXZ 0000000180006c20 f   PsWindowsMutex.obj
 0001:00005c50       ?unlockReader@ReadWriteLock@shdfnd@physx@@QEAAXXZ 0000000180006c50 f   PsWindowsMutex.obj
 0001:00005c60       ?unlockWriter@ReadWriteLock@shdfnd@physx@@QEAAXXZ 0000000180006c60 f   PsWindowsMutex.obj
 0001:00005c70       ??0ReadWriteLockImpl@shdfnd@physx@@QEAA@XZ 0000000180006c70 f i PsWindowsMutex.obj
 0001:00005d00       ??4ThreadImpl@shdfnd@physx@@QEAAAEAV012@AEBV012@@Z 0000000180006d00 f i PsWindowsMutex.obj
 0001:00005d10       ?__empty_global_delete@@YAXPEAX@Z 0000000180006d10 f i PsWindowsMutex.obj
 0001:00005d20       ?__empty_global_delete@@YAXPEAX_K@Z 0000000180006d20 f i PsWindowsMutex.obj
 0001:00005d30       ??0PAUtils@shdfnd@physx@@QEAA@XZ 0000000180006d30 f   PsWindowsPAEventSrc.obj
 0001:00005d50       ??1PAUtils@shdfnd@physx@@QEAA@XZ 0000000180006d50 f   PsWindowsPAEventSrc.obj
 0001:00005db0       ?isEnabled@PAUtils@shdfnd@physx@@QEAA_NXZ 0000000180006db0 f   PsWindowsPAEventSrc.obj
 0001:00005dd0       ?isEventEnabled@PAUtils@shdfnd@physx@@QEAA_NG@Z 0000000180006dd0 f   PsWindowsPAEventSrc.obj
 0001:00005df0       ?registerEvent@PAUtils@shdfnd@physx@@QEAAGPEBD@Z 0000000180006df0 f   PsWindowsPAEventSrc.obj
 0001:00005eb0       ?startEvent@PAUtils@shdfnd@physx@@QEAAXGG@Z 0000000180006eb0 f   PsWindowsPAEventSrc.obj
 0001:00005fa0       ?stopEvent@PAUtils@shdfnd@physx@@QEAAXGG@Z 0000000180006fa0 f   PsWindowsPAEventSrc.obj
 0001:00006090       ?statEvent@PAUtils@shdfnd@physx@@QEAAXGI@Z 0000000180007090 f   PsWindowsPAEventSrc.obj
 0001:000060f0       ?statEvent@PAUtils@shdfnd@physx@@QEAAXGII@Z 00000001800070f0 f   PsWindowsPAEventSrc.obj
 0001:00006120       ?debugEvent@PAUtils@shdfnd@physx@@QEAAXGII@Z 0000000180007120 f   PsWindowsPAEventSrc.obj
 0001:00006150       ?rawEvent@PAUtils@shdfnd@physx@@QEAAXGIIE@Z 0000000180007150 f   PsWindowsPAEventSrc.obj
 0001:00006180       ?rawEventWithTimestamp@PAUtils@shdfnd@physx@@QEAA_NG_KIIE@Z 0000000180007180 f   PsWindowsPAEventSrc.obj
 0001:000061b0       ?lock@PAUtils@shdfnd@physx@@QEAA_NXZ 00000001800071b0 f   PsWindowsPAEventSrc.obj
 0001:00006220       ?unlock@PAUtils@shdfnd@physx@@QEAA_NXZ 0000000180007220 f   PsWindowsPAEventSrc.obj
 0001:00006240       ??0ConnImpl@shdfnd@physx@@QEAA@XZ 0000000180007240 f   PsWindowsPAEventSrc.obj
 0001:00006420       ??1ConnImpl@shdfnd@physx@@QEAA@XZ 0000000180007420 f   PsWindowsPAEventSrc.obj
 0001:00006470       ?printFormatted@shdfnd@physx@@YAXPEBDZZ 0000000180007470 f   PsWindowsPrintString.obj
 0001:000064f0       ?printString@shdfnd@physx@@YAXPEBD@Z 00000001800074f0 f   PsWindowsPrintString.obj
 0001:00006520       ??$__vcrt_va_start_verify_argument_type@PEBD@@YAXXZ 0000000180007520 f i PsWindowsPrintString.obj
 0001:00006530       __local_stdio_printf_options 0000000180007530 f i PsWindowsPrintString.obj
 0001:00006540       ??0SListImpl@shdfnd@physx@@QEAA@XZ 0000000180007540 f   PsWindowsSList.obj
 0001:00006560       ??1SListImpl@shdfnd@physx@@QEAA@XZ 0000000180007560 f   PsWindowsSList.obj
 0001:00006570       ?push@SListImpl@shdfnd@physx@@QEAAXPEAVSListEntry@23@@Z 0000000180007570 f   PsWindowsSList.obj
 0001:00006580       ?pop@SListImpl@shdfnd@physx@@QEAAPEAVSListEntry@23@XZ 0000000180007580 f   PsWindowsSList.obj
 0001:00006590       ?flush@SListImpl@shdfnd@physx@@QEAAPEAVSListEntry@23@XZ 0000000180007590 f   PsWindowsSList.obj
 0001:000065a0       ?getSize@SListImpl@shdfnd@physx@@SAAEBIXZ 00000001800075a0 f   PsWindowsSList.obj
 0001:000065b0       ??4SListImpl@shdfnd@physx@@QEAAAEAU012@AEBU012@@Z 00000001800075b0 f i PsWindowsSList.obj
 0001:000065c0       ??0Socket@shdfnd@physx@@QEAA@_N@Z 00000001800075c0 f   PsWindowsSocket.obj
 0001:00006680       ??1Socket@shdfnd@physx@@UEAA@XZ 0000000180007680 f   PsWindowsSocket.obj
 0001:000066d0       ?connect@Socket@shdfnd@physx@@QEAA_NPEBDGI@Z 00000001800076d0 f   PsWindowsSocket.obj
 0001:000066e0       ?listen@Socket@shdfnd@physx@@QEAA_NGPEAVConnection@123@@Z 00000001800076e0 f   PsWindowsSocket.obj
 0001:000066f0       ?disconnect@Socket@shdfnd@physx@@QEAAXXZ 00000001800076f0 f   PsWindowsSocket.obj
 0001:00006700       ?isConnected@Socket@shdfnd@physx@@QEBA_NXZ 0000000180007700 f   PsWindowsSocket.obj
 0001:00006710       ?getHost@Socket@shdfnd@physx@@QEBAPEBDXZ 0000000180007710 f   PsWindowsSocket.obj
 0001:00006720       ?getPort@Socket@shdfnd@physx@@QEBAGXZ 0000000180007720 f   PsWindowsSocket.obj
 0001:00006730       ?flush@Socket@shdfnd@physx@@QEAA_NXZ 0000000180007730 f   PsWindowsSocket.obj
 0001:00006750       ?write@Socket@shdfnd@physx@@QEAAIPEBEI@Z 0000000180007750 f   PsWindowsSocket.obj
 0001:00006770       ?read@Socket@shdfnd@physx@@QEAAIPEAEI@Z 0000000180007770 f   PsWindowsSocket.obj
 0001:00006790       ?setBlocking@Socket@shdfnd@physx@@QEAAX_N@Z 0000000180007790 f   PsWindowsSocket.obj
 0001:000067d0       ?isBlocking@Socket@shdfnd@physx@@QEBA_NXZ 00000001800077d0 f   PsWindowsSocket.obj
 0001:000067f0       ??0SocketImpl@shdfnd@physx@@QEAA@XZ 00000001800077f0 f   PsWindowsSocket.obj
 0001:00006910       ??1SocketImpl@shdfnd@physx@@UEAA@XZ 0000000180007910 f   PsWindowsSocket.obj
 0001:00006980       ?connect@SocketImpl@shdfnd@physx@@QEAA_NPEBDGI@Z 0000000180007980 f   PsWindowsSocket.obj
 0001:00006c00       ?listen@SocketImpl@shdfnd@physx@@QEAA_NGPEAVConnection@Socket@23@@Z 0000000180007c00 f   PsWindowsSocket.obj
 0001:00006d00       ?disconnect@SocketImpl@shdfnd@physx@@QEAAXXZ 0000000180007d00 f   PsWindowsSocket.obj
 0001:00006d80       ?setBlocking@SocketImpl@shdfnd@physx@@QEAAX_N@Z 0000000180007d80 f   PsWindowsSocket.obj
 0001:00006dc0       ?write@SocketImpl@shdfnd@physx@@UEAAIPEBEI@Z 0000000180007dc0 f   PsWindowsSocket.obj
 0001:00006e50       ?flush@SocketImpl@shdfnd@physx@@UEAA_NXZ 0000000180007e50 f   PsWindowsSocket.obj
 0001:00006e60       ?read@SocketImpl@shdfnd@physx@@QEAAIPEAEI@Z 0000000180007e60 f   PsWindowsSocket.obj
 0001:00006f50       ?execute@SocketImpl@shdfnd@physx@@UEAAXXZ 0000000180007f50 f   PsWindowsSocket.obj
 0001:00006fb0       ??0BufferedSocketImpl@shdfnd@physx@@QEAA@XZ 0000000180007fb0 f   PsWindowsSocket.obj
 0001:00006fe0       ?flush@BufferedSocketImpl@shdfnd@physx@@UEAA_NXZ 0000000180007fe0 f   PsWindowsSocket.obj
 0001:00007090       ?write@BufferedSocketImpl@shdfnd@physx@@UEAAIPEBEI@Z 0000000180008090 f   PsWindowsSocket.obj
 0001:00007170       ??0Socket@shdfnd@physx@@QEAA@AEBV012@@Z 0000000180008170 f i PsWindowsSocket.obj
 0001:00007190       ??1?$ThreadT@V?$ReflectionAllocator@VThreadImpl@shdfnd@physx@@@shdfnd@physx@@@shdfnd@physx@@UEAA@XZ 0000000180008190 f i PsWindowsSocket.obj
 0001:000071e0       ??1BufferedSocketImpl@shdfnd@physx@@UEAA@XZ 00000001800081e0 f i PsWindowsSocket.obj
 0001:000071f0       ??1Runnable@shdfnd@physx@@UEAA@XZ 00000001800081f0 f i PsWindowsSocket.obj
 0001:00007200       ??4Socket@shdfnd@physx@@QEAAAEAV012@AEBV012@@Z 0000000180008200 f i PsWindowsSocket.obj
 0001:00007210       ??_ESocket@shdfnd@physx@@UEAAPEAXI@Z 0000000180008210 f i PsWindowsSocket.obj
 0001:000073d0       ??_FSocket@shdfnd@physx@@QEAAXXZ 00000001800083d0 f i PsWindowsSocket.obj
 0001:00007450       ??_G?$ThreadT@V?$ReflectionAllocator@VThreadImpl@shdfnd@physx@@@shdfnd@physx@@@shdfnd@physx@@UEAAPEAXI@Z 0000000180008450 f i PsWindowsSocket.obj
 0001:00007450       ??_E?$ThreadT@V?$ReflectionAllocator@VThreadImpl@shdfnd@physx@@@shdfnd@physx@@@shdfnd@physx@@UEAAPEAXI@Z 0000000180008450 f i PsWindowsSocket.obj
 0001:000074f0       ??_EBufferedSocketImpl@shdfnd@physx@@UEAAPEAXI@Z 00000001800084f0 f i PsWindowsSocket.obj
 0001:000074f0       ??_GBufferedSocketImpl@shdfnd@physx@@UEAAPEAXI@Z 00000001800084f0 f i PsWindowsSocket.obj
 0001:00007550       ??_ERunnable@shdfnd@physx@@UEAAPEAXI@Z 0000000180008550 f i PsWindowsSocket.obj
 0001:00007550       ??_GRunnable@shdfnd@physx@@UEAAPEAXI@Z 0000000180008550 f i PsWindowsSocket.obj
 0001:00007580       ??_GSocket@shdfnd@physx@@UEAAPEAXI@Z 0000000180008580 f i PsWindowsSocket.obj
 0001:00007610       ??_GSocketImpl@shdfnd@physx@@UEAAPEAXI@Z 0000000180008610 f i PsWindowsSocket.obj
 0001:00007610       ??_ESocketImpl@shdfnd@physx@@UEAAPEAXI@Z 0000000180008610 f i PsWindowsSocket.obj
 0001:00007670       ?__global_array_delete@@YAXPEAX@Z 0000000180008670 f i PsWindowsSocket.obj
 0001:00007680       ?__global_array_delete@@YAXPEAX_K@Z 0000000180008680 f i PsWindowsSocket.obj
 0001:00007690       ?__global_delete@@YAXPEAX@Z 0000000180008690 f i PsWindowsSocket.obj
 0001:000076a0       ?__global_delete@@YAXPEAX_K@Z 00000001800086a0 f i PsWindowsSocket.obj
 0001:000076b0       ?execute@?$ThreadT@V?$ReflectionAllocator@VThreadImpl@shdfnd@physx@@@shdfnd@physx@@@shdfnd@physx@@UEAAXXZ 00000001800086b0 f i PsWindowsSocket.obj
 0001:000076c0       ?execute@Runnable@shdfnd@physx@@UEAAXXZ 00000001800086c0 f i PsWindowsSocket.obj
 0001:000076d0       ??0SyncImpl@shdfnd@physx@@QEAA@XZ 00000001800086d0 f   PsWindowsSync.obj
 0001:00007700       ??1SyncImpl@shdfnd@physx@@QEAA@XZ 0000000180008700 f   PsWindowsSync.obj
 0001:00007710       ?wait@SyncImpl@shdfnd@physx@@QEAA_NI@Z 0000000180008710 f   PsWindowsSync.obj
 0001:00007740       ?set@SyncImpl@shdfnd@physx@@QEAAXXZ 0000000180008740 f   PsWindowsSync.obj
 0001:00007750       ?reset@SyncImpl@shdfnd@physx@@QEAAXXZ 0000000180008750 f   PsWindowsSync.obj
 0001:00007760       ?getSize@SyncImpl@shdfnd@physx@@SAAEBIXZ 0000000180008760 f   PsWindowsSync.obj
 0001:00007770       ??4SyncImpl@shdfnd@physx@@QEAAAEAV012@AEBV012@@Z 0000000180008770 f i PsWindowsSync.obj
 0001:00007780       ?getDefaultStackSize@ThreadImpl@shdfnd@physx@@SAIXZ 0000000180008780 f   PsWindowsThread.obj
 0001:00007790       ?getId@ThreadImpl@shdfnd@physx@@SA_KXZ 0000000180008790 f   PsWindowsThread.obj
 0001:000077b0       ??0ThreadImpl@shdfnd@physx@@QEAA@XZ 00000001800087b0 f   PsWindowsThread.obj
 0001:000077d0       ??0ThreadImpl@shdfnd@physx@@QEAA@P6APEAXPEAX@Z0@Z 00000001800087d0 f   PsWindowsThread.obj
 0001:00007850       ??1ThreadImpl@shdfnd@physx@@QEAA@XZ 0000000180008850 f   PsWindowsThread.obj
 0001:00007890       ?start@ThreadImpl@shdfnd@physx@@QEAAXIPEAVRunnable@23@@Z 0000000180008890 f   PsWindowsThread.obj
 0001:00007920       ?kill@ThreadImpl@shdfnd@physx@@QEAAXXZ 0000000180008920 f   PsWindowsThread.obj
 0001:00007960       ?signalQuit@ThreadImpl@shdfnd@physx@@QEAAXXZ 0000000180008960 f   PsWindowsThread.obj
 0001:00007970       ?waitForQuit@ThreadImpl@shdfnd@physx@@QEAA_NXZ 0000000180008970 f   PsWindowsThread.obj
 0001:000079a0       ?quitIsSignalled@ThreadImpl@shdfnd@physx@@QEAA_NXZ 00000001800089a0 f   PsWindowsThread.obj
 0001:000079c0       ?quit@ThreadImpl@shdfnd@physx@@QEAAXXZ 00000001800089c0 f   PsWindowsThread.obj
 0001:000079e0       ?setAffinityMask@ThreadImpl@shdfnd@physx@@QEAAII@Z 00000001800089e0 f   PsWindowsThread.obj
 0001:00007a10       ?getPriority@ThreadImpl@shdfnd@physx@@SA?AW4Enum@ThreadPriority@23@_K@Z 0000000180008a10 f   PsWindowsThread.obj
 0001:00007a70       ?setPriority@ThreadImpl@shdfnd@physx@@QEAAXW4Enum@ThreadPriority@23@@Z 0000000180008a70 f   PsWindowsThread.obj
 0001:00007ae0       ?setName@ThreadImpl@shdfnd@physx@@QEAAXPEBD@Z 0000000180008ae0 f   PsWindowsThread.obj
 0001:00007b30       ?sleep@ThreadImpl@shdfnd@physx@@SAXI@Z 0000000180008b30 f   PsWindowsThread.obj
 0001:00007b40       ?yield@ThreadImpl@shdfnd@physx@@SAXXZ 0000000180008b40 f   PsWindowsThread.obj
 0001:00007b50       ?getNbPhysicalCores@ThreadImpl@shdfnd@physx@@SAIXZ 0000000180008b50 f   PsWindowsThread.obj
 0001:00007ca0       ?getSize@ThreadImpl@shdfnd@physx@@SAAEBIXZ 0000000180008ca0 f   PsWindowsThread.obj
 0001:00007cb0       ?TlsAlloc@shdfnd@physx@@YAIXZ 0000000180008cb0 f   PsWindowsThread.obj
 0001:00007cc0       ?TlsFree@shdfnd@physx@@YAXI@Z 0000000180008cc0 f   PsWindowsThread.obj
 0001:00007cd0       ?TlsGet@shdfnd@physx@@YAPEAXI@Z 0000000180008cd0 f   PsWindowsThread.obj
 0001:00007ce0       ?TlsSet@shdfnd@physx@@YAIIPEAX@Z 0000000180008ce0 f   PsWindowsThread.obj
 0001:00007d20       ?getBootCounterFrequency@Time@shdfnd@physx@@SAAEBUCounterFrequencyToTensOfNanos@23@XZ 0000000180008d20 f   PsWindowsTime.obj
 0001:00007d30       ?getCounterFrequency@Time@shdfnd@physx@@SA?AUCounterFrequencyToTensOfNanos@23@XZ 0000000180008d30 f   PsWindowsTime.obj
 0001:00007d70       ?getCurrentCounterValue@Time@shdfnd@physx@@SA_KXZ 0000000180008d70 f   PsWindowsTime.obj
 0001:00007d90       ??0Time@shdfnd@physx@@QEAA@XZ 0000000180008d90 f   PsWindowsTime.obj
 0001:00007dd0       ?getElapsedSeconds@Time@shdfnd@physx@@QEAANXZ 0000000180008dd0 f   PsWindowsTime.obj
 0001:00007e20       ?peekElapsedSeconds@Time@shdfnd@physx@@QEAANXZ 0000000180008e20 f   PsWindowsTime.obj
 0001:00007e60       ?getLastTime@Time@shdfnd@physx@@QEBANXZ 0000000180008e60 f   PsWindowsTime.obj
 0001:00007e80       ??4Time@shdfnd@physx@@QEAAAEAV012@$$QEAV012@@Z 0000000180008e80 f i PsWindowsTime.obj
 0001:00007e90       ??4Time@shdfnd@physx@@QEAAAEAV012@AEBV012@@Z 0000000180008e90 f i PsWindowsTime.obj
 0001:00007ea0       ?getCurrentTimeInTensOfNanoSeconds@Time@shdfnd@physx@@SA_KXZ 0000000180008ea0 f i PsWindowsTime.obj
 0001:00007ed0       ?allocate@Allocator@shdfnd@physx@@QEAAPEAX_KPEBDH@Z 0000000180008ed0 f   PsAllocator.obj
 0001:00007f40       ?deallocate@Allocator@shdfnd@physx@@QEAAXPEAX@Z 0000000180008f40 f   PsAllocator.obj
 0001:00007f70       ??_GPxAssertHandler@physx@@UEAAPEAXI@Z 0000000180008f70 f i PsAssert.obj
 0001:00007f70       ??_EPxAssertHandler@physx@@UEAAPEAXI@Z 0000000180008f70 f i PsAssert.obj
 0001:00007fd0       ??_EDefaultAssertHandler@?A0x2e8fa11f@@UEAAPEAXI@Z 0000000180008fd0 f i PsAssert.obj
 0001:00007fd0       ??_GDefaultAssertHandler@?A0x2e8fa11f@@UEAAPEAXI@Z 0000000180008fd0 f i PsAssert.obj
 0001:00008000       ?PxGetAssertHandler@physx@@YAAEAVPxAssertHandler@1@XZ 0000000180009000 f   PsAssert.obj
 0001:00008010       ?PxSetAssertHandler@physx@@YAXAEAVPxAssertHandler@1@@Z 0000000180009010 f   PsAssert.obj
 0001:00008020       ??$__vcrt_va_start_verify_argument_type@QEBD@@YAXXZ 0000000180009020 f i PsAssert.obj
 0001:00008030       ??1PxAssertHandler@physx@@UEAA@XZ 0000000180009030 f i PsAssert.obj
 0001:00008040       sprintf                    0000000180009040 f i PsAssert.obj
 0001:000080a0       ??0ErrorHandler@shdfnd@physx@@QEAA@XZ 00000001800090a0 f   PsErrorHandler.obj
 0001:000080c0       ??1ErrorHandler@shdfnd@physx@@QEAA@XZ 00000001800090c0 f   PsErrorHandler.obj
 0001:00008110       ?reportError@ErrorHandler@shdfnd@physx@@QEAAXW4Enum@PxErrorCode@3@PEBD1H@Z 0000000180009110 f   PsErrorHandler.obj
 0001:000081b0       ?registerErrorCallback@ErrorHandler@shdfnd@physx@@QEAAHAEAVPxErrorCallback@3@@Z 00000001800091b0 f   PsErrorHandler.obj
 0001:00008230       ?unRegisterErrorCallback@ErrorHandler@shdfnd@physx@@QEAAXAEAVPxErrorCallback@3@@Z 0000000180009230 f   PsErrorHandler.obj
 0001:000082d0       ?unRegisterErrorCallback@ErrorHandler@shdfnd@physx@@QEAAXH@Z 00000001800092d0 f   PsErrorHandler.obj
 0001:00008340       ?createFastIPC@shdfnd@physx@@YAPEAVPxIPC@12@AEAW4ErrorCode@312@W4ConnectionType@312@PEBDII_N3I@Z 0000000180009340 f   PsFastIPC.obj
 0001:00008440       ??0FastIPC@shdfnd@physx@@QEAA@AEAW4ErrorCode@PxIPC@12@W4ConnectionType@412@PEBDII_N3I@Z 0000000180009440 f i PsFastIPC.obj
 0001:00008820       ??0MultiPartPacket@PxRingBuffer@shdfnd@physx@@QEAA@W4MessageType@123@PEBXIIPEAV123@@Z 0000000180009820 f i PsFastIPC.obj
 0001:000088c0       ??1FastIPC@shdfnd@physx@@UEAA@XZ 00000001800098c0 f i PsFastIPC.obj
 0001:000089e0       ??1PxIPC@shdfnd@physx@@MEAA@XZ 00000001800099e0 f i PsFastIPC.obj
 0001:000089f0       ??_EFastIPC@shdfnd@physx@@UEAAPEAXI@Z 00000001800099f0 f i PsFastIPC.obj
 0001:000089f0       ??_GFastIPC@shdfnd@physx@@UEAAPEAXI@Z 00000001800099f0 f i PsFastIPC.obj
 0001:00008a50       ??_EPxIPC@shdfnd@physx@@MEAAPEAXI@Z 0000000180009a50 f i PsFastIPC.obj
 0001:00008a50       ??_GPxIPC@shdfnd@physx@@MEAAPEAXI@Z 0000000180009a50 f i PsFastIPC.obj
 0001:00008a80       ?canSend@FastIPC@shdfnd@physx@@UEAA_NI@Z 0000000180009a80 f i PsFastIPC.obj
 0001:00008af0       ?canSend@PxRingBuffer@shdfnd@physx@@QEBA?AW4ErrorCode@123@I@Z 0000000180009af0 f i PsFastIPC.obj
 0001:00008b90       ?haveConnection@FastIPC@shdfnd@physx@@UEBA_NXZ 0000000180009b90 f i PsFastIPC.obj
 0001:00008bb0       ?init@PxRingBuffer@shdfnd@physx@@QEAAXPEAXI_N1IPEAI2@Z 0000000180009bb0 f i PsFastIPC.obj
 0001:00008c60       ?isServer@FastIPC@shdfnd@physx@@UEBA_NXZ 0000000180009c60 f i PsFastIPC.obj
 0001:00008c70       ?process@MultiPartPacket@PxRingBuffer@shdfnd@physx@@QEAA?AW4ErrorCode@234@XZ 0000000180009c70 f i PsFastIPC.obj
 0001:00008d00       ?pumpPendingSends@FastIPC@shdfnd@physx@@UEAA_NXZ 0000000180009d00 f i PsFastIPC.obj
 0001:00008d20       ?pumpPendingSends@PxRingBuffer@shdfnd@physx@@QEAA_NXZ 0000000180009d20 f i PsFastIPC.obj
 0001:00008d90       ?receiveAcknowledge@FastIPC@shdfnd@physx@@UEAA?AW4ErrorCode@PxIPC@23@XZ 0000000180009d90 f i PsFastIPC.obj
 0001:00008dc0       ?receiveAcknowledge@PxRingBuffer@shdfnd@physx@@QEAA?AW4ErrorCode@123@XZ 0000000180009dc0 f i PsFastIPC.obj
 0001:00008e80       ?receiveData@FastIPC@shdfnd@physx@@UEAAPEBXAEAI@Z 0000000180009e80 f i PsFastIPC.obj
 0001:00008eb0       ?receiveData@PxRingBuffer@shdfnd@physx@@QEAA?AW4MessageType@123@AEAPEBXAEAI@Z 0000000180009eb0 f i PsFastIPC.obj
 0001:00009120       ?release@FastIPC@shdfnd@physx@@UEAAXXZ 000000018000a120 f i PsFastIPC.obj
 0001:00009140       ?sendData@FastIPC@shdfnd@physx@@UEAA?AW4ErrorCode@PxIPC@23@PEBXI_N@Z 000000018000a140 f i PsFastIPC.obj
 0001:00009180       ?sendData@PxRingBuffer@shdfnd@physx@@QEAA?AW4ErrorCode@123@W4MessageType@123@PEBXI_N@Z 000000018000a180 f i PsFastIPC.obj
 0001:000092f0       ?sendDataInternal@PxRingBuffer@shdfnd@physx@@AEAA?AW4ErrorCode@123@W4MessageType@123@PEBXI@Z 000000018000a2f0 f i PsFastIPC.obj
 0001:00009360       ?sendHeader@MultiPartPacket@PxRingBuffer@shdfnd@physx@@QEAA?AW4ErrorCode@234@XZ 000000018000a360 f i PsFastIPC.obj
 0001:000093f0       ?writeData@PxRingBuffer@shdfnd@physx@@AEAAXW4MessageType@123@PEBXI@Z 000000018000a3f0 f i PsFastIPC.obj
 0001:000094d0       ?createFastXml@shdfnd@physx@@YAPEAVFastXml@12@PEAVCallback@312@@Z 000000018000a4d0 f   PsFastXml.obj
 0001:00009610       ??1FastXml@shdfnd@physx@@MEAA@XZ 000000018000a610 f i PsFastXml.obj
 0001:00009650       ??_GFastXml@shdfnd@physx@@MEAAPEAXI@Z 000000018000a650 f i PsFastXml.obj
 0001:00009650       ??_EFastXml@shdfnd@physx@@MEAAPEAXI@Z 000000018000a650 f i PsFastXml.obj
 0001:00009680       ??_GMyFastXml@?A0x5879332e@@EEAAPEAXI@Z 000000018000a680 f i PsFastXml.obj
 0001:00009680       ??_EMyFastXml@?A0x5879332e@@EEAAPEAXI@Z 000000018000a680 f i PsFastXml.obj
 0001:0000a6b0       PxCreateFoundation         000000018000b6b0 f   PsFoundation.obj
 0001:0000a6d0       PxGetFoundation            000000018000b6d0 f   PsFoundation.obj
 0001:0000a6e0       ?getAllocator@shdfnd@physx@@YAAEAVPxAllocatorCallback@2@XZ 000000018000b6e0 f   PsFoundation.obj
 0001:0000a700       ??0Foundation@shdfnd@physx@@AEAA@AEAVPxErrorCallback@2@AEAVPxAllocatorCallback@2@@Z 000000018000b700 f   PsFoundation.obj
 0001:0000a930       ??1Foundation@shdfnd@physx@@EEAA@XZ 000000018000b930 f   PsFoundation.obj
 0001:0000aab0       ?release@Foundation@shdfnd@physx@@UEAAXXZ 000000018000bab0 f   PsFoundation.obj
 0001:0000aac0       ?createInstance@Foundation@shdfnd@physx@@SAPEAV123@IAEAVPxErrorCallback@3@AEAVPxAllocatorCallback@3@@Z 000000018000bac0 f   PsFoundation.obj
 0001:0000ac20       ?destroyInstance@Foundation@shdfnd@physx@@SAXXZ 000000018000bc20 f   PsFoundation.obj
 0001:0000aca0       ?getInstance@Foundation@shdfnd@physx@@SAAEAV123@XZ 000000018000bca0 f   PsFoundation.obj
 0001:0000acb0       ?incRefCount@Foundation@shdfnd@physx@@SAXXZ 000000018000bcb0 f   PsFoundation.obj
 0001:0000ad00       ?decRefCount@Foundation@shdfnd@physx@@SAXXZ 000000018000bd00 f   PsFoundation.obj
 0001:0000ad50       ?getErrorCallback@Foundation@shdfnd@physx@@UEBAAEAVPxErrorCallback@3@XZ 000000018000bd50 f   PsFoundation.obj
 0001:0000ad60       ?setErrorLevel@Foundation@shdfnd@physx@@UEAAXW4Enum@PxErrorCode@3@@Z 000000018000bd60 f   PsFoundation.obj
 0001:0000ad70       ?getErrorLevel@Foundation@shdfnd@physx@@UEBA?AW4Enum@PxErrorCode@3@XZ 000000018000bd70 f   PsFoundation.obj
 0001:0000ad80       ?getAllocatorCallback@Foundation@shdfnd@physx@@UEBAAEAVPxAllocatorCallback@3@XZ 000000018000bd80 f   PsFoundation.obj
 0001:0000ad90       ?error@Foundation@shdfnd@physx@@QEAAXW4Enum@PxErrorCode@3@PEBDH1ZZ 000000018000bd90 f   PsFoundation.obj
 0001:0000adc0       ?errorImpl@Foundation@shdfnd@physx@@QEAAXW4Enum@PxErrorCode@3@PEBDH1PEAD@Z 000000018000bdc0 f   PsFoundation.obj
 0001:0000ae70       ?getWarnOnceTimestamp@Foundation@shdfnd@physx@@SAIXZ 000000018000be70 f   PsFoundation.obj
 0001:0000ae80       ?allocate@AlignCheckAllocator@Foundation@shdfnd@physx@@UEAAPEAX_KPEBD1H@Z 000000018000be80 f   PsFoundation.obj
 0001:0000af80       ??0TempAllocator@shdfnd@physx@@QEAA@PEBD@Z 000000018000bf80 f i PsFoundation.obj
 0001:0000af90       ??1PxAllocatorCallback@physx@@UEAA@XZ 000000018000bf90 f i PsFoundation.obj
 0001:0000afa0       ??1PxBroadcastingAllocator@physx@@MEAA@XZ 000000018000bfa0 f i PsFoundation.obj
 0001:0000afb0       ??4TempAllocator@shdfnd@physx@@QEAAAEAV012@$$QEAV012@@Z 000000018000bfb0 f i PsFoundation.obj
 0001:0000afc0       ??4TempAllocator@shdfnd@physx@@QEAAAEAV012@AEBV012@@Z 000000018000bfc0 f i PsFoundation.obj
 0001:0000afd0       ??_EFoundation@shdfnd@physx@@EEAAPEAXI@Z 000000018000bfd0 f i PsFoundation.obj
 0001:0000b090       ??_FTempAllocator@shdfnd@physx@@QEAAXXZ 000000018000c090 f i PsFoundation.obj
 0001:0000b0a0       ??_EAlignCheckAllocator@Foundation@shdfnd@physx@@UEAAPEAXI@Z 000000018000c0a0 f i PsFoundation.obj
 0001:0000b0a0       ??_GAlignCheckAllocator@Foundation@shdfnd@physx@@UEAAPEAXI@Z 000000018000c0a0 f i PsFoundation.obj
 0001:0000b0d0       ??_GFoundation@shdfnd@physx@@EEAAPEAXI@Z 000000018000c0d0 f i PsFoundation.obj
 0001:0000b110       ??_GPxAllocatorCallback@physx@@UEAAPEAXI@Z 000000018000c110 f i PsFoundation.obj
 0001:0000b110       ??_EPxAllocatorCallback@physx@@UEAAPEAXI@Z 000000018000c110 f i PsFoundation.obj
 0001:0000b140       ??_GPxBroadcastingAllocator@physx@@MEAAPEAXI@Z 000000018000c140 f i PsFoundation.obj
 0001:0000b140       ??_EPxBroadcastingAllocator@physx@@MEAAPEAXI@Z 000000018000c140 f i PsFoundation.obj
 0001:0000b170       ?deallocate@AlignCheckAllocator@Foundation@shdfnd@physx@@UEAAXPEAX@Z 000000018000c170 f i PsFoundation.obj
 0001:0000b1e0       ?deregisterAllocationListener@AlignCheckAllocator@Foundation@shdfnd@physx@@UEAAXAEAVPxAllocationListener@4@@Z 000000018000c1e0 f i PsFoundation.obj
 0001:0000b220       ?recreate@?$Array@PEATTempAllocatorChunk@shdfnd@physx@@VAllocator@23@@shdfnd@physx@@IEAAXI@Z 000000018000c220 f i PsFoundation.obj
 0001:0000b2b0       ?registerAllocationListener@AlignCheckAllocator@Foundation@shdfnd@physx@@UEAAXAEAVPxAllocationListener@4@@Z 000000018000c2b0 f i PsFoundation.obj
 0001:0000b2d0       ?reserveInternal@?$HashBase@V?$Pair@QEBVNamedAllocator@shdfnd@physx@@PEBD@shdfnd@physx@@PEBVNamedAllocator@23@U?$Hash@PEBVNamedAllocator@shdfnd@physx@@@23@UGetKey@?$HashMapBase@PEBVNamedAllocator@shdfnd@physx@@PEBDU?$Hash@PEBVNamedAllocator@shdfnd@physx@@@23@VNonTrackingAllocator@23@@internal@23@VNonTrackingAllocator@23@$00@internal@shdfnd@physx@@AEAAXI@Z 000000018000c2d0 f i PsFoundation.obj
 0001:0000b4c0       ?resize@?$Array@PEATTempAllocatorChunk@shdfnd@physx@@VAllocator@23@@shdfnd@physx@@QEAAXIAEBQEATTempAllocatorChunk@23@@Z 000000018000c4c0 f i PsFoundation.obj
 0001:0000b530       ?sprintf_s@string@physx@@YAHPEAD_KPEBDZZ 000000018000c530 f i PsFoundation.obj
 0001:0000b590       ?computeQuatFromNormal@shdfnd@physx@@YA?AVPxQuat@2@AEBVPxVec3@2@@Z 000000018000c590 f   PsMathUtils.obj
 0001:0000b720       ?optimizeBoundingBox@shdfnd@physx@@YA?AVPxVec3@2@AEAVPxMat33@2@@Z 000000018000c720 f   PsMathUtils.obj
 0001:0000bad0       ?slerp@shdfnd@physx@@YA?AVPxQuat@2@MAEBV32@0@Z 000000018000cad0 f   PsMathUtils.obj
 0001:0000bcf0       ?integrateTransform@shdfnd@physx@@YAXAEBVPxTransform@2@AEBVPxVec3@2@1MAEAV32@@Z 000000018000ccf0 f   PsMathUtils.obj
 0001:0000bec0       ??DPxQuat@physx@@QEBA?AV01@AEBV01@@Z 000000018000cec0 f i PsMathUtils.obj
 0001:0000c000       ?allocate@TempAllocator@shdfnd@physx@@QEAAPEAX_KPEBDH@Z 000000018000d000 f   PsTempAllocator.obj
 0001:0000c140       ?deallocate@TempAllocator@shdfnd@physx@@QEAAXPEAX@Z 000000018000d140 f   PsTempAllocator.obj
 0001:0000c210       ?checkValid@shdfnd@physx@@YA_NAEBM@Z 000000018000d210 f   PsUtilities.obj
 0001:0000c240       ?checkValid@shdfnd@physx@@YA_NAEBVPxVec3@2@@Z 000000018000d240 f   PsUtilities.obj
 0001:0000c2a0       ?checkValid@shdfnd@physx@@YA_NAEBVPxQuat@2@@Z 000000018000d2a0 f   PsUtilities.obj
 0001:0000c320       ?checkValid@shdfnd@physx@@YA_NAEBVPxMat33@2@@Z 000000018000d320 f   PsUtilities.obj
 0001:0000c410       ?checkValid@shdfnd@physx@@YA_NAEBVPxTransform@2@@Z 000000018000d410 f   PsUtilities.obj
 0001:0000c480       ?checkValid@shdfnd@physx@@YA_NPEBD@Z 000000018000d480 f   PsUtilities.obj
 0001:0000c4a0       ?PxCreateCollection@@YAPEAVPxCollection@physx@@XZ 000000018000d4a0 f   CmCollection.obj
 0001:0000c520       ?add@Collection@Cm@physx@@UEAAXAEAVPxBase@3@_K@Z 000000018000d520 f   CmCollection.obj
 0001:0000c620       ?remove@Collection@Cm@physx@@UEAAXAEAVPxBase@3@@Z 000000018000d620 f   CmCollection.obj
 0001:0000c720       ?contains@Collection@Cm@physx@@UEBA_NAEAVPxBase@3@@Z 000000018000d720 f   CmCollection.obj
 0001:0000c7e0       ?addId@Collection@Cm@physx@@UEAAXAEAVPxBase@3@_K@Z 000000018000d7e0 f   CmCollection.obj
 0001:0000c920       ?removeId@Collection@Cm@physx@@UEAAX_K@Z 000000018000d920 f   CmCollection.obj
 0001:0000c9a0       ?find@Collection@Cm@physx@@UEBAPEAVPxBase@3@_K@Z 000000018000d9a0 f   CmCollection.obj
 0001:0000c9d0       ?add@Collection@Cm@physx@@UEAAXAEAVPxCollection@3@@Z 000000018000d9d0 f   CmCollection.obj
 0001:0000cb80       ?remove@Collection@Cm@physx@@UEAAXAEAVPxCollection@3@@Z 000000018000db80 f   CmCollection.obj
 0001:0000cc10       ?getNbObjects@Collection@Cm@physx@@UEBAIXZ 000000018000dc10 f   CmCollection.obj
 0001:0000cc20       ?getObject@Collection@Cm@physx@@UEBAAEAVPxBase@3@I@Z 000000018000dc20 f   CmCollection.obj
 0001:0000cc40       ?getObjects@Collection@Cm@physx@@UEBAIPEAPEAVPxBase@3@II@Z 000000018000dc40 f   CmCollection.obj
 0001:0000cca0       ?getNbIds@Collection@Cm@physx@@UEBAIXZ 000000018000dca0 f   CmCollection.obj
 0001:0000ccb0       ?getId@Collection@Cm@physx@@UEBA_KAEBVPxBase@3@@Z 000000018000dcb0 f   CmCollection.obj
 0001:0000cd70       ?getIds@Collection@Cm@physx@@UEBAIPEA_KII@Z 000000018000dd70 f   CmCollection.obj
 0001:0000ce30       ??0Collection@Cm@physx@@QEAA@XZ 000000018000de30 f i CmCollection.obj
 0001:0000cec0       ??1PxCollection@physx@@MEAA@XZ 000000018000dec0 f i CmCollection.obj
 0001:0000ced0       ??_GCollection@Cm@physx@@UEAAPEAXI@Z 000000018000ded0 f i CmCollection.obj
 0001:0000ced0       ??_ECollection@Cm@physx@@UEAAPEAXI@Z 000000018000ded0 f i CmCollection.obj
 0001:0000cf50       ??_EPxCollection@physx@@MEAAPEAXI@Z 000000018000df50 f i CmCollection.obj
 0001:0000cf50       ??_GPxCollection@physx@@MEAAPEAXI@Z 000000018000df50 f i CmCollection.obj
 0001:0000cf80       ?create@?$HashBase@V?$Pair@$$CB_KPEAVPxBase@physx@@@shdfnd@physx@@_KU?$Hash@_K@23@UGetKey@?$HashMapBase@_KPEAVPxBase@physx@@U?$Hash@_K@shdfnd@2@VAllocator@42@@internal@23@VAllocator@23@$00@internal@shdfnd@physx@@QEAAPEAV?$Pair@$$CB_KPEAVPxBase@physx@@@34@AEB_KAEA_N@Z 000000018000df80 f i CmCollection.obj
 0001:0000d110       ?create@?$HashBase@V?$Pair@QEAVPxBase@physx@@_K@shdfnd@physx@@PEAVPxBase@3@U?$Hash@PEAVPxBase@physx@@@23@UGetKey@?$HashMapBase@PEAVPxBase@physx@@_KU?$Hash@PEAVPxBase@physx@@@shdfnd@2@VAllocator@42@@internal@23@VAllocator@23@$00@internal@shdfnd@physx@@QEAAPEAV?$Pair@QEAVPxBase@physx@@_K@34@AEBQEAVPxBase@4@AEA_N@Z 000000018000e110 f i CmCollection.obj
 0001:0000d2a0       ?erase@?$HashBase@V?$Pair@$$CB_KPEAVPxBase@physx@@@shdfnd@physx@@_KU?$Hash@_K@23@UGetKey@?$HashMapBase@_KPEAVPxBase@physx@@U?$Hash@_K@shdfnd@2@VAllocator@42@@internal@23@VAllocator@23@$00@internal@shdfnd@physx@@QEAA_NAEB_K@Z 000000018000e2a0 f i CmCollection.obj
 0001:0000d390       ?erase@?$HashBase@V?$Pair@QEAVPxBase@physx@@_K@shdfnd@physx@@PEAVPxBase@3@U?$Hash@PEAVPxBase@physx@@@23@UGetKey@?$HashMapBase@PEAVPxBase@physx@@_KU?$Hash@PEAVPxBase@physx@@@shdfnd@2@VAllocator@42@@internal@23@VAllocator@23@$00@internal@shdfnd@physx@@QEAA_NAEBQEAVPxBase@4@@Z 000000018000e390 f i CmCollection.obj
 0001:0000d480       ?find@?$HashBase@V?$Pair@$$CB_KPEAVPxBase@physx@@@shdfnd@physx@@_KU?$Hash@_K@23@UGetKey@?$HashMapBase@_KPEAVPxBase@physx@@U?$Hash@_K@shdfnd@2@VAllocator@42@@internal@23@VAllocator@23@$00@internal@shdfnd@physx@@QEBAPEBV?$Pair@$$CB_KPEAVPxBase@physx@@@34@AEB_K@Z 000000018000e480 f i CmCollection.obj
 0001:0000d530       ?find@?$HashBase@V?$Pair@QEAVPxBase@physx@@_K@shdfnd@physx@@PEAVPxBase@3@U?$Hash@PEAVPxBase@physx@@@23@UGetKey@?$HashMapBase@PEAVPxBase@physx@@_KU?$Hash@PEAVPxBase@physx@@@shdfnd@2@VAllocator@42@@internal@23@VAllocator@23@$00@internal@shdfnd@physx@@QEBAPEBV?$Pair@QEAVPxBase@physx@@_K@34@AEBQEAVPxBase@4@@Z 000000018000e530 f i CmCollection.obj
 0001:0000d5e0       ?release@Collection@Cm@physx@@UEAAXXZ 000000018000e5e0 f i CmCollection.obj
 0001:0000d600       ?replaceWithLast@?$HashBase@V?$Pair@$$CB_KPEAVPxBase@physx@@@shdfnd@physx@@_KU?$Hash@_K@23@UGetKey@?$HashMapBase@_KPEAVPxBase@physx@@U?$Hash@_K@shdfnd@2@VAllocator@42@@internal@23@VAllocator@23@$00@internal@shdfnd@physx@@AEAAXI@Z 000000018000e600 f i CmCollection.obj
 0001:0000d700       ?replaceWithLast@?$HashBase@V?$Pair@QEAVPxBase@physx@@_K@shdfnd@physx@@PEAVPxBase@3@U?$Hash@PEAVPxBase@physx@@@23@UGetKey@?$HashMapBase@PEAVPxBase@physx@@_KU?$Hash@PEAVPxBase@physx@@@shdfnd@2@VAllocator@42@@internal@23@VAllocator@23@$00@internal@shdfnd@physx@@AEAAXI@Z 000000018000e700 f i CmCollection.obj
 0001:0000d800       ?reserveInternal@?$HashBase@V?$Pair@$$CB_KPEAVPxBase@physx@@@shdfnd@physx@@_KU?$Hash@_K@23@UGetKey@?$HashMapBase@_KPEAVPxBase@physx@@U?$Hash@_K@shdfnd@2@VAllocator@42@@internal@23@VAllocator@23@$00@internal@shdfnd@physx@@AEAAXI@Z 000000018000e800 f i CmCollection.obj
 0001:0000d9c0       ?reserveInternal@?$HashBase@V?$Pair@QEAVPxBase@physx@@_K@shdfnd@physx@@PEAVPxBase@3@U?$Hash@PEAVPxBase@physx@@@23@UGetKey@?$HashMapBase@PEAVPxBase@physx@@_KU?$Hash@PEAVPxBase@physx@@@shdfnd@2@VAllocator@42@@internal@23@VAllocator@23@$00@internal@shdfnd@physx@@AEAAXI@Z 000000018000e9c0 f i CmCollection.obj
 0001:0000db80       ?getProfileNames@CmEventNameProvider@Cm@physx@@UEBA?AUPxProfileNames@3@XZ 000000018000eb80 f   CmEventProfiler.obj
 0001:0000dba0       ?enableNVTXSupport@Cm@physx@@YAX_N@Z 000000018000eba0 f   CmEventProfiler.obj
 0001:0000dbb0       ?isNVTXSupportEnabled@Cm@physx@@YA_NXZ 000000018000ebb0 f   CmEventProfiler.obj
 0001:0000dbc0       ?GetMBPPostUpdate@BroadPhase@ProfileEventId@Cm@physx@@SAAEBUPxProfileEventId@4@XZ 000000018000ebc0 f i CmEventProfiler.obj
 0001:0000dbd0       ?GetMBPPostUpdateSPU@BroadPhase@ProfileEventId@Cm@physx@@SAAEBUPxProfileEventId@4@XZ 000000018000ebd0 f i CmEventProfiler.obj
 0001:0000dbe0       ?GetMBPUpdate@BroadPhase@ProfileEventId@Cm@physx@@SAAEBUPxProfileEventId@4@XZ 000000018000ebe0 f i CmEventProfiler.obj
 0001:0000dbf0       ?GetMBPUpdateSPU@BroadPhase@ProfileEventId@Cm@physx@@SAAEBUPxProfileEventId@4@XZ 000000018000ebf0 f i CmEventProfiler.obj
 0001:0000dc00       ?GetSapPostUpdate@BroadPhase@ProfileEventId@Cm@physx@@SAAEBUPxProfileEventId@4@XZ 000000018000ec00 f i CmEventProfiler.obj
 0001:0000dc10       ?GetSapPostUpdateSPU@BroadPhase@ProfileEventId@Cm@physx@@SAAEBUPxProfileEventId@4@XZ 000000018000ec10 f i CmEventProfiler.obj
 0001:0000dc20       ?GetSapUpdate@BroadPhase@ProfileEventId@Cm@physx@@SAAEBUPxProfileEventId@4@XZ 000000018000ec20 f i CmEventProfiler.obj
 0001:0000dc30       ?GetSapUpdateSPU@BroadPhase@ProfileEventId@Cm@physx@@SAAEBUPxProfileEventId@4@XZ 000000018000ec30 f i CmEventProfiler.obj
 0001:0000dc40       ?GetaddActor@API@ProfileEventId@Cm@physx@@SAAEBUPxProfileEventId@4@XZ 000000018000ec40 f i CmEventProfiler.obj
 0001:0000dc50       ?GetaddActorToSim@API@ProfileEventId@Cm@physx@@SAAEBUPxProfileEventId@4@XZ 000000018000ec50 f i CmEventProfiler.obj
 0001:0000dc60       ?GetaddActors@API@ProfileEventId@Cm@physx@@SAAEBUPxProfileEventId@4@XZ 000000018000ec60 f i CmEventProfiler.obj
 0001:0000dc70       ?GetaddAggregate@API@ProfileEventId@Cm@physx@@SAAEBUPxProfileEventId@4@XZ 000000018000ec70 f i CmEventProfiler.obj
 0001:0000dc80       ?GetaddArticulation@API@ProfileEventId@Cm@physx@@SAAEBUPxProfileEventId@4@XZ 000000018000ec80 f i CmEventProfiler.obj
 0001:0000dc90       ?GetaddCloth@API@ProfileEventId@Cm@physx@@SAAEBUPxProfileEventId@4@XZ 000000018000ec90 f i CmEventProfiler.obj
 0001:0000dca0       ?GetaddCollection@API@ProfileEventId@Cm@physx@@SAAEBUPxProfileEventId@4@XZ 000000018000eca0 f i CmEventProfiler.obj
 0001:0000dcb0       ?GetaddParticleFluid@API@ProfileEventId@Cm@physx@@SAAEBUPxProfileEventId@4@XZ 000000018000ecb0 f i CmEventProfiler.obj
 0001:0000dcc0       ?GetaddParticleSystem@API@ProfileEventId@Cm@physx@@SAAEBUPxProfileEventId@4@XZ 000000018000ecc0 f i CmEventProfiler.obj
 0001:0000dcd0       ?GetaddShapesToSQ@API@ProfileEventId@Cm@physx@@SAAEBUPxProfileEventId@4@XZ 000000018000ecd0 f i CmEventProfiler.obj
 0001:0000dce0       ?GetaddShapesToSim@API@ProfileEventId@Cm@physx@@SAAEBUPxProfileEventId@4@XZ 000000018000ece0 f i CmEventProfiler.obj
 0001:0000dcf0       ?GetapplyExternalImpulses@Articulations@ProfileEventId@Cm@physx@@SAAEBUPxProfileEventId@4@XZ 000000018000ecf0 f i CmEventProfiler.obj
 0001:0000dd00       ?GetapplyJointDrives@Articulations@ProfileEventId@Cm@physx@@SAAEBUPxProfileEventId@4@XZ 000000018000ed00 f i CmEventProfiler.obj
 0001:0000dd10       ?GetbroadPhase@Basic@ProfileEventId@Cm@physx@@SAAEBUPxProfileEventId@4@XZ 000000018000ed10 f i CmEventProfiler.obj
 0001:0000dd20       ?GetbrokenEdgeIslands@IslandGen@ProfileEventId@Cm@physx@@SAAEBUPxProfileEventId@4@XZ 000000018000ed20 f i CmEventProfiler.obj
 0001:0000dd30       ?GetbuildActiveTransforms@Sim@ProfileEventId@Cm@physx@@SAAEBUPxProfileEventId@4@XZ 000000018000ed30 f i CmEventProfiler.obj
 0001:0000dd40       ?GetccdBroadPhase@Sim@ProfileEventId@Cm@physx@@SAAEBUPxProfileEventId@4@XZ 000000018000ed40 f i CmEventProfiler.obj
 0001:0000dd50       ?GetccdBroadPhaseComplete@Sim@ProfileEventId@Cm@physx@@SAAEBUPxProfileEventId@4@XZ 000000018000ed50 f i CmEventProfiler.obj
 0001:0000dd60       ?GetccdIsland@Sim@ProfileEventId@Cm@physx@@SAAEBUPxProfileEventId@4@XZ 000000018000ed60 f i CmEventProfiler.obj
 0001:0000dd70       ?GetccdPair@Sim@ProfileEventId@Cm@physx@@SAAEBUPxProfileEventId@4@XZ 000000018000ed70 f i CmEventProfiler.obj
 0001:0000dd80       ?GetccdSweep@Sim@ProfileEventId@Cm@physx@@SAAEBUPxProfileEventId@4@XZ 000000018000ed80 f i CmEventProfiler.obj
 0001:0000dd90       ?GetccdSweepMerge@Sim@ProfileEventId@Cm@physx@@SAAEBUPxProfileEventId@4@XZ 000000018000ed90 f i CmEventProfiler.obj
 0001:0000dda0       ?GetcheckCollision@Basic@ProfileEventId@Cm@physx@@SAAEBUPxProfileEventId@4@XZ 000000018000eda0 f i CmEventProfiler.obj
 0001:0000ddb0       ?GetcheckConstraintBreakage@Sim@ProfileEventId@Cm@physx@@SAAEBUPxProfileEventId@4@XZ 000000018000edb0 f i CmEventProfiler.obj
 0001:0000ddc0       ?GetcheckResults@Basic@ProfileEventId@Cm@physx@@SAAEBUPxProfileEventId@4@XZ 000000018000edc0 f i CmEventProfiler.obj
 0001:0000ddd0       ?GetcleanupEdgeEvents@IslandGen@ProfileEventId@Cm@physx@@SAAEBUPxProfileEventId@4@XZ 000000018000edd0 f i CmEventProfiler.obj
 0001:0000dde0       ?GetcollideQueueTasks@Sim@ProfileEventId@Cm@physx@@SAAEBUPxProfileEventId@4@XZ 000000018000ede0 f i CmEventProfiler.obj
 0001:0000ddf0       ?Getcollision@Basic@ProfileEventId@Cm@physx@@SAAEBUPxProfileEventId@4@XZ 000000018000edf0 f i CmEventProfiler.obj
 0001:0000de00       ?GetcomputeAABBUpdateLists@BroadPhase@ProfileEventId@Cm@physx@@SAAEBUPxProfileEventId@4@XZ 000000018000ee00 f i CmEventProfiler.obj
 0001:0000de10       ?GetcomputeAggAggShapePairs@BroadPhase@ProfileEventId@Cm@physx@@SAAEBUPxProfileEventId@4@XZ 000000018000ee10 f i CmEventProfiler.obj
 0001:0000de20       ?GetcomputeJointDrives@Articulations@ProfileEventId@Cm@physx@@SAAEBUPxProfileEventId@4@XZ 000000018000ee20 f i CmEventProfiler.obj
 0001:0000de30       ?GetcorrelatePatches@Dynamics@ProfileEventId@Cm@physx@@SAAEBUPxProfileEventId@4@XZ 000000018000ee30 f i CmEventProfiler.obj
 0001:0000de40       ?GetcreateBatchQuery@API@ProfileEventId@Cm@physx@@SAAEBUPxProfileEventId@4@XZ 000000018000ee40 f i CmEventProfiler.obj
 0001:0000de50       ?GetcreateContactPatches@Dynamics@ProfileEventId@Cm@physx@@SAAEBUPxProfileEventId@4@XZ 000000018000ee50 f i CmEventProfiler.obj
 0001:0000de60       ?GetcreateFinalize@Dynamics@ProfileEventId@Cm@physx@@SAAEBUPxProfileEventId@4@XZ 000000018000ee60 f i CmEventProfiler.obj
 0001:0000de70       ?GetcreatePVDInstance@PVD@ProfileEventId@Cm@physx@@SAAEBUPxProfileEventId@4@XZ 000000018000ee70 f i CmEventProfiler.obj
 0001:0000de80       ?GetcreatedNodes@IslandGen@ProfileEventId@Cm@physx@@SAAEBUPxProfileEventId@4@XZ 000000018000ee80 f i CmEventProfiler.obj
 0001:0000de90       ?GetdeletedNodesEdges@IslandGen@ProfileEventId@Cm@physx@@SAAEBUPxProfileEventId@4@XZ 000000018000ee90 f i CmEventProfiler.obj
 0001:0000dea0       ?GetduplicateKinematicNodes@IslandGen@ProfileEventId@Cm@physx@@SAAEBUPxProfileEventId@4@XZ 000000018000eea0 f i CmEventProfiler.obj
 0001:0000deb0       ?Getdynamics@Basic@ProfileEventId@Cm@physx@@SAAEBUPxProfileEventId@4@XZ 000000018000eeb0 f i CmEventProfiler.obj
 0001:0000dec0       ?GetemptyIslands@IslandGen@ProfileEventId@Cm@physx@@SAAEBUPxProfileEventId@4@XZ 000000018000eec0 f i CmEventProfiler.obj
 0001:0000ded0       ?GetendStep@ParticleSim@ProfileEventId@Cm@physx@@SAAEBUPxProfileEventId@4@XZ 000000018000eed0 f i CmEventProfiler.obj
 0001:0000dee0       ?Getexecute@BatchedSceneQuery@ProfileEventId@Cm@physx@@SAAEBUPxProfileEventId@4@XZ 000000018000eee0 f i CmEventProfiler.obj
 0001:0000def0       ?GetfetchResults@Basic@ProfileEventId@Cm@physx@@SAAEBUPxProfileEventId@4@XZ 000000018000eef0 f i CmEventProfiler.obj
 0001:0000df00       ?GetfetchResults@Sim@ProfileEventId@Cm@physx@@SAAEBUPxProfileEventId@4@XZ 000000018000ef00 f i CmEventProfiler.obj
 0001:0000df10       ?GetfindAndReplaceWithLast@API@ProfileEventId@Cm@physx@@SAAEBUPxProfileEventId@4@XZ 000000018000ef10 f i CmEventProfiler.obj
 0001:0000df20       ?Getfinish@BroadPhase@ProfileEventId@Cm@physx@@SAAEBUPxProfileEventId@4@XZ 000000018000ef20 f i CmEventProfiler.obj
 0001:0000df30       ?GetfinishModifiablePairs@Sim@ProfileEventId@Cm@physx@@SAAEBUPxProfileEventId@4@XZ 000000018000ef30 f i CmEventProfiler.obj
 0001:0000df40       ?GetfireCallBacksPostSync@Sim@ProfileEventId@Cm@physx@@SAAEBUPxProfileEventId@4@XZ 000000018000ef40 f i CmEventProfiler.obj
 0001:0000df50       ?GetfireCallBacksPreSync@Sim@ProfileEventId@Cm@physx@@SAAEBUPxProfileEventId@4@XZ 000000018000ef50 f i CmEventProfiler.obj
 0001:0000df60       ?GetfireCustomFilteringCallbacks@Sim@ProfileEventId@Cm@physx@@SAAEBUPxProfileEventId@4@XZ 000000018000ef60 f i CmEventProfiler.obj
 0001:0000df70       ?GetflushQueryUpdates@API@ProfileEventId@Cm@physx@@SAAEBUPxProfileEventId@4@XZ 000000018000ef70 f i CmEventProfiler.obj
 0001:0000df80       ?GetflushSimulation@API@ProfileEventId@Cm@physx@@SAAEBUPxProfileEventId@4@XZ 000000018000ef80 f i CmEventProfiler.obj
 0001:0000df90       ?GetflushUpdates@SceneQuery@ProfileEventId@Cm@physx@@SAAEBUPxProfileEventId@4@XZ 000000018000ef90 f i CmEventProfiler.obj
 0001:0000dfa0       ?GetforceDynamicTreeRebuild@API@ProfileEventId@Cm@physx@@SAAEBUPxProfileEventId@4@XZ 000000018000efa0 f i CmEventProfiler.obj
 0001:0000dfb0       ?GetfreeBuffers@IslandGen@ProfileEventId@Cm@physx@@SAAEBUPxProfileEventId@4@XZ 000000018000efb0 f i CmEventProfiler.obj
 0001:0000dfc0       ?GetgetFrictionPatch@Dynamics@ProfileEventId@Cm@physx@@SAAEBUPxProfileEventId@4@XZ 000000018000efc0 f i CmEventProfiler.obj
 0001:0000dfd0       ?GetgetSimEvents@Sim@ProfileEventId@Cm@physx@@SAAEBUPxProfileEventId@4@XZ 000000018000efd0 f i CmEventProfiler.obj
 0001:0000dfe0       ?GetgrowPatches@Dynamics@ProfileEventId@Cm@physx@@SAAEBUPxProfileEventId@4@XZ 000000018000efe0 f i CmEventProfiler.obj
 0001:0000dff0       ?Getintegrate@Articulations@ProfileEventId@Cm@physx@@SAAEBUPxProfileEventId@4@XZ 000000018000eff0 f i CmEventProfiler.obj
 0001:0000e000       ?GetislandGen@Basic@ProfileEventId@Cm@physx@@SAAEBUPxProfileEventId@4@XZ 000000018000f000 f i CmEventProfiler.obj
 0001:0000e010       ?GetjoinedEdges@IslandGen@ProfileEventId@Cm@physx@@SAAEBUPxProfileEventId@4@XZ 000000018000f010 f i CmEventProfiler.obj
 0001:0000e020       ?GetjointLoads@Articulations@ProfileEventId@Cm@physx@@SAAEBUPxProfileEventId@4@XZ 000000018000f020 f i CmEventProfiler.obj
 0001:0000e030       ?GetnarrowPhase@Basic@ProfileEventId@Cm@physx@@SAAEBUPxProfileEventId@4@XZ 000000018000f030 f i CmEventProfiler.obj
 0001:0000e040       ?GetnarrowPhase@Sim@ProfileEventId@Cm@physx@@SAAEBUPxProfileEventId@4@XZ 000000018000f040 f i CmEventProfiler.obj
 0001:0000e050       ?GetnarrowPhaseMerge@Sim@ProfileEventId@Cm@physx@@SAAEBUPxProfileEventId@4@XZ 000000018000f050 f i CmEventProfiler.obj
 0001:0000e060       ?GetoriginShift@PVD@ProfileEventId@Cm@physx@@SAAEBUPxProfileEventId@4@XZ 000000018000f060 f i CmEventProfiler.obj
 0001:0000e070       ?GetoverlapMultiple@BatchedSceneQuery@ProfileEventId@Cm@physx@@SAAEBUPxProfileEventId@4@XZ 000000018000f070 f i CmEventProfiler.obj
 0001:0000e080       ?GetoverlapMultiple@SceneQuery@ProfileEventId@Cm@physx@@SAAEBUPxProfileEventId@4@XZ 000000018000f080 f i CmEventProfiler.obj
 0001:0000e090       ?GetparallelSolve@Dynamics@ProfileEventId@Cm@physx@@SAAEBUPxProfileEventId@4@XZ 000000018000f090 f i CmEventProfiler.obj
 0001:0000e0a0       ?GetpostIslandGenSecondPass@Sim@ProfileEventId@Cm@physx@@SAAEBUPxProfileEventId@4@XZ 000000018000f0a0 f i CmEventProfiler.obj
 0001:0000e0b0       ?GetpreIslandGen@Sim@ProfileEventId@Cm@physx@@SAAEBUPxProfileEventId@4@XZ 000000018000f0b0 f i CmEventProfiler.obj
 0001:0000e0c0       ?GetpreIslandGenSecondPass@Sim@ProfileEventId@Cm@physx@@SAAEBUPxProfileEventId@4@XZ 000000018000f0c0 f i CmEventProfiler.obj
 0001:0000e0d0       ?GetprepareDataBlock@Articulations@ProfileEventId@Cm@physx@@SAAEBUPxProfileEventId@4@XZ 000000018000f0d0 f i CmEventProfiler.obj
 0001:0000e0e0       ?GetprepareFsData@Articulations@ProfileEventId@Cm@physx@@SAAEBUPxProfileEventId@4@XZ 000000018000f0e0 f i CmEventProfiler.obj
 0001:0000e0f0       ?GetprocessBPResults@BroadPhase@ProfileEventId@Cm@physx@@SAAEBUPxProfileEventId@4@XZ 000000018000f0f0 f i CmEventProfiler.obj
 0001:0000e100       ?GetprocessLostOverlaps@Sim@ProfileEventId@Cm@physx@@SAAEBUPxProfileEventId@4@XZ 000000018000f100 f i CmEventProfiler.obj
 0001:0000e110       ?GetprocessNewOverlaps@Sim@ProfileEventId@Cm@physx@@SAAEBUPxProfileEventId@4@XZ 000000018000f110 f i CmEventProfiler.obj
 0001:0000e120       ?GetprocessSleepingIslands@IslandGen@ProfileEventId@Cm@physx@@SAAEBUPxProfileEventId@4@XZ 000000018000f120 f i CmEventProfiler.obj
 0001:0000e130       ?GetprocessTriggers@Sim@ProfileEventId@Cm@physx@@SAAEBUPxProfileEventId@4@XZ 000000018000f130 f i CmEventProfiler.obj
 0001:0000e140       ?GetprojectConstraints@Sim@ProfileEventId@Cm@physx@@SAAEBUPxProfileEventId@4@XZ 000000018000f140 f i CmEventProfiler.obj
 0001:0000e150       ?GetprojectContacts@Sim@ProfileEventId@Cm@physx@@SAAEBUPxProfileEventId@4@XZ 000000018000f150 f i CmEventProfiler.obj
 0001:0000e160       ?GetprojectionTreeUpdates@Sim@ProfileEventId@Cm@physx@@SAAEBUPxProfileEventId@4@XZ 000000018000f160 f i CmEventProfiler.obj
 0001:0000e170       ?GetpropagateDrivenInertia@Articulations@ProfileEventId@Cm@physx@@SAAEBUPxProfileEventId@4@XZ 000000018000f170 f i CmEventProfiler.obj
 0001:0000e180       ?GetpvdFrameStart@Basic@ProfileEventId@Cm@physx@@SAAEBUPxProfileEventId@4@XZ 000000018000f180 f i CmEventProfiler.obj
 0001:0000e190       ?GetqueueNarrowPhase@Sim@ProfileEventId@Cm@physx@@SAAEBUPxProfileEventId@4@XZ 000000018000f190 f i CmEventProfiler.obj
 0001:0000e1a0       ?GetraycastAny@BatchedSceneQuery@ProfileEventId@Cm@physx@@SAAEBUPxProfileEventId@4@XZ 000000018000f1a0 f i CmEventProfiler.obj
 0001:0000e1b0       ?GetraycastAny@SceneQuery@ProfileEventId@Cm@physx@@SAAEBUPxProfileEventId@4@XZ 000000018000f1b0 f i CmEventProfiler.obj
 0001:0000e1c0       ?GetraycastMultiple@BatchedSceneQuery@ProfileEventId@Cm@physx@@SAAEBUPxProfileEventId@4@XZ 000000018000f1c0 f i CmEventProfiler.obj
 0001:0000e1d0       ?GetraycastMultiple@SceneQuery@ProfileEventId@Cm@physx@@SAAEBUPxProfileEventId@4@XZ 000000018000f1d0 f i CmEventProfiler.obj
 0001:0000e1e0       ?GetraycastSingle@BatchedSceneQuery@ProfileEventId@Cm@physx@@SAAEBUPxProfileEventId@4@XZ 000000018000f1e0 f i CmEventProfiler.obj
 0001:0000e1f0       ?GetraycastSingle@SceneQuery@ProfileEventId@Cm@physx@@SAAEBUPxProfileEventId@4@XZ 000000018000f1f0 f i CmEventProfiler.obj
 0001:0000e200       ?GetreleaseBatchQuery@API@ProfileEventId@Cm@physx@@SAAEBUPxProfileEventId@4@XZ 000000018000f200 f i CmEventProfiler.obj
 0001:0000e210       ?GetreleasePVDInstance@PVD@ProfileEventId@Cm@physx@@SAAEBUPxProfileEventId@4@XZ 000000018000f210 f i CmEventProfiler.obj
 0001:0000e220       ?GetremoveActor@API@ProfileEventId@Cm@physx@@SAAEBUPxProfileEventId@4@XZ 000000018000f220 f i CmEventProfiler.obj
 0001:0000e230       ?GetremoveActorFromSim@API@ProfileEventId@Cm@physx@@SAAEBUPxProfileEventId@4@XZ 000000018000f230 f i CmEventProfiler.obj
 0001:0000e240       ?GetremoveActors@API@ProfileEventId@Cm@physx@@SAAEBUPxProfileEventId@4@XZ 000000018000f240 f i CmEventProfiler.obj
 0001:0000e250       ?GetremoveAggregate@API@ProfileEventId@Cm@physx@@SAAEBUPxProfileEventId@4@XZ 000000018000f250 f i CmEventProfiler.obj
 0001:0000e260       ?GetremoveArticulation@API@ProfileEventId@Cm@physx@@SAAEBUPxProfileEventId@4@XZ 000000018000f260 f i CmEventProfiler.obj
 0001:0000e270       ?GetremoveCloth@API@ProfileEventId@Cm@physx@@SAAEBUPxProfileEventId@4@XZ 000000018000f270 f i CmEventProfiler.obj
 0001:0000e280       ?GetremoveParticleFluid@API@ProfileEventId@Cm@physx@@SAAEBUPxProfileEventId@4@XZ 000000018000f280 f i CmEventProfiler.obj
 0001:0000e290       ?GetremoveParticleSystem@API@ProfileEventId@Cm@physx@@SAAEBUPxProfileEventId@4@XZ 000000018000f290 f i CmEventProfiler.obj
 0001:0000e2a0       ?GetremoveShapesFromSQ@API@ProfileEventId@Cm@physx@@SAAEBUPxProfileEventId@4@XZ 000000018000f2a0 f i CmEventProfiler.obj
 0001:0000e2b0       ?GetremoveShapesFromSim@API@ProfileEventId@Cm@physx@@SAAEBUPxProfileEventId@4@XZ 000000018000f2b0 f i CmEventProfiler.obj
 0001:0000e2c0       ?GetresetDependencies@Sim@ProfileEventId@Cm@physx@@SAAEBUPxProfileEventId@4@XZ 000000018000f2c0 f i CmEventProfiler.obj
 0001:0000e2d0       ?GetresizeArrays@IslandGen@ProfileEventId@Cm@physx@@SAAEBUPxProfileEventId@4@XZ 000000018000f2d0 f i CmEventProfiler.obj
 0001:0000e2e0       ?GetresizeForKinematics@IslandGen@ProfileEventId@Cm@physx@@SAAEBUPxProfileEventId@4@XZ 000000018000f2e0 f i CmEventProfiler.obj
 0001:0000e2f0       ?GetrigidBodySolver@Basic@ProfileEventId@Cm@physx@@SAAEBUPxProfileEventId@4@XZ 000000018000f2f0 f i CmEventProfiler.obj
 0001:0000e300       ?GetsceneFinalization@Sim@ProfileEventId@Cm@physx@@SAAEBUPxProfileEventId@4@XZ 000000018000f300 f i CmEventProfiler.obj
 0001:0000e310       ?GetsceneUpdate@PVD@ProfileEventId@Cm@physx@@SAAEBUPxProfileEventId@4@XZ 000000018000f310 f i CmEventProfiler.obj
 0001:0000e320       ?GetsendPVDArrays@PVD@ProfileEventId@Cm@physx@@SAAEBUPxProfileEventId@4@XZ 000000018000f320 f i CmEventProfiler.obj
 0001:0000e330       ?GetsetupConstraints@Articulations@ProfileEventId@Cm@physx@@SAAEBUPxProfileEventId@4@XZ 000000018000f330 f i CmEventProfiler.obj
 0001:0000e340       ?GetsetupDrives@Articulations@ProfileEventId@Cm@physx@@SAAEBUPxProfileEventId@4@XZ 000000018000f340 f i CmEventProfiler.obj
 0001:0000e350       ?GetsetupFinalize@Dynamics@ProfileEventId@Cm@physx@@SAAEBUPxProfileEventId@4@XZ 000000018000f350 f i CmEventProfiler.obj
 0001:0000e360       ?GetsetupProject@Articulations@ProfileEventId@Cm@physx@@SAAEBUPxProfileEventId@4@XZ 000000018000f360 f i CmEventProfiler.obj
 0001:0000e370       ?GetshapesUpdateProcessing@ParticleSim@ProfileEventId@Cm@physx@@SAAEBUPxProfileEventId@4@XZ 000000018000f370 f i CmEventProfiler.obj
 0001:0000e380       ?GetshiftOrigin@API@ProfileEventId@Cm@physx@@SAAEBUPxProfileEventId@4@XZ 000000018000f380 f i CmEventProfiler.obj
 0001:0000e390       ?GetsimAddShapeToBroadPhase@API@ProfileEventId@Cm@physx@@SAAEBUPxProfileEventId@4@XZ 000000018000f390 f i CmEventProfiler.obj
 0001:0000e3a0       ?Getsimulate@Basic@ProfileEventId@Cm@physx@@SAAEBUPxProfileEventId@4@XZ 000000018000f3a0 f i CmEventProfiler.obj
 0001:0000e3b0       ?GetsolveGroup@Dynamics@ProfileEventId@Cm@physx@@SAAEBUPxProfileEventId@4@XZ 000000018000f3b0 f i CmEventProfiler.obj
 0001:0000e3c0       ?GetsolveQueueTasks@Sim@ProfileEventId@Cm@physx@@SAAEBUPxProfileEventId@4@XZ 000000018000f3c0 f i CmEventProfiler.obj
 0001:0000e3d0       ?Getsolver@Dynamics@ProfileEventId@Cm@physx@@SAAEBUPxProfileEventId@4@XZ 000000018000f3d0 f i CmEventProfiler.obj
 0001:0000e3e0       ?GetsolverMergeResults@Dynamics@ProfileEventId@Cm@physx@@SAAEBUPxProfileEventId@4@XZ 000000018000f3e0 f i CmEventProfiler.obj
 0001:0000e3f0       ?GetsolverQueueTasks@Dynamics@ProfileEventId@Cm@physx@@SAAEBUPxProfileEventId@4@XZ 000000018000f3f0 f i CmEventProfiler.obj
 0001:0000e400       ?GetstartStep@ParticleSim@ProfileEventId@Cm@physx@@SAAEBUPxProfileEventId@4@XZ 000000018000f400 f i CmEventProfiler.obj
 0001:0000e410       ?GetstepSetupCollide@Sim@ProfileEventId@Cm@physx@@SAAEBUPxProfileEventId@4@XZ 000000018000f410 f i CmEventProfiler.obj
 0001:0000e420       ?GetstepSetupSimulate@Sim@ProfileEventId@Cm@physx@@SAAEBUPxProfileEventId@4@XZ 000000018000f420 f i CmEventProfiler.obj
 0001:0000e430       ?GetstepSetupSolve@Sim@ProfileEventId@Cm@physx@@SAAEBUPxProfileEventId@4@XZ 000000018000f430 f i CmEventProfiler.obj
 0001:0000e440       ?GetsweepAny@SceneQuery@ProfileEventId@Cm@physx@@SAAEBUPxProfileEventId@4@XZ 000000018000f440 f i CmEventProfiler.obj
 0001:0000e450       ?GetsweepAnyList@SceneQuery@ProfileEventId@Cm@physx@@SAAEBUPxProfileEventId@4@XZ 000000018000f450 f i CmEventProfiler.obj
 0001:0000e460       ?GetsweepMultiple@BatchedSceneQuery@ProfileEventId@Cm@physx@@SAAEBUPxProfileEventId@4@XZ 000000018000f460 f i CmEventProfiler.obj
 0001:0000e470       ?GetsweepMultiple@SceneQuery@ProfileEventId@Cm@physx@@SAAEBUPxProfileEventId@4@XZ 000000018000f470 f i CmEventProfiler.obj
 0001:0000e480       ?GetsweepMultipleList@SceneQuery@ProfileEventId@Cm@physx@@SAAEBUPxProfileEventId@4@XZ 000000018000f480 f i CmEventProfiler.obj
 0001:0000e490       ?GetsweepSingle@BatchedSceneQuery@ProfileEventId@Cm@physx@@SAAEBUPxProfileEventId@4@XZ 000000018000f490 f i CmEventProfiler.obj
 0001:0000e4a0       ?GetsweepSingle@SceneQuery@ProfileEventId@Cm@physx@@SAAEBUPxProfileEventId@4@XZ 000000018000f4a0 f i CmEventProfiler.obj
 0001:0000e4b0       ?GetsweepSingleList@SceneQuery@ProfileEventId@Cm@physx@@SAAEBUPxProfileEventId@4@XZ 000000018000f4b0 f i CmEventProfiler.obj
 0001:0000e4c0       ?GetsyncBodiesAfterIntegration@Sim@ProfileEventId@Cm@physx@@SAAEBUPxProfileEventId@4@XZ 000000018000f4c0 f i CmEventProfiler.obj
 0001:0000e4d0       ?GetsyncBodiesAfterSolver@Sim@ProfileEventId@Cm@physx@@SAAEBUPxProfileEventId@4@XZ 000000018000f4d0 f i CmEventProfiler.obj
 0001:0000e4e0       ?GetsyncState@Sim@ProfileEventId@Cm@physx@@SAAEBUPxProfileEventId@4@XZ 000000018000f4e0 f i CmEventProfiler.obj
 0001:0000e4f0       ?GettaskFrameworkSetup@Sim@ProfileEventId@Cm@physx@@SAAEBUPxProfileEventId@4@XZ 000000018000f4f0 f i CmEventProfiler.obj
 0001:0000e500       ?GetupdateAggAABBs@BroadPhase@ProfileEventId@Cm@physx@@SAAEBUPxProfileEventId@4@XZ 000000018000f500 f i CmEventProfiler.obj
 0001:0000e510       ?GetupdateAggLocalSpaceBounds@BroadPhase@ProfileEventId@Cm@physx@@SAAEBUPxProfileEventId@4@XZ 000000018000f510 f i CmEventProfiler.obj
 0001:0000e520       ?GetupdateBroadphase@BroadPhase@ProfileEventId@Cm@physx@@SAAEBUPxProfileEventId@4@XZ 000000018000f520 f i CmEventProfiler.obj
 0001:0000e530       ?GetupdateCCDMultiPass@Sim@ProfileEventId@Cm@physx@@SAAEBUPxProfileEventId@4@XZ 000000018000f530 f i CmEventProfiler.obj
 0001:0000e540       ?GetupdateCCDSinglePass@Sim@ProfileEventId@Cm@physx@@SAAEBUPxProfileEventId@4@XZ 000000018000f540 f i CmEventProfiler.obj
 0001:0000e550       ?GetupdateCloths@PVD@ProfileEventId@Cm@physx@@SAAEBUPxProfileEventId@4@XZ 000000018000f550 f i CmEventProfiler.obj
 0001:0000e560       ?GetupdateCollision@ParticleSim@ProfileEventId@Cm@physx@@SAAEBUPxProfileEventId@4@XZ 000000018000f560 f i CmEventProfiler.obj
 0001:0000e570       ?GetupdateContacts@PVD@ProfileEventId@Cm@physx@@SAAEBUPxProfileEventId@4@XZ 000000018000f570 f i CmEventProfiler.obj
 0001:0000e580       ?GetupdateDirtyShaders@Sim@ProfileEventId@Cm@physx@@SAAEBUPxProfileEventId@4@XZ 000000018000f580 f i CmEventProfiler.obj
 0001:0000e590       ?GetupdateDynamicBodies@PVD@ProfileEventId@Cm@physx@@SAAEBUPxProfileEventId@4@XZ 000000018000f590 f i CmEventProfiler.obj
 0001:0000e5a0       ?GetupdateForces@Sim@ProfileEventId@Cm@physx@@SAAEBUPxProfileEventId@4@XZ 000000018000f5a0 f i CmEventProfiler.obj
 0001:0000e5b0       ?GetupdateIslands@Sim@ProfileEventId@Cm@physx@@SAAEBUPxProfileEventId@4@XZ 000000018000f5b0 f i CmEventProfiler.obj
 0001:0000e5c0       ?GetupdateIslandsSecondPass@Sim@ProfileEventId@Cm@physx@@SAAEBUPxProfileEventId@4@XZ 000000018000f5c0 f i CmEventProfiler.obj
 0001:0000e5d0       ?GetupdateJoints@PVD@ProfileEventId@Cm@physx@@SAAEBUPxProfileEventId@4@XZ 000000018000f5d0 f i CmEventProfiler.obj
 0001:0000e5e0       ?GetupdateKinematics@Dynamics@ProfileEventId@Cm@physx@@SAAEBUPxProfileEventId@4@XZ 000000018000f5e0 f i CmEventProfiler.obj
 0001:0000e5f0       ?GetupdateLazyAggShapeAABBs@BroadPhase@ProfileEventId@Cm@physx@@SAAEBUPxProfileEventId@4@XZ 000000018000f5f0 f i CmEventProfiler.obj
 0001:0000e600       ?GetupdatePVDProperties@PVD@ProfileEventId@Cm@physx@@SAAEBUPxProfileEventId@4@XZ 000000018000f600 f i CmEventProfiler.obj
 0001:0000e610       ?GetupdatePariclesAndFluids@PVD@ProfileEventId@Cm@physx@@SAAEBUPxProfileEventId@4@XZ 000000018000f610 f i CmEventProfiler.obj
 0001:0000e620       ?GetupdatePositions@Dynamics@ProfileEventId@Cm@physx@@SAAEBUPxProfileEventId@4@XZ 000000018000f620 f i CmEventProfiler.obj
 0001:0000e630       ?GetupdatePruningTrees@Sim@ProfileEventId@Cm@physx@@SAAEBUPxProfileEventId@4@XZ 000000018000f630 f i CmEventProfiler.obj
 0001:0000e640       ?GetupdateShapeAABBs@BroadPhase@ProfileEventId@Cm@physx@@SAAEBUPxProfileEventId@4@XZ 000000018000f640 f i CmEventProfiler.obj
 0001:0000e650       ?GetupdateSleeping@PVD@ProfileEventId@Cm@physx@@SAAEBUPxProfileEventId@4@XZ 000000018000f650 f i CmEventProfiler.obj
 0001:0000e660       ?GetupdateVelocities@Dynamics@ProfileEventId@Cm@physx@@SAAEBUPxProfileEventId@4@XZ 000000018000f660 f i CmEventProfiler.obj
 0001:0000e670       ?GetvisualizeEndStep@Sim@ProfileEventId@Cm@physx@@SAAEBUPxProfileEventId@4@XZ 000000018000f670 f i CmEventProfiler.obj
 0001:0000e680       ?GetvisualizeStartStep@Sim@ProfileEventId@Cm@physx@@SAAEBUPxProfileEventId@4@XZ 000000018000f680 f i CmEventProfiler.obj
 0001:0000e690       ?dumpFreeListAllocatorState@Cm@physx@@YAXAEAVFreeListAllocator@12@@Z 000000018000f690 f   CmFreeListAllocator.obj
 0001:0000e7d0       ??0FreeListAllocator@Cm@physx@@QEAA@AEAVPxAllocatorCallback@2@@Z 000000018000f7d0 f   CmFreeListAllocator.obj
 0001:0000e8b0       ??1FreeListAllocator@Cm@physx@@UEAA@XZ 000000018000f8b0 f   CmFreeListAllocator.obj
 0001:0000e960       ?getQWSize@FreeListAllocator@Cm@physx@@SAI_K@Z 000000018000f960 f   CmFreeListAllocator.obj
 0001:0000e980       ?allocate@FreeListAllocator@Cm@physx@@UEAAPEAX_KPEBD1H@Z 000000018000f980 f   CmFreeListAllocator.obj
 0001:0000ea40       ?deallocate@FreeListAllocator@Cm@physx@@UEAAXPEAX@Z 000000018000fa40 f   CmFreeListAllocator.obj
 0001:0000eab0       ?findBestFit@FreeListAllocator@Cm@physx@@AEAAPEAVChunk@23@IAEAI@Z 000000018000fab0 f   CmFreeListAllocator.obj
 0001:0000eb30       ?pushOnFreeList@FreeListAllocator@Cm@physx@@AEAAXPEAVChunk@23@I@Z 000000018000fb30 f   CmFreeListAllocator.obj
 0001:0000eba0       ?popFromFreeList@FreeListAllocator@Cm@physx@@AEAAPEAVChunk@23@I@Z 000000018000fba0 f   CmFreeListAllocator.obj
 0001:0000ec40       ?unlinkFromFreeList@FreeListAllocator@Cm@physx@@AEAAXPEAVChunk@23@@Z 000000018000fc40 f   CmFreeListAllocator.obj
 0001:0000ecd0       ?allocChunk@FreeListAllocator@Cm@physx@@AEAAPEAXI@Z 000000018000fcd0 f   CmFreeListAllocator.obj
 0001:0000ee40       ?freeChunk@FreeListAllocator@Cm@physx@@AEAAXPEAVChunk@23@@Z 000000018000fe40 f   CmFreeListAllocator.obj
 0001:0000f030       ?directAlloc@FreeListAllocator@Cm@physx@@AEAAPEAX_K@Z 0000000180010030 f   CmFreeListAllocator.obj
 0001:0000f080       ?directFree@FreeListAllocator@Cm@physx@@AEAAXPEAX@Z 0000000180010080 f   CmFreeListAllocator.obj
 0001:0000f0a0       ?createFreeListAllocator@Cm@physx@@YAPEAVFreeListAllocator@12@AEAVPxAllocatorCallback@2@@Z 00000001800100a0 f   CmFreeListAllocator.obj
 0001:0000f0f0       ?destroyFreeListAllocator@Cm@physx@@YAXAEAVFreeListAllocator@12@@Z 00000001800100f0 f   CmFreeListAllocator.obj
 0001:0000f120       ??$addAddr@VBlock@Cm@physx@@@Cm@physx@@YAPEAVBlock@01@PEAV201@H@Z 0000000180010120 f i CmFreeListAllocator.obj
 0001:0000f130       ??$addAddr@VChunk@Cm@physx@@@Cm@physx@@YAPEAVChunk@01@PEAV201@H@Z 0000000180010130 f i CmFreeListAllocator.obj
 0001:0000f140       ??$addAddr@X@Cm@physx@@YAPEAXPEAXH@Z 0000000180010140 f i CmFreeListAllocator.obj
 0001:0000f150       ??_EFreeListAllocator@Cm@physx@@UEAAPEAXI@Z 0000000180010150 f i CmFreeListAllocator.obj
 0001:0000f150       ??_GFreeListAllocator@Cm@physx@@UEAAPEAXI@Z 0000000180010150 f i CmFreeListAllocator.obj
 0001:0000f190       ?split@Chunk@Cm@physx@@QEAAPEAV123@I@Z 0000000180010190 f i CmFreeListAllocator.obj
 0001:0000f1f0       printf                     00000001800101f0 f i CmFreeListAllocator.obj
 0001:0000f250       ?PxShortestRotation@physx@@YA?AVPxQuat@1@AEBVPxVec3@1@0@Z 0000000180010250 f   CmMathUtils.obj
 0001:0000f400       ?PxTransformFromPlaneEquation@physx@@YA?AVPxTransform@1@AEBVPxPlane@1@@Z 0000000180010400 f   CmMathUtils.obj
 0001:0000f5d0       ?PxTransformFromSegment@physx@@YA?AVPxTransform@1@AEBVPxVec3@1@0PEAM@Z 00000001800105d0 f   CmMathUtils.obj
 0001:0000f740       ?PxDiagonalize@physx@@YA?AVPxVec3@1@AEBVPxMat33@1@AEAVPxQuat@1@@Z 0000000180010740 f   CmMathUtils.obj
 0001:0000ff90       ??0PtrTable@Cm@physx@@QEAA@XZ 0000000180010f90 f   CmPtrTable.obj
 0001:0000ffb0       ??1PtrTable@Cm@physx@@QEAA@XZ 0000000180010fb0 f   CmPtrTable.obj
 0001:0000ffc0       ?add@PtrTable@Cm@physx@@QEAAXPEAXAEAVPtrTableStorageManager@23@@Z 0000000180010fc0 f   CmPtrTable.obj
 0001:000100a0       ?replaceWithLast@PtrTable@Cm@physx@@QEAAXIAEAVPtrTableStorageManager@23@@Z 00000001800110a0 f   CmPtrTable.obj
 0001:000101a0       ?clear@PtrTable@Cm@physx@@QEAAXAEAVPtrTableStorageManager@23@@Z 00000001800111a0 f   CmPtrTable.obj
 0001:00010220       ?find@PtrTable@Cm@physx@@QEBAIPEBX@Z 0000000180011220 f   CmPtrTable.obj
 0001:00010250       ?exportExtraData@PtrTable@Cm@physx@@QEAAXAEAVPxSerializationContext@3@@Z 0000000180011250 f   CmPtrTable.obj
 0001:000102a0       ?importExtraData@PtrTable@Cm@physx@@QEAAXAEAVPxDeserializationContext@3@@Z 00000001800112a0 f   CmPtrTable.obj
 0001:000102d0       ?getBinaryMetaData@PtrTable@Cm@physx@@SAXAEAVPxOutputStream@3@@Z 00000001800112d0 f   CmPtrTable.obj
 0001:00010490       ?realloc@PtrTable@Cm@physx@@AEAAXIIAEAVPtrTableStorageManager@23@@Z 0000000180011490 f   CmPtrTable.obj
 0001:00010520       ??0PtrTable@Cm@physx@@QEAA@AEBW4PxEMPTY@2@@Z 0000000180011520 f i CmPtrTable.obj
 0001:00010540       ??4PtrTable@Cm@physx@@QEAAAEAU012@AEBU012@@Z 0000000180011540 f i CmPtrTable.obj
 0001:00010550       ?getCount@PtrTable@Cm@physx@@QEBAIXZ 0000000180011550 f i CmPtrTable.obj
 0001:00010560       ?getPtrs@PtrTable@Cm@physx@@QEAAPEAPEAXXZ 0000000180011560 f i CmPtrTable.obj
 0001:00010570       ?getPtrs@PtrTable@Cm@physx@@QEBAPEBQEAXXZ 0000000180011570 f i CmPtrTable.obj
 0001:00010580       ??6RenderOutput@Cm@physx@@QEAAAEAV012@W4Primitive@012@@Z 0000000180011580 f   CmRenderOutput.obj
 0001:000105a0       ??6RenderOutput@Cm@physx@@QEAAAEAV012@I@Z 00000001800115a0 f   CmRenderOutput.obj
 0001:000105b0       ??6RenderOutput@Cm@physx@@QEAAAEAV012@AEBVPxMat44@2@@Z 00000001800115b0 f   CmRenderOutput.obj
 0001:00010620       ??6RenderOutput@Cm@physx@@QEAAAEAV012@AEBVPxTransform@2@@Z 0000000180011620 f   CmRenderOutput.obj
 0001:000106b0       ??6RenderOutput@Cm@physx@@QEAAAEAV012@VPxVec3@2@@Z 00000001800116b0 f   CmRenderOutput.obj
 0001:00010b80       ??6RenderOutput@Cm@physx@@QEAAAEAV012@AEBUDebugText@12@@Z 0000000180011b80 f   CmRenderOutput.obj
 0001:00010d50       ?outputCapsule@RenderOutput@Cm@physx@@QEAAAEAV123@MMAEBVMatrix34@23@@Z 0000000180011d50 f   CmRenderOutput.obj
 0001:000119c0       ??0DebugText@Cm@physx@@QEAA@AEBVPxVec3@2@MPEBDZZ 00000001800129c0 f   CmRenderOutput.obj
 0001:00011a50       ??6Cm@physx@@YAAEAVRenderOutput@01@AEAV201@AEBUDebugBox@01@@Z 0000000180012a50 f   CmRenderOutput.obj
 0001:00011f50       ??6Cm@physx@@YAAEAVRenderOutput@01@AEAV201@AEBUDebugArrow@01@@Z 0000000180012f50 f   CmRenderOutput.obj
 0001:00012340       ??6Cm@physx@@YAAEAVRenderOutput@01@AEAV201@AEBUDebugBasis@01@@Z 0000000180013340 f   CmRenderOutput.obj
 0001:00012440       ??6Cm@physx@@YAAEAVRenderOutput@01@AEAV201@AEBUDebugCircle@01@@Z 0000000180013440 f   CmRenderOutput.obj
 0001:00012530       ??6Cm@physx@@YAAEAVRenderOutput@01@AEAV201@AEBUDebugArc@01@@Z 0000000180013530 f   CmRenderOutput.obj
 0001:00012630       ??0DebugText@Cm@physx@@QEAA@$$QEAU012@@Z 0000000180013630 f i CmRenderOutput.obj
 0001:00012710       ??0DebugText@Cm@physx@@QEAA@AEBU012@@Z 0000000180013710 f i CmRenderOutput.obj
 0001:000127f0       ??0PxMat44@physx@@QEAA@AEBVPxTransform@1@@Z 00000001800137f0 f i CmRenderOutput.obj
 0001:00012990       ??0RenderOutput@Cm@physx@@QEAA@AEAVRenderBuffer@12@@Z 0000000180013990 f i CmRenderOutput.obj
 0001:000129e0       ??0RenderOutput@Cm@physx@@QEAA@AEBV012@@Z 00000001800139e0 f i CmRenderOutput.obj
 0001:00012a80       ??4DebugText@Cm@physx@@QEAAAEAU012@$$QEAU012@@Z 0000000180013a80 f i CmRenderOutput.obj
 0001:00012af0       ??4DebugText@Cm@physx@@QEAAAEAU012@AEBU012@@Z 0000000180013af0 f i CmRenderOutput.obj
 0001:00012b60       ?allocate@?$ReflectionAllocator@D@shdfnd@physx@@QEAAPEAX_KPEBDH@Z 0000000180013b60 f i CmRenderOutput.obj
 0001:00012c00       ?allocate@?$ReflectionAllocator@UPxDebugLine@physx@@@shdfnd@physx@@QEAAPEAX_KPEBDH@Z 0000000180013c00 f i CmRenderOutput.obj
 0001:00012ca0       ?allocate@?$ReflectionAllocator@UPxDebugPoint@physx@@@shdfnd@physx@@QEAAPEAX_KPEBDH@Z 0000000180013ca0 f i CmRenderOutput.obj
 0001:00012d40       ?allocate@?$ReflectionAllocator@UPxDebugText@physx@@@shdfnd@physx@@QEAAPEAX_KPEBDH@Z 0000000180013d40 f i CmRenderOutput.obj
 0001:00012de0       ?allocate@?$ReflectionAllocator@UPxDebugTriangle@physx@@@shdfnd@physx@@QEAAPEAX_KPEBDH@Z 0000000180013de0 f i CmRenderOutput.obj
 0001:00012e80       ?copy@?$Array@UPxDebugLine@physx@@V?$ReflectionAllocator@UPxDebugLine@physx@@@shdfnd@2@@shdfnd@physx@@KAXPEAUPxDebugLine@3@0PEBU43@@Z 0000000180013e80 f i CmRenderOutput.obj
 0001:00013020       ?copy@?$Array@UPxDebugPoint@physx@@V?$ReflectionAllocator@UPxDebugPoint@physx@@@shdfnd@2@@shdfnd@physx@@KAXPEAUPxDebugPoint@3@0PEBU43@@Z 0000000180014020 f i CmRenderOutput.obj
 0001:00013150       ?copy@?$Array@UPxDebugText@physx@@V?$ReflectionAllocator@UPxDebugText@physx@@@shdfnd@2@@shdfnd@physx@@KAXPEAUPxDebugText@3@0PEBU43@@Z 0000000180014150 f i CmRenderOutput.obj
 0001:000132c0       ?copy@?$Array@UPxDebugTriangle@physx@@V?$ReflectionAllocator@UPxDebugTriangle@physx@@@shdfnd@2@@shdfnd@physx@@KAXPEAUPxDebugTriangle@3@0PEBU43@@Z 00000001800142c0 f i CmRenderOutput.obj
 0001:00013500       ?growAndPushBack@?$Array@DV?$ReflectionAllocator@D@shdfnd@physx@@@shdfnd@physx@@IEAAAEADAEBD@Z 0000000180014500 f i CmRenderOutput.obj
 0001:000135d0       ?growAndPushBack@?$Array@UPxDebugLine@physx@@V?$ReflectionAllocator@UPxDebugLine@physx@@@shdfnd@2@@shdfnd@physx@@IEAAAEAUPxDebugLine@3@AEBU43@@Z 00000001800145d0 f i CmRenderOutput.obj
 0001:000136d0       ?growAndPushBack@?$Array@UPxDebugPoint@physx@@V?$ReflectionAllocator@UPxDebugPoint@physx@@@shdfnd@2@@shdfnd@physx@@IEAAAEAUPxDebugPoint@3@AEBU43@@Z 00000001800146d0 f i CmRenderOutput.obj
 0001:000137c0       ?growAndPushBack@?$Array@UPxDebugText@physx@@V?$ReflectionAllocator@UPxDebugText@physx@@@shdfnd@2@@shdfnd@physx@@IEAAAEAUPxDebugText@3@AEBU43@@Z 00000001800147c0 f i CmRenderOutput.obj
 0001:000138c0       ?growAndPushBack@?$Array@UPxDebugTriangle@physx@@V?$ReflectionAllocator@UPxDebugTriangle@physx@@@shdfnd@2@@shdfnd@physx@@IEAAAEAUPxDebugTriangle@3@AEBU43@@Z 00000001800148c0 f i CmRenderOutput.obj
 0001:000139f0       ?outputSegment@RenderOutput@Cm@physx@@QEAAXAEBVPxVec3@3@0@Z 00000001800149f0 f i CmRenderOutput.obj
 0001:00013aa0       ?recreate@?$Array@DV?$ReflectionAllocator@D@shdfnd@physx@@@shdfnd@physx@@IEAAXI@Z 0000000180014aa0 f i CmRenderOutput.obj
 0001:00013b40       ?recreate@?$Array@UPxDebugLine@physx@@V?$ReflectionAllocator@UPxDebugLine@physx@@@shdfnd@2@@shdfnd@physx@@IEAAXI@Z 0000000180014b40 f i CmRenderOutput.obj
 0001:00013bd0       ?reserveSegments@RenderOutput@Cm@physx@@QEAAPEAUPxDebugLine@3@I@Z 0000000180014bd0 f i CmRenderOutput.obj
 0001:00013c10       ?resizeUninitialized@?$Array@UPxDebugLine@physx@@V?$ReflectionAllocator@UPxDebugLine@physx@@@shdfnd@2@@shdfnd@physx@@QEAAXI@Z 0000000180014c10 f i CmRenderOutput.obj
 0001:00013c50       ?transform@PxMat44@physx@@QEBA?AVPxVec4@2@AEBV32@@Z 0000000180014c50 f i CmRenderOutput.obj
 0001:00013db0       ?visualizeJointFrames@Cm@physx@@YAXAEAVRenderOutput@12@MAEBVPxTransform@2@1@Z 0000000180014db0 f   CmVisualization.obj
 0001:00013e70       ?visualizeLinearLimit@Cm@physx@@YAXAEAVRenderOutput@12@MAEBVPxTransform@2@1M_N@Z 0000000180014e70 f   CmVisualization.obj
 0001:000140b0       ?visualizeAngularLimit@Cm@physx@@YAXAEAVRenderOutput@12@MAEBVPxTransform@2@MM_N@Z 00000001800150b0 f   CmVisualization.obj
 0001:00014280       ?visualizeLimitCone@Cm@physx@@YAXAEAVRenderOutput@12@MAEBVPxTransform@2@MM_N@Z 0000000180015280 f   CmVisualization.obj
 0001:00014570       ?visualizeDoubleCone@Cm@physx@@YAXAEAVRenderOutput@12@MAEBVPxTransform@2@M_N@Z 0000000180015570 f   CmVisualization.obj
 0001:000147c0       ?contactCapsuleMesh@Gu@physx@@YA_NAEBVGeometryUnion@12@0AEBVPxTransform@2@1AEBMAEAUCache@12@AEAVContactBuffer@12@@Z 00000001800157c0 f   GuContactCapsuleMesh.obj
 0001:000149a0       ?contactCapsuleHeightfield@Gu@physx@@YA_NAEBVGeometryUnion@12@0AEBVPxTransform@2@1AEBMAEAUCache@12@AEAVContactBuffer@12@@Z 00000001800159a0 f   GuContactCapsuleMesh.obj
 0001:00014cf0       ??0Box@Gu@physx@@QEAA@AEBV012@@Z 0000000180015cf0 f i GuContactCapsuleMesh.obj
 0001:00014d50       ??0Box@Gu@physx@@QEAA@AEBVPxVec3@2@0AEBVPxMat33@2@@Z 0000000180015d50 f i GuContactCapsuleMesh.obj
 0001:00014dc0       ??0Box@Gu@physx@@QEAA@XZ   0000000180015dc0 f i GuContactCapsuleMesh.obj
 0001:00015000       ??0GeometryUnion@Gu@physx@@QEAA@AEBW4PxEMPTY@2@@Z 0000000180016000 f i GuContactCapsuleMesh.obj
 0001:00015010       ??0GeometryUnion@Gu@physx@@QEAA@XZ 0000000180016010 f i GuContactCapsuleMesh.obj
 0001:00015020       ??0HeightFieldData@Gu@physx@@QEAA@$$QEAU012@@Z 0000000180016020 f i GuContactCapsuleMesh.obj
 0001:000150a0       ??0HeightFieldData@Gu@physx@@QEAA@AEBU012@@Z 00000001800160a0 f i GuContactCapsuleMesh.obj
 0001:00015120       ??0HeightFieldData@Gu@physx@@QEAA@AEBW4PxEMPTY@2@@Z 0000000180016120 f i GuContactCapsuleMesh.obj
 0001:00015130       ??0HeightFieldData@Gu@physx@@QEAA@XZ 0000000180016130 f i GuContactCapsuleMesh.obj
 0001:00015140       ??0HeightFieldUtil@Gu@physx@@QEAA@AEBVPxHeightFieldGeometry@2@@Z 0000000180016140 f i GuContactCapsuleMesh.obj
 0001:00015180       ??0HeightFieldUtil@Gu@physx@@QEAA@AEBVPxHeightFieldGeometry@2@AEBVHeightField@12@@Z 0000000180016180 f i GuContactCapsuleMesh.obj
 0001:000151c0       ??0HeightFieldUtil@Gu@physx@@QEAA@XZ 00000001800161c0 f i GuContactCapsuleMesh.obj
 0001:000151d0       ??0MaterialIndicesStruct@physx@@QEAA@AEBW4PxEMPTY@1@@Z 00000001800161d0 f i GuContactCapsuleMesh.obj
 0001:000151e0       ??0MaterialIndicesStruct@physx@@QEAA@XZ 00000001800161e0 f i GuContactCapsuleMesh.obj
 0001:000151f0       ??0PxQuat@physx@@QEAA@AEBVPxMat33@1@@Z 00000001800161f0 f i GuContactCapsuleMesh.obj
 0001:00015400       ??0PxVec3@physx@@QEAA@XZ   0000000180016400 f i GuContactCapsuleMesh.obj
 0001:00015410       ??0RTree@Gu@physx@@QEAA@AEBU012@@Z 0000000180016410 f i GuContactCapsuleMesh.obj
 0001:000154b0       ??0RTreeMidphase@Gu@physx@@QEAA@AEBV012@@Z 00000001800164b0 f i GuContactCapsuleMesh.obj
 0001:00015560       ??0RTreeMidphase@Gu@physx@@QEAA@AEBW4PxEMPTY@2@@Z 0000000180016560 f i GuContactCapsuleMesh.obj
 0001:00015590       ??1?$EntityReport@I@Gu@physx@@UEAA@XZ 0000000180016590 f i GuContactCapsuleMesh.obj
 0001:000155a0       ??1?$MeshHitCallback@UPxRaycastHit@physx@@@Gu@physx@@UEAA@XZ 00000001800165a0 f i GuContactCapsuleMesh.obj
 0001:000155b0       ??1Box@Gu@physx@@QEAA@XZ   00000001800165b0 f i GuContactCapsuleMesh.obj
 0001:000155c0       ??1MaterialIndicesStruct@physx@@QEAA@XZ 00000001800165c0 f i GuContactCapsuleMesh.obj
 0001:000155d0       ??1PxBase@physx@@MEAA@XZ   00000001800165d0 f i GuContactCapsuleMesh.obj
 0001:000155e0       ??1PxHeightField@physx@@MEAA@XZ 00000001800165e0 f i GuContactCapsuleMesh.obj
 0001:000155f0       ??1PxTriangleMesh@physx@@MEAA@XZ 00000001800165f0 f i GuContactCapsuleMesh.obj
 0001:00015600       ??1RTree@Gu@physx@@QEAA@XZ 0000000180016600 f i GuContactCapsuleMesh.obj
 0001:00015610       ??4Box@Gu@physx@@QEAAAEBV012@AEBV012@@Z 0000000180016610 f i GuContactCapsuleMesh.obj
 0001:00015670       ??4GeometryUnion@Gu@physx@@QEAAAEAV012@$$QEAV012@@Z 0000000180016670 f i GuContactCapsuleMesh.obj
 0001:000156a0       ??4GeometryUnion@Gu@physx@@QEAAAEAV012@AEBV012@@Z 00000001800166a0 f i GuContactCapsuleMesh.obj
 0001:000156d0       ??4HeightFieldData@Gu@physx@@QEAAAEAU012@$$QEAU012@@Z 00000001800166d0 f i GuContactCapsuleMesh.obj
 0001:00015750       ??4HeightFieldData@Gu@physx@@QEAAAEAU012@AEBU012@@Z 0000000180016750 f i GuContactCapsuleMesh.obj
 0001:000157d0       ??4HeightFieldUtil@Gu@physx@@QEAAAEAV012@$$QEAV012@@Z 00000001800167d0 f i GuContactCapsuleMesh.obj
 0001:00015800       ??4HeightFieldUtil@Gu@physx@@QEAAAEAV012@AEBV012@@Z 0000000180016800 f i GuContactCapsuleMesh.obj
 0001:00015820       ??4MaterialIndicesStruct@physx@@QEAAAEAU01@AEBU01@@Z 0000000180016820 f i GuContactCapsuleMesh.obj
 0001:00015830       ??4MeshInterface@Gu@physx@@QEAAAEAV012@AEBV012@@Z 0000000180016830 f i GuContactCapsuleMesh.obj
 0001:00015850       ??4RTree@Gu@physx@@QEAAAEAU012@AEBU012@@Z 0000000180016850 f i GuContactCapsuleMesh.obj
 0001:000158f0       ??4RTreeMidphase@Gu@physx@@QEAAAEAV012@AEBV012@@Z 00000001800168f0 f i GuContactCapsuleMesh.obj
 0001:000159a0       ??_E?$EntityReport@I@Gu@physx@@UEAAPEAXI@Z 00000001800169a0 f i GuContactCapsuleMesh.obj
 0001:000159a0       ??_G?$EntityReport@I@Gu@physx@@UEAAPEAXI@Z 00000001800169a0 f i GuContactCapsuleMesh.obj
 0001:000159d0       ??_G?$MeshHitCallback@UPxRaycastHit@physx@@@Gu@physx@@UEAAPEAXI@Z 00000001800169d0 f i GuContactCapsuleMesh.obj
 0001:000159d0       ??_E?$MeshHitCallback@UPxRaycastHit@physx@@@Gu@physx@@UEAAPEAXI@Z 00000001800169d0 f i GuContactCapsuleMesh.obj
 0001:00015a00       ??_ECapsuleHeightfieldContactGenerationCallback@?A0x00b53478@@UEAAPEAXI@Z 0000000180016a00 f i GuContactCapsuleMesh.obj
 0001:00015a00       ??_GCapsuleHeightfieldContactGenerationCallback@?A0x00b53478@@UEAAPEAXI@Z 0000000180016a00 f i GuContactCapsuleMesh.obj
 0001:00015a30       ??_GCapsuleMeshContactGenerationCallback@?A0x00b53478@@UEAAPEAXI@Z 0000000180016a30 f i GuContactCapsuleMesh.obj
 0001:00015a30       ??_ECapsuleMeshContactGenerationCallback@?A0x00b53478@@UEAAPEAXI@Z 0000000180016a30 f i GuContactCapsuleMesh.obj
 0001:00015a60       ??_GPxBase@physx@@MEAAPEAXI@Z 0000000180016a60 f i GuContactCapsuleMesh.obj
 0001:00015a60       ??_EPxBase@physx@@MEAAPEAXI@Z 0000000180016a60 f i GuContactCapsuleMesh.obj
 0001:00015a90       ??_H@YAXPEAX_K1P6APEAX0@Z@Z 0000000180016a90 f i GuContactCapsuleMesh.obj
 0001:00015ae0       ?GetMeshInterface@RTreeMidphase@Gu@physx@@QEBAPEBVMeshInterface@23@XZ 0000000180016ae0 f i GuContactCapsuleMesh.obj
 0001:00015af0       ?GetNbTriangles@MeshInterface@Gu@physx@@QEBAIXZ 0000000180016af0 f i GuContactCapsuleMesh.obj
 0001:00015b00       ?GetNbVertices@MeshInterface@Gu@physx@@QEBAIXZ 0000000180016b00 f i GuContactCapsuleMesh.obj
 0001:00015b10       ?GetTriangle@MeshInterface@Gu@physx@@QEBAXAEAUVertexPointers@23@I@Z 0000000180016b10 f i GuContactCapsuleMesh.obj
 0001:00015bb0       ?GetTriangleVerts@MeshInterface@Gu@physx@@SAXI_K0IAEAVPxVec3@3@11@Z 0000000180016bb0 f i GuContactCapsuleMesh.obj
 0001:00015c50       ?GetTriangleVerts@MeshInterface@Gu@physx@@SAXI_K0IAEAVPxVec3@3@11AEAI22@Z 0000000180016c50 f i GuContactCapsuleMesh.obj
 0001:00015d10       ?GetTris@MeshInterface@Gu@physx@@QEBAPEBXXZ 0000000180016d10 f i GuContactCapsuleMesh.obj
 0001:00015d20       ?GetVerts@MeshInterface@Gu@physx@@QEBAPEBVPxVec3@3@XZ 0000000180016d20 f i GuContactCapsuleMesh.obj
 0001:00016ed0       ?SetMeshInterface@RTreeMidphase@Gu@physx@@QEAAXPEBVMeshInterface@23@@Z 0000000180017ed0 f i GuContactCapsuleMesh.obj
 0001:00016ee0       ?SetNbTriangles@MeshInterface@Gu@physx@@QEAAXI@Z 0000000180017ee0 f i GuContactCapsuleMesh.obj
 0001:00016ef0       ?SetNbVertices@MeshInterface@Gu@physx@@QEAAXI@Z 0000000180017ef0 f i GuContactCapsuleMesh.obj
 0001:00016f00       ?allocate@MaterialIndicesStruct@physx@@QEAAXG@Z 0000000180017f00 f i GuContactCapsuleMesh.obj
 0001:00016f40       ?ceilUp@HeightFieldUtil@Gu@physx@@SAMM@Z 0000000180017f40 f i GuContactCapsuleMesh.obj
 0001:00016f80       ?clipShapeNormalToVertexVoronoi@HeightFieldUtil@Gu@physx@@QEBA_NAEAVPxVec3@3@III@Z 0000000180017f80 f i GuContactCapsuleMesh.obj
 0001:00017330       ?computeAABBExtent@Box@Gu@physx@@QEBA?AVPxVec3@3@XZ 0000000180018330 f i GuContactCapsuleMesh.obj
 0001:000173f0       ?computeBounds@GeometryUnion@Gu@physx@@QEBA?AVPxBounds3@3@AEBVPxTransform@3@@Z 00000001800183f0 f i GuContactCapsuleMesh.obj
 0001:00017420       ?computeBoxPoints@Box@Gu@physx@@QEBAXPEIAVPxVec3@3@@Z 0000000180018420 f i GuContactCapsuleMesh.obj
 0001:000177a0       ?computePointNormal@HeightFieldUtil@Gu@physx@@QEBA?AVPxVec3@3@IAEBV43@AEBVPxTransform@3@MMMMAEAM@Z 00000001800187a0 f i GuContactCapsuleMesh.obj
 0001:00017c00       ?deallocate@MaterialIndicesStruct@physx@@QEAAXXZ 0000000180018c00 f i GuContactCapsuleMesh.obj
 0001:00017c30       ?floorDown@HeightFieldUtil@Gu@physx@@SAMM@Z 0000000180018c30 f i GuContactCapsuleMesh.obj
 0001:00017c70       ?get64BitBasePage@RTree@Gu@physx@@IEBAPEAURTreePage@23@XZ 0000000180018c70 f i GuContactCapsuleMesh.obj
 0001:00017c90       ?getConcreteTypeName@PxBase@physx@@UEBAPEBDXZ 0000000180018c90 f i GuContactCapsuleMesh.obj
 0001:00017ca0       ?getConcreteTypeName@PxHeightField@physx@@UEBAPEBDXZ 0000000180018ca0 f i GuContactCapsuleMesh.obj
 0001:00017cb0       ?getConcreteTypeName@PxTriangleMesh@physx@@UEBAPEBDXZ 0000000180018cb0 f i GuContactCapsuleMesh.obj
 0001:00017cc0       ?getConvexEdgeThreshold@HeightField@Gu@physx@@UEBAMXZ 0000000180018cc0 f i GuContactCapsuleMesh.obj
 0001:00017cd0       ?getEdgeDirection@HeightFieldUtil@Gu@physx@@QEBA?AVPxVec3@3@II@Z 0000000180018cd0 f i GuContactCapsuleMesh.obj
 0001:00017e40       ?getFeatureIndex@HeightFieldUtil@Gu@physx@@SAII@Z 0000000180018e40 f i GuContactCapsuleMesh.obj
 0001:00017e50       ?getFeatureType@HeightFieldUtil@Gu@physx@@SA?AW4Feature@123@I@Z 0000000180018e50 f i GuContactCapsuleMesh.obj
 0001:00017e60       ?getFlags@HeightField@Gu@physx@@UEBA?AV?$PxFlags@W4Enum@PxHeightFieldFlag@physx@@G@3@XZ 0000000180018e60 f i GuContactCapsuleMesh.obj
 0001:00017e70       ?getFormat@HeightField@Gu@physx@@UEBA?AW4Enum@PxHeightFieldFormat@3@XZ 0000000180018e70 f i GuContactCapsuleMesh.obj
 0001:00017e80       ?getGeometry@GeometryUnion@Gu@physx@@QEBAAEBVPxGeometry@3@XZ 0000000180018e80 f i GuContactCapsuleMesh.obj
 0001:00017e90       ?getHeight@HeightField@Gu@physx@@UEBAMMM@Z 0000000180018e90 f i GuContactCapsuleMesh.obj
 0001:00017ed0       ?getHeightAtShapePoint2@HeightFieldUtil@Gu@physx@@QEBAMIMM@Z 0000000180018ed0 f i GuContactCapsuleMesh.obj
 0001:00017f00       ?getHeightAtShapePoint@HeightFieldUtil@Gu@physx@@QEBAMMM@Z 0000000180018f00 f i GuContactCapsuleMesh.obj
 0001:00017f60       ?getHeightField@HeightFieldUtil@Gu@physx@@QEBAAEBVHeightField@23@XZ 0000000180018f60 f i GuContactCapsuleMesh.obj
 0001:00017f70       ?getHeightFieldGeometry@HeightFieldUtil@Gu@physx@@QEBAAEBVPxHeightFieldGeometry@3@XZ 0000000180018f70 f i GuContactCapsuleMesh.obj
 0001:00017f80       ?getHeightInternal2@HeightField@Gu@physx@@QEBAMIMM@Z 0000000180018f80 f i GuContactCapsuleMesh.obj
 0001:000180f0       ?getInverse@PxMat33@physx@@QEBA?AV12@XZ 00000001800190f0 f i GuContactCapsuleMesh.obj
 0001:00018380       ?getNbColumns@HeightField@Gu@physx@@UEBAIXZ 0000000180019380 f i GuContactCapsuleMesh.obj
 0001:00018390       ?getNbRows@HeightField@Gu@physx@@UEBAIXZ 0000000180019390 f i GuContactCapsuleMesh.obj
 0001:000183a0       ?getNodeIdxFromNodeHandle@RTree@Gu@physx@@IEBAII@Z 00000001800193a0 f i GuContactCapsuleMesh.obj
 0001:000183b0       ?getNormalAtShapePoint2@HeightFieldUtil@Gu@physx@@QEBA?AVPxVec3@3@IMM@Z 00000001800193b0 f i GuContactCapsuleMesh.obj
 0001:00018400       ?getNormalAtShapePoint@HeightFieldUtil@Gu@physx@@QEBA?AVPxVec3@3@MM@Z 0000000180019400 f i GuContactCapsuleMesh.obj
 0001:000184c0       ?getNormal_2@HeightField@Gu@physx@@QEBA?AVPxVec3@3@IMMMMM@Z 00000001800194c0 f i GuContactCapsuleMesh.obj
 0001:000185f0       ?getOneOverColumnScale@HeightFieldUtil@Gu@physx@@QEBAMXZ 00000001800195f0 f i GuContactCapsuleMesh.obj
 0001:00018600       ?getOneOverHeightScale@HeightFieldUtil@Gu@physx@@QEBAMXZ 0000000180019600 f i GuContactCapsuleMesh.obj
 0001:00018610       ?getOneOverRowScale@HeightFieldUtil@Gu@physx@@QEBAMXZ 0000000180019610 f i GuContactCapsuleMesh.obj
 0001:00018620       ?getPageFromNodeHandle@RTree@Gu@physx@@IEBAPEAURTreePage@23@I@Z 0000000180019620 f i GuContactCapsuleMesh.obj
 0001:00018640       ?getRTreeMidphaseData@RTreeMidphase@Gu@physx@@QEBAXAEAURTreeMidphaseData@23@@Z 0000000180019640 f i GuContactCapsuleMesh.obj
 0001:00018660       ?getSampleStride@HeightField@Gu@physx@@UEBAIXZ 0000000180019660 f i GuContactCapsuleMesh.obj
 0001:00018670       ?getThickness@HeightField@Gu@physx@@UEBAMXZ 0000000180019670 f i GuContactCapsuleMesh.obj
 0001:00018680       ?getTransform@Box@Gu@physx@@QEBA?AVPxTransform@3@XZ 0000000180019680 f i GuContactCapsuleMesh.obj
 0001:000186e0       ?getTriangleMaterialIndex@HeightField@Gu@physx@@UEBAGI@Z 00000001800196e0 f i GuContactCapsuleMesh.obj
 0001:00018720       ?getTriangleNormal@HeightField@Gu@physx@@UEBA?AVPxVec3@3@I@Z 0000000180019720 f i GuContactCapsuleMesh.obj
 0001:00018740       ?getTriangleNormalInternal@HeightField@Gu@physx@@QEBA?AVPxVec3@3@I@Z 0000000180019740 f i GuContactCapsuleMesh.obj
 0001:000188b0       ?getType@GeometryUnion@Gu@physx@@QEBA?AW4Enum@PxGeometryType@3@XZ 00000001800198b0 f i GuContactCapsuleMesh.obj
 0001:000188c0       ?getVertexNormal@HeightFieldUtil@Gu@physx@@QEBA?AVPxVec3@3@I@Z 00000001800198c0 f i GuContactCapsuleMesh.obj
 0001:00018900       ?has16BitIndices@MeshInterface@Gu@physx@@QEBAIXZ 0000000180019900 f i GuContactCapsuleMesh.obj
 0001:00018910       ?hf2shapen@HeightFieldUtil@Gu@physx@@QEBA?AVPxVec3@3@AEBV43@@Z 0000000180019910 f i GuContactCapsuleMesh.obj
 0001:00018950       ?hf2shapep@HeightFieldUtil@Gu@physx@@QEBA?AVPxVec3@3@AEBV43@@Z 0000000180019950 f i GuContactCapsuleMesh.obj
 0001:00018990       ?hf2worldn@HeightFieldUtil@Gu@physx@@QEBA?AVPxVec3@3@AEBVPxTransform@3@AEBV43@@Z 0000000180019990 f i GuContactCapsuleMesh.obj
 0001:00018b00       ?hf2worldp@HeightFieldUtil@Gu@physx@@QEBA?AVPxVec3@3@AEBVPxTransform@3@AEBV43@@Z 0000000180019b00 f i GuContactCapsuleMesh.obj
 0001:00018c90       ?init@FastVertex2ShapeScaling@Cm@physx@@QEAAXAEBVPxVec3@3@AEBVPxQuat@3@@Z 0000000180019c90 f i GuContactCapsuleMesh.obj
 0001:00019210       ?initialize@HeightFieldUtil@Gu@physx@@AEAAXXZ 000000018001a210 f i GuContactCapsuleMesh.obj
 0001:00019240       ?initialize@HeightFieldUtil@Gu@physx@@QEAAXAEBVPxHeightFieldGeometry@3@AEBVHeightField@23@@Z 000000018001a240 f i GuContactCapsuleMesh.obj
 0001:00019280       ?isCollisionVertex@HeightFieldUtil@Gu@physx@@QEBA_NIII@Z 000000018001a280 f i GuContactCapsuleMesh.obj
 0001:000192a0       ?isKindOf@PxBase@physx@@MEBA_NPEBD@Z 000000018001a2a0 f i GuContactCapsuleMesh.obj
 0001:000192d0       ?isKindOf@PxHeightField@physx@@MEBA_NPEBD@Z 000000018001a2d0 f i GuContactCapsuleMesh.obj
 0001:00019320       ?isKindOf@PxTriangleMesh@physx@@MEBA_NPEBD@Z 000000018001a320 f i GuContactCapsuleMesh.obj
 0001:00019370       ?isQueryVertex@HeightFieldUtil@Gu@physx@@QEBA_NIII@Z 000000018001a370 f i GuContactCapsuleMesh.obj
 0001:00019430       ?isReleasable@PxBase@physx@@UEBA_NXZ 000000018001a430 f i GuContactCapsuleMesh.obj
 0001:00019440       ?isShapePointOnHeightField@HeightFieldUtil@Gu@physx@@QEBA_NMM@Z 000000018001a440 f i GuContactCapsuleMesh.obj
 0001:00019490       ?isValid@Box@Gu@physx@@QEBA_NXZ 000000018001a490 f i GuContactCapsuleMesh.obj
 0001:000194b0       ?makeFeatureCode@HeightFieldUtil@Gu@physx@@SAIIW4Feature@123@@Z 000000018001a4b0 f i GuContactCapsuleMesh.obj
 0001:000198c0       ?pagePtrFrom32Bits@RTree@Gu@physx@@KAPEAURTreePage@23@I@Z 000000018001a8c0 f i GuContactCapsuleMesh.obj
 0001:000198d0       ?pagePtrTo32Bits@RTree@Gu@physx@@KAIPEBURTreePage@23@@Z 000000018001a8d0 f i GuContactCapsuleMesh.obj
 0001:0001a070       ?rotate@Box@Gu@physx@@QEBA?AVPxVec3@3@AEBV43@@Z 000000018001b070 f i GuContactCapsuleMesh.obj
 0001:0001a120       ?rotateInv@Box@Gu@physx@@QEBA?AVPxVec3@3@AEBV43@@Z 000000018001b120 f i GuContactCapsuleMesh.obj
 0001:0001a1b0       ?setAxes@Box@Gu@physx@@QEAAXAEBVPxVec3@3@00@Z 000000018001b1b0 f i GuContactCapsuleMesh.obj
 0001:0001a1f0       ?setEmpty@Box@Gu@physx@@QEAAXXZ 000000018001b1f0 f i GuContactCapsuleMesh.obj
 0001:0001a230       ?shape2hfp@HeightFieldUtil@Gu@physx@@QEBA?AVPxVec3@3@AEBV43@@Z 000000018001b230 f i GuContactCapsuleMesh.obj
 0001:0001a270       ?transform@Box@Gu@physx@@QEBA?AVPxVec3@3@AEBV43@@Z 000000018001b270 f i GuContactCapsuleMesh.obj
 0001:0001a330       ?transformFast@PxBounds3@physx@@SA?AV12@AEBVPxTransform@2@AEBV12@@Z 000000018001b330 f i GuContactCapsuleMesh.obj
 0001:0001a750       ?transformQueryBounds@FastVertex2ShapeScaling@Cm@physx@@QEBAXAEAVPxVec3@3@0AEAVPxMat33@3@@Z 000000018001b750 f i GuContactCapsuleMesh.obj
 0001:0001a9c0       ?contactConvexMesh@Gu@physx@@YA_NAEBVGeometryUnion@12@0AEBVPxTransform@2@1AEBMAEAUCache@12@AEAVContactBuffer@12@@Z 000000018001b9c0 f   GuContactConvexMesh.obj
 0001:0001ab60       ?contactBoxMesh@Gu@physx@@YA_NAEBVGeometryUnion@12@0AEBVPxTransform@2@1AEBMAEAUCache@12@AEAVContactBuffer@12@@Z 000000018001bb60 f   GuContactConvexMesh.obj
 0001:0001ad20       ?contactConvexHeightfield@Gu@physx@@YA_NAEBVGeometryUnion@12@0AEBVPxTransform@2@1AEBMAEAUCache@12@AEAVContactBuffer@12@@Z 000000018001bd20 f   GuContactConvexMesh.obj
 0001:0001ae60       ?contactBoxHeightfield@Gu@physx@@YA_NAEBVGeometryUnion@12@0AEBVPxTransform@2@1AEBMAEAUCache@12@AEAVContactBuffer@12@@Z 000000018001be60 f   GuContactConvexMesh.obj
 0001:0001afd0       ??0CachedEdge@Gu@physx@@QEAA@XZ 000000018001bfd0 f i GuContactConvexMesh.obj
 0001:0001afe0       ??0CachedVertex@Gu@physx@@QEAA@XZ 000000018001bfe0 f i GuContactConvexMesh.obj
 0001:0001b510       ??0HullPolygonData@Gu@physx@@QEAA@AEBU012@@Z 000000018001c510 f i GuContactConvexMesh.obj
 0001:0001b540       ??0PolygonalBox@Gu@physx@@QEAA@AEBV012@@Z 000000018001c540 f i GuContactConvexMesh.obj
 0001:0001b620       ??0PxVec3@physx@@QEAA@AEBV01@@Z 000000018001c620 f i GuContactConvexMesh.obj
 0001:0001b640       ??0SeparatingAxes@Gu@physx@@QEAA@$$QEAV012@@Z 000000018001c640 f i GuContactConvexMesh.obj
 0001:0001b690       ??0SeparatingAxes@Gu@physx@@QEAA@AEBV012@@Z 000000018001c690 f i GuContactConvexMesh.obj
 0001:0001b6e0       ??0SeparatingAxes@Gu@physx@@QEAA@XZ 000000018001c6e0 f i GuContactConvexMesh.obj
 0001:0001b6f0       ??4SeparatingAxes@Gu@physx@@QEAAAEAV012@$$QEAV012@@Z 000000018001c6f0 f i GuContactConvexMesh.obj
 0001:0001b800       ??4SeparatingAxes@Gu@physx@@QEAAAEAV012@AEBV012@@Z 000000018001c800 f i GuContactConvexMesh.obj
 0001:0001b910       ??AContainer@Gu@physx@@QEAAAEAII@Z 000000018001c910 f i GuContactConvexMesh.obj
 0001:0001b920       ??AContainer@Gu@physx@@QEBAII@Z 000000018001c920 f i GuContactConvexMesh.obj
 0001:0001b930       ??_EConvexMeshContactGenerationCallback@@UEAAPEAXI@Z 000000018001c930 f i GuContactConvexMesh.obj
 0001:0001b930       ??_GConvexMeshContactGenerationCallback@@UEAAPEAXI@Z 000000018001c930 f i GuContactConvexMesh.obj
 0001:0001b960       ??_GConvexVsHeightfieldContactGenerationCallback@?A0xddd4b6be@@UEAAPEAXI@Z 000000018001c960 f i GuContactConvexMesh.obj
 0001:0001b960       ??_EConvexVsHeightfieldContactGenerationCallback@?A0xddd4b6be@@UEAAPEAXI@Z 000000018001c960 f i GuContactConvexMesh.obj
 0001:0001b990       ??__G@YAXPEAX0_K1P6APEAX00@Z@Z 000000018001c990 f i GuContactConvexMesh.obj
 0001:0001b9f0       ?Add@Container@Gu@physx@@QEAAAEAV123@AEBV123@@Z 000000018001c9f0 f i GuContactConvexMesh.obj
 0001:0001ba60       ?Add@Container@Gu@physx@@QEAAAEAV123@I@Z 000000018001ca60 f i GuContactConvexMesh.obj
 0001:0001baa0       ?Add@Container@Gu@physx@@QEAAAEAV123@M@Z 000000018001caa0 f i GuContactConvexMesh.obj
 0001:0001baf0       ?Add@Container@Gu@physx@@QEAAAEAV123@PEBII@Z 000000018001caf0 f i GuContactConvexMesh.obj
 0001:0001bb70       ?Add@Container@Gu@physx@@QEAAAEAV123@PEBMI@Z 000000018001cb70 f i GuContactConvexMesh.obj
 0001:0001bbe0       ?AddUnique@Container@Gu@physx@@QEAAAEAV123@I@Z 000000018001cbe0 f i GuContactConvexMesh.obj
 0001:0001bc30       ?DeleteIndex@Container@Gu@physx@@QEAAXI@Z 000000018001cc30 f i GuContactConvexMesh.obj
 0001:0001bc50       ?DeleteLastEntry@Container@Gu@physx@@QEAAXXZ 000000018001cc50 f i GuContactConvexMesh.obj
 0001:0001bc60       ?ForceSize@Container@Gu@physx@@QEAAXI@Z 000000018001cc60 f i GuContactConvexMesh.obj
 0001:0001bc70       ?GetEntries@Container@Gu@physx@@QEBAPEAIXZ 000000018001cc70 f i GuContactConvexMesh.obj
 0001:0001bc80       ?GetEntry@Container@Gu@physx@@QEBAII@Z 000000018001cc80 f i GuContactConvexMesh.obj
 0001:0001bc90       ?GetFirst@Container@Gu@physx@@QEBAIXZ 000000018001cc90 f i GuContactConvexMesh.obj
 0001:0001bca0       ?GetGrowthFactor@Container@Gu@physx@@QEBAMXZ 000000018001cca0 f i GuContactConvexMesh.obj
 0001:0001bcb0       ?GetLast@Container@Gu@physx@@QEBAIXZ 000000018001ccb0 f i GuContactConvexMesh.obj
 0001:0001bcc0       ?GetMaxNbEntries@Container@Gu@physx@@QEBAIXZ 000000018001ccc0 f i GuContactConvexMesh.obj
 0001:0001bcd0       ?GetNbEntries@Container@Gu@physx@@QEBAIXZ 000000018001ccd0 f i GuContactConvexMesh.obj
 0001:0001bce0       ?IsFull@Container@Gu@physx@@QEBA_NXZ 000000018001cce0 f i GuContactConvexMesh.obj
 0001:0001bcf0       ?IsNotEmpty@Container@Gu@physx@@QEBAHXZ 000000018001ccf0 f i GuContactConvexMesh.obj
 0001:0001bd00       ?Reserve@Container@Gu@physx@@QEAAPEAII@Z 000000018001cd00 f i GuContactConvexMesh.obj
 0001:0001bd40       ?Reset@Container@Gu@physx@@QEAAXXZ 000000018001cd40 f i GuContactConvexMesh.obj
 0001:0001bd50       ?SetGrowthFactor@Container@Gu@physx@@QEAAXM@Z 000000018001cd50 f i GuContactConvexMesh.obj
 0001:0001bd60       ?addData@?$CacheMap@UCachedEdge@Gu@physx@@$0IA@@Gu@physx@@QEAA_NAEBUCachedEdge@23@@Z 000000018001cd60 f i GuContactConvexMesh.obj
 0001:0001be50       ?addData@?$CacheMap@UCachedVertex@Gu@physx@@$0IA@@Gu@physx@@QEAA_NAEBUCachedVertex@23@@Z 000000018001ce50 f i GuContactConvexMesh.obj
 0001:0001e4d0       ?getAxes@SeparatingAxes@Gu@physx@@QEBAPEBVPxVec3@3@XZ 000000018001f4d0 f i GuContactConvexMesh.obj
 0001:0001e4e0       ?getNumAxes@SeparatingAxes@Gu@physx@@QEBAIXZ 000000018001f4e0 f i GuContactConvexMesh.obj
 0001:0001f680       ?processHit@ConvexMeshContactGenerationCallback@@UEAA_NAEBUPxRaycastHit@physx@@AEBVPxVec3@3@11AEAMPEBI@Z 0000000180020680 f i GuContactConvexMesh.obj
 0001:0001fe50       ?reset@SeparatingAxes@Gu@physx@@QEAAXXZ 0000000180020e50 f i GuContactConvexMesh.obj
 0001:00020e00       ?findRotationMatrixFromZ@Gu@physx@@YA?AVPxMat33@2@AEBVPxVec3@2@@Z 0000000180021e00 f   GuContactPolygonPolygon.obj
 0001:000210e0       ?contactPolygonPolygonExt@Gu@physx@@YA_NIPEBVPxVec3@2@PEBEAEBVMatrix34@Cm@2@AEBVPxPlane@2@AEBVPxMat33@2@I01234AEBV32@22IIAEAVContactBuffer@12@_N5M@Z 00000001800220e0 f   GuContactPolygonPolygon.obj
 0001:000241d0       ?contactSphereMesh@Gu@physx@@YA_NAEBVGeometryUnion@12@0AEBVPxTransform@2@1AEBMAEAUCache@12@AEAVContactBuffer@12@@Z 00000001800251d0 f   GuContactSphereMesh.obj
 0001:000245f0       ?contactSphereHeightField@Gu@physx@@YA_NAEBVGeometryUnion@12@0AEBVPxTransform@2@1AEBMAEAUCache@12@AEAVContactBuffer@12@@Z 00000001800255f0 f   GuContactSphereMesh.obj
 0001:000248a0       ??$smallSort@USortKey@@$$CBU?$Less@USortKey@@@shdfnd@physx@@@internal@shdfnd@physx@@YAXPEAUSortKey@@HHAEBU?$Less@USortKey@@@12@@Z 00000001800258a0 f i GuContactSphereMesh.obj
 0001:00024a80       ??$sort@USortKey@@U?$Less@USortKey@@@shdfnd@physx@@VNullAllocator@?A0x276e9aaa@@@shdfnd@physx@@YAXPEAUSortKey@@IAEBU?$Less@USortKey@@@01@AEBVNullAllocator@?A0x276e9aaa@@I@Z 0000000180025a80 f i GuContactSphereMesh.obj
 0001:00024d30       ??0TriangleData@@QEAA@XZ   0000000180025d30 f i GuContactSphereMesh.obj
 0001:00024da0       ??_GSphereHeightfieldContactGenerationCallback@?A0x276e9aaa@@UEAAPEAXI@Z 0000000180025da0 f i GuContactSphereMesh.obj
 0001:00024da0       ??_ESphereHeightfieldContactGenerationCallback@?A0x276e9aaa@@UEAAPEAXI@Z 0000000180025da0 f i GuContactSphereMesh.obj
 0001:00024dd0       ??_ESphereMeshContactGenerationCallback_NoScale@?A0x276e9aaa@@UEAAPEAXI@Z 0000000180025dd0 f i GuContactSphereMesh.obj
 0001:00024dd0       ??_GSphereMeshContactGenerationCallback_NoScale@?A0x276e9aaa@@UEAAPEAXI@Z 0000000180025dd0 f i GuContactSphereMesh.obj
 0001:00024e20       ??_ESphereMeshContactGenerationCallback_Scale@?A0x276e9aaa@@UEAAPEAXI@Z 0000000180025e20 f i GuContactSphereMesh.obj
 0001:00024e20       ??_GSphereMeshContactGenerationCallback_Scale@?A0x276e9aaa@@UEAAPEAXI@Z 0000000180025e20 f i GuContactSphereMesh.obj
 0001:00026490       ?selectNormal@Gu@physx@@YA_NEMM@Z 0000000180027490 f   GuFeatureCode.obj
 0001:00026590       ?barycentricCoordinates@Gu@physx@@YAXAEBT__m128@@00AEAT3@@Z 0000000180027590 f   GuBarycentricCoordinates.obj
 0001:000265f0       ?barycentricCoordinates@Gu@physx@@YAXAEBT__m128@@000AEAT3@1@Z 00000001800275f0 f   GuBarycentricCoordinates.obj
 0001:00026780       ?barycentricCoordinates@Gu@physx@@YAXAEBT__m128@@00AEAT3@1@Z 0000000180027780 f   GuBarycentricCoordinates.obj
 0001:00026890       ?addAxis@SeparatingAxes@Gu@physx@@QEAA_NAEBVPxVec3@3@@Z 0000000180027890 f   GuSeparatingAxes.obj
 0001:00026950       ??0BigConvexData@physx@@QEAA@XZ 0000000180027950 f   GuBigConvexData.obj
 0001:00026980       ??1BigConvexData@physx@@QEAA@XZ 0000000180027980 f   GuBigConvexData.obj
 0001:000269d0       ?Load@BigConvexData@physx@@QEAA_NAEAVPxInputStream@2@@Z 00000001800279d0 f   GuBigConvexData.obj
 0001:00026ac0       ?ComputeOffset@BigConvexData@physx@@QEBAIAEBVPxVec3@2@@Z 0000000180027ac0 f   GuBigConvexData.obj
 0001:00026ae0       ?ComputeNearestOffset@BigConvexData@physx@@QEBAIAEBVPxVec3@2@@Z 0000000180027ae0 f   GuBigConvexData.obj
 0001:00026b00       ?exportExtraData@BigConvexData@physx@@QEAAXAEAVPxSerializationContext@2@@Z 0000000180027b00 f   GuBigConvexData.obj
 0001:00026b80       ?importExtraData@BigConvexData@physx@@QEAAXAEAVPxDeserializationContext@2@@Z 0000000180027b80 f   GuBigConvexData.obj
 0001:00026c00       ?CreateOffsets@BigConvexData@physx@@IEAAXXZ 0000000180027c00 f   GuBigConvexData.obj
 0001:00026c50       ?VLoad@BigConvexData@physx@@IEAA_NAEAVPxInputStream@2@@Z 0000000180027c50 f   GuBigConvexData.obj
 0001:00026dd0       ??0BigConvexData@physx@@QEAA@AEBW4PxEMPTY@1@@Z 0000000180027dd0 f i GuBigConvexData.obj
 0001:00026de0       ??4BigConvexData@physx@@QEAAAEAV01@AEBV01@@Z 0000000180027de0 f i GuBigConvexData.obj
 0001:00026e00       ?ComputeCubemapNearestOffset@physx@@YAIAEBVPxVec3@1@I@Z 0000000180027e00 f i GuBigConvexData.obj
 0001:00026e80       ?ComputeCubemapOffset@physx@@YAIAEBVPxVec3@1@I@Z 0000000180027e80 f i GuBigConvexData.obj
 0001:00026ef0       ?GetAdjacentVerts@BigConvexData@physx@@QEBAPEBEXZ 0000000180027ef0 f i GuBigConvexData.obj
 0001:00026f00       ?GetNbNeighbors@BigConvexData@physx@@QEBAGI@Z 0000000180027f00 f i GuBigConvexData.obj
 0001:00026f10       ?GetNbSamples@BigConvexData@physx@@QEBAIXZ 0000000180027f10 f i GuBigConvexData.obj
 0001:00026f20       ?GetNbVerts@BigConvexData@physx@@QEBAIXZ 0000000180027f20 f i GuBigConvexData.obj
 0001:00026f30       ?GetNeighbors@BigConvexData@physx@@QEBAPEBEI@Z 0000000180027f30 f i GuBigConvexData.obj
 0001:00026f40       ?GetOffset@BigConvexData@physx@@QEBAGI@Z 0000000180027f40 f i GuBigConvexData.obj
 0001:00026f50       ?GetSubdiv@BigConvexData@physx@@QEBAIXZ 0000000180027f50 f i GuBigConvexData.obj
 0001:00026f60       ?GetValencies@BigConvexData@physx@@QEBAPEBUValency@Gu@2@XZ 0000000180027f60 f i GuBigConvexData.obj
 0001:00026f70       ?GetValency@BigConvexData@physx@@QEBAGI@Z 0000000180027f70 f i GuBigConvexData.obj
 0001:00026f80       ?getScaledConvex@Gu@physx@@YAXAEAPEAVPxVec3@2@AEAPEAEPEAV32@PEAE_NPEBV32@PEBEIAEBVFastVertex2ShapeScaling@Cm@2@@Z 0000000180027f80 f   GuConvexHelper.obj
 0001:000270e0       ?getConvexData@Gu@physx@@YA_NAEBVGeometryUnion@12@AEAVFastVertex2ShapeScaling@Cm@2@AEAVPxBounds3@2@AEAUPolygonalData@12@@Z 00000001800280e0 f   GuConvexHelper.obj
 0001:000271c0       ?findUniqueConvexEdges@Gu@physx@@YAIIPEIAUConvexEdge@12@IPEIBUHullPolygonData@12@PEIBE@Z 00000001800281c0 f   GuConvexHelper.obj
 0001:00027300       ?transformFast@PxBounds3@physx@@SA?AV12@AEBVPxMat33@2@AEBV12@@Z 0000000180028300 f i GuConvexHelper.obj
 0001:00027520       ?exportExtraData@ConvexMesh@Gu@physx@@UEAAXAEAVPxSerializationContext@3@@Z 0000000180028520 f   GuConvexMesh.obj
 0001:000275d0       ?importExtraData@ConvexMesh@Gu@physx@@QEAAXAEAVPxDeserializationContext@3@@Z 00000001800285d0 f   GuConvexMesh.obj
 0001:00027670       ?onRefCountZero@ConvexMesh@Gu@physx@@UEAAXXZ 0000000180028670 f   GuConvexMesh.obj
 0001:00027750       ?createObject@ConvexMesh@Gu@physx@@SAPEAV123@AEAPEAEAEAVPxDeserializationContext@3@@Z 0000000180028750 f   GuConvexMesh.obj
 0001:000277d0       ??0ConvexMesh@Gu@physx@@QEAA@XZ 00000001800287d0 f   GuConvexMesh.obj
 0001:000278a0       ?load@ConvexMesh@Gu@physx@@QEAA_NAEAVPxInputStream@3@@Z 00000001800288a0 f   GuConvexMesh.obj
 0001:00027b10       ?release@ConvexMesh@Gu@physx@@UEAAXXZ 0000000180028b10 f   GuConvexMesh.obj
 0001:00027b70       ?getPolygonData@ConvexMesh@Gu@physx@@UEBA_NIAEAUPxHullPolygon@3@@Z 0000000180028b70 f   GuConvexMesh.obj
 0001:00027bc0       ?getReferenceCount@ConvexMesh@Gu@physx@@UEBAIXZ 0000000180028bc0 f   GuConvexMesh.obj
 0001:00027bd0       ?getMassInformation@ConvexMesh@Gu@physx@@UEBAXAEAMAEAVPxMat33@3@AEAVPxVec3@3@@Z 0000000180028bd0 f   GuConvexMesh.obj
 0001:00027c50       ??1ConvexMesh@Gu@physx@@UEAA@XZ 0000000180028c50 f   GuConvexMesh.obj
 0001:00027ce0       ?debugVisualize@ConvexMesh@Gu@physx@@QEBAXAEAVRenderOutput@Cm@3@AEBVMatrix34@53@AEBVPxBounds3@3@_KMI@Z 0000000180028ce0 f   GuConvexMesh.obj
 0001:00028310       ??0ConvexMesh@Gu@physx@@QEAA@V?$PxFlags@W4Enum@PxBaseFlag@physx@@G@2@@Z 0000000180029310 f i GuConvexMesh.obj
 0001:00028360       ??0GuMeshFactory@physx@@QEAA@XZ 0000000180029360 f i GuConvexMesh.obj
 0001:000284c0       ??1PxConvexMesh@physx@@MEAA@XZ 00000001800294c0 f i GuConvexMesh.obj
 0001:000284d0       ??1RefCountable@Cm@physx@@UEAA@XZ 00000001800294d0 f i GuConvexMesh.obj
 0001:000284e0       ??_EConvexMesh@Gu@physx@@UEAAPEAXI@Z 00000001800294e0 f i GuConvexMesh.obj
 0001:00028658       ??_EConvexMesh@Gu@physx@@WBA@EAAPEAXI@Z 0000000180029658 f i GuConvexMesh.obj
 0001:00028670       ??_EGuMeshFactory@physx@@MEAAPEAXI@Z 0000000180029670 f i GuConvexMesh.obj
 0001:00028760       ??_EPxConvexMesh@physx@@MEAAPEAXI@Z 0000000180029760 f i GuConvexMesh.obj
 0001:000287f0       ??_GGuMeshFactory@physx@@MEAAPEAXI@Z 00000001800297f0 f i GuConvexMesh.obj
 0001:00028850       ??_GRefCountable@Cm@physx@@UEAAPEAXI@Z 0000000180029850 f i GuConvexMesh.obj
 0001:00028850       ??_ERefCountable@Cm@physx@@UEAAPEAXI@Z 0000000180029850 f i GuConvexMesh.obj
 0001:00028b80       ?getConcreteTypeName@PxConvexMesh@physx@@UEBAPEBDXZ 0000000180029b80 f i GuConvexMesh.obj
 0001:00028b90       ?getIndexBuffer@ConvexMesh@Gu@physx@@UEBAPEBEXZ 0000000180029b90 f i GuConvexMesh.obj
 0001:00028bc0       ?getLocalBounds@ConvexMesh@Gu@physx@@UEBA?AVPxBounds3@3@XZ 0000000180029bc0 f i GuConvexMesh.obj
 0001:00028bf0       ?getNbPolygons@ConvexMesh@Gu@physx@@UEBAIXZ 0000000180029bf0 f i GuConvexMesh.obj
 0001:00028c00       ?getNbVertices@ConvexMesh@Gu@physx@@UEBAIXZ 0000000180029c00 f i GuConvexMesh.obj
 0001:00028c10       ?getVertices@ConvexMesh@Gu@physx@@UEBAPEBVPxVec3@3@XZ 0000000180029c10 f i GuConvexMesh.obj
 0001:00028c30       ?isKindOf@PxConvexMesh@physx@@MEBA_NPEBD@Z 0000000180029c30 f i GuConvexMesh.obj
 0001:00028c80       ?onRefCountZero@RefCountable@Cm@physx@@UEAAXXZ 0000000180029c80 f i GuConvexMesh.obj
 0001:00028ca0       ?requires@ConvexMesh@Gu@physx@@UEAAXAEAVPxProcessPxBaseCallback@3@@Z 0000000180029ca0 f i GuConvexMesh.obj
 0001:00028cb0       ?reserveInternal@?$HashBase@PEAVConvexMesh@Gu@physx@@PEAV123@U?$Hash@PEAVConvexMesh@Gu@physx@@@shdfnd@3@UGetKey@?$HashSetBase@PEAVConvexMesh@Gu@physx@@U?$Hash@PEAVConvexMesh@Gu@physx@@@shdfnd@3@VAllocator@53@$00@internal@53@VAllocator@53@$00@internal@shdfnd@physx@@AEAAXI@Z 0000000180029cb0 f i GuConvexMesh.obj
 0001:00028e60       ?reserveInternal@?$HashBase@PEAVHeightField@Gu@physx@@PEAV123@U?$Hash@PEAVHeightField@Gu@physx@@@shdfnd@3@UGetKey@?$HashSetBase@PEAVHeightField@Gu@physx@@U?$Hash@PEAVHeightField@Gu@physx@@@shdfnd@3@VAllocator@53@$00@internal@53@VAllocator@53@$00@internal@shdfnd@physx@@AEAAXI@Z 0000000180029e60 f i GuConvexMesh.obj
 0001:00029010       ?reserveInternal@?$HashBase@PEAVTriangleMesh@Gu@physx@@PEAV123@U?$Hash@PEAVTriangleMesh@Gu@physx@@@shdfnd@3@UGetKey@?$HashSetBase@PEAVTriangleMesh@Gu@physx@@U?$Hash@PEAVTriangleMesh@Gu@physx@@@shdfnd@3@VAllocator@53@$00@internal@53@VAllocator@53@$00@internal@shdfnd@physx@@AEAAXI@Z 000000018002a010 f i GuConvexMesh.obj
 0001:000291c0       ?computeHullOBB@Gu@physx@@YAXAEAVBox@12@AEBVPxBounds3@2@MAEBVPxTransform@2@AEBVMatrix34@Cm@2@3AEBVFastVertex2ShapeScaling@72@_N@Z 000000018002a1c0 f   GuConvexUtilsInternal.obj
 0001:000297f0       ?computeVertexSpaceOBB@Gu@physx@@YAXAEAVBox@12@AEBV312@AEBVPxTransform@2@AEBVPxMeshScale@2@@Z 000000018002a7f0 f   GuConvexUtilsInternal.obj
 0001:00029ff0       ?computeOBBAroundConvex@Gu@physx@@YAXAEAVBox@12@AEBVPxConvexMeshGeometry@2@PEBVPxConvexMesh@2@AEBVPxTransform@2@@Z 000000018002aff0 f   GuConvexUtilsInternal.obj
 0001:0002a8e0       ?rotate@physx@@YAXAEBVBox@Gu@1@AEBVMatrix34@Cm@1@AEAV231@@Z 000000018002b8e0 f i GuConvexUtilsInternal.obj
 0001:0002ac00       ?transform@physx@@YA?AVBox@Gu@1@AEBVMatrix34@Cm@1@AEBV231@@Z 000000018002bc00 f i GuConvexUtilsInternal.obj
 0001:0002ae80       ?CubemapLookup@physx@@YA?AW4CubeIndex@1@AEBVPxVec3@1@AEAM1@Z 000000018002be80 f   GuCubeIndex.obj
 0001:0002af30       ?localSearch@physx@@YAXAEAIAEBVPxVec3@1@PEBV21@PEBUBigConvexRawData@Gu@1@@Z 000000018002bf30 f   GuHillClimbing.obj
 0001:0002b060       ??0PolygonalBox@Gu@physx@@QEAA@AEBVPxVec3@2@@Z 000000018002c060 f   GuShapeConvex.obj
 0001:0002b260       ?getPolygonalData@PolygonalBox@Gu@physx@@QEBAXPEIAUPolygonalData@23@@Z 000000018002c260 f   GuShapeConvex.obj
 0001:0002b2d0       ?getPolygonalData_Convex@Gu@physx@@YAXPEIAUPolygonalData@12@PEIBUConvexHullData@12@AEBVFastVertex2ShapeScaling@Cm@2@@Z 000000018002c2d0 f   GuShapeConvex.obj
 0001:0002c2d0       ??0HullPolygonData@Gu@physx@@QEAA@XZ 000000018002d2d0 f i GuShapeConvex.obj
 0001:0002c400       ?distancePointBoxSquared@Gu@physx@@YAMAEBVPxVec3@2@00AEBVPxMat33@2@PEAV32@@Z 000000018002d400 f   GuDistancePointBox.obj
 0001:0002c550       ?distancePointSegmentSquared@Gu@physx@@YAMAEBVPxVec3@2@00PEAM@Z 000000018002d550 f   GuDistancePointSegment.obj
 0001:0002c660       ?closestPtPointTriangle@Gu@physx@@YA?AVPxVec3@2@AEBV32@000AEAM1@Z 000000018002d660 f   GuDistancePointTriangle.obj
 0001:0002cb70       ?distancePointTriangleSquared@Gu@physx@@YA?AT__m128@@AEBT3@000AEAT3@11@Z 000000018002db70 f   GuDistancePointTriangle.obj
 0001:0002cff0       ?distanceSegmentBoxSquared@Gu@physx@@YAMAEBVPxVec3@2@000AEBVPxMat33@2@PEAMPEAV32@@Z 000000018002dff0 f   GuDistanceSegmentBox.obj
 0001:0002e2b0       ?distanceSegmentSegmentSquaredOLD@Gu@physx@@YAMAEBVPxVec3@2@000PEAM1@Z 000000018002f2b0 f   GuDistanceSegmentSegment.obj
 0001:0002e370       ?distanceSegmentSegmentSquared2@Gu@physx@@YAMAEBVSegment@12@0PEAM1@Z 000000018002f370 f   GuDistanceSegmentSegment.obj
 0001:0002e670       ?distanceSegmentSegmentSquared@Gu@physx@@YA?AT__m128@@AEBT3@000AEAT3@1@Z 000000018002f670 f   GuDistanceSegmentSegment.obj
 0001:0002e890       ?distanceSegmentSegmentSquared4@Gu@physx@@YA?AT__m128@@AEBT3@000000000AEAT3@1@Z 000000018002f890 f   GuDistanceSegmentSegment.obj
 0001:0002ec30       ?distanceSegmentSegmentSquared4@Gu@physx@@YA?AT__m128@@AEBT3@000000AEAT3@1PEAT3@@Z 000000018002fc30 f   GuDistanceSegmentSegment.obj
 0001:0002f8f0       ?distanceSegmentTriangleSquared@Gu@physx@@YAMAEBVPxVec3@2@0000PEAM11@Z 00000001800308f0 f   GuDistanceSegmentTriangle.obj
 0001:00031300       ?distanceSegmentTriangleSquared@Gu@physx@@YA?AT__m128@@AEBT3@0000AEAT3@1@Z 0000000180032300 f   GuDistanceSegmentTriangle.obj
 0001:00031a90       ?sweepBoxBox@Gu@physx@@YA_NAEBVBox@12@0AEBVPxVec3@2@MAEAV42@2AEAMV?$PxFlags@W4Enum@PxHitFlag@physx@@G@2@@Z 0000000180032a90 f   GuSweepBoxBox.obj
 0001:000331c0       ??0InternalTriangleMesh@physx@@QEAA@AEBV01@@Z 00000001800341c0 f i GuSweepBoxBox.obj
 0001:00033250       ??0InternalTriangleMesh@physx@@QEAA@AEBW4PxEMPTY@1@@Z 0000000180034250 f i GuSweepBoxBox.obj
 0001:00033290       ??0InternalTriangleMeshData@Gu@physx@@QEAA@AEBU012@@Z 0000000180034290 f i GuSweepBoxBox.obj
 0001:000333d0       ??0TriangleMesh@Gu@physx@@QEAA@V?$PxFlags@W4Enum@PxBaseFlag@physx@@G@2@@Z 00000001800343d0 f i GuSweepBoxBox.obj
 0001:00033450       ??4InternalTriangleMesh@physx@@QEAAAEAV01@AEBV01@@Z 0000000180034450 f i GuSweepBoxBox.obj
 0001:000334e0       ??4InternalTriangleMeshData@Gu@physx@@QEAAAEAU012@AEBU012@@Z 00000001800344e0 f i GuSweepBoxBox.obj
 0001:00033620       ??_EPxTriangleMesh@physx@@MEAAPEAXI@Z 0000000180034620 f i GuSweepBoxBox.obj
 0001:000336b0       ??_ETriangleMesh@Gu@physx@@UEAAPEAXI@Z 00000001800346b0 f i GuSweepBoxBox.obj
 0001:000337a0       ??_ETriangleMesh@Gu@physx@@WBA@EAAPEAXI@Z 00000001800347a0 f i GuSweepBoxBox.obj
 0001:000337b0       ?getAdjacencies@InternalTriangleMesh@physx@@QEBAPEBIXZ 00000001800347b0 f i GuSweepBoxBox.obj
 0001:000337c0       ?getCollisionModel@InternalTriangleMesh@physx@@QEBAAEBVRTreeMidphase@Gu@2@XZ 00000001800347c0 f i GuSweepBoxBox.obj
 0001:000337d0       ?getConvexEdgeThreshold@InternalTriangleMesh@physx@@QEBAMXZ 00000001800347d0 f i GuSweepBoxBox.obj
 0001:000337e0       ?getFaceRemap@InternalTriangleMesh@physx@@QEBAPEBIXZ 00000001800347e0 f i GuSweepBoxBox.obj
 0001:000337f0       ?getLocalBounds@TriangleMesh@Gu@physx@@UEBA?AVPxBounds3@3@XZ 00000001800347f0 f i GuSweepBoxBox.obj
 0001:00033830       ?getMaterials@InternalTriangleMesh@physx@@QEBAPEBGXZ 0000000180034830 f i GuSweepBoxBox.obj
 0001:00033840       ?getMeshInterface@InternalTriangleMesh@physx@@QEBAAEBVMeshInterface@Gu@2@XZ 0000000180034840 f i GuSweepBoxBox.obj
 0001:00033850       ?getNbTriangles@TriangleMesh@Gu@physx@@UEBAIXZ 0000000180034850 f i GuSweepBoxBox.obj
 0001:00033860       ?getNbVertices@TriangleMesh@Gu@physx@@UEBAIXZ 0000000180034860 f i GuSweepBoxBox.obj
 0001:00033870       ?getNumTriangles@InternalTriangleMesh@physx@@QEBAIXZ 0000000180034870 f i GuSweepBoxBox.obj
 0001:00033880       ?getNumVertices@InternalTriangleMesh@physx@@QEBAIXZ 0000000180034880 f i GuSweepBoxBox.obj
 0001:00033890       ?getTriangleMaterialIndex@TriangleMesh@Gu@physx@@UEBAGI@Z 0000000180034890 f i GuSweepBoxBox.obj
 0001:000338b0       ?getTriangleMeshFlags@InternalTriangleMesh@physx@@QEBA?AV?$PxFlags@W4Enum@PxTriangleMeshFlag@physx@@E@2@XZ 00000001800348b0 f i GuSweepBoxBox.obj
 0001:000338c0       ?getTriangleMeshFlags@TriangleMesh@Gu@physx@@UEBA?AV?$PxFlags@W4Enum@PxTriangleMeshFlag@physx@@E@3@XZ 00000001800348c0 f i GuSweepBoxBox.obj
 0001:000338d0       ?getTriangles@InternalTriangleMesh@physx@@QEBAPEBXXZ 00000001800348d0 f i GuSweepBoxBox.obj
 0001:000338e0       ?getTriangles@TriangleMesh@Gu@physx@@UEBAPEBXXZ 00000001800348e0 f i GuSweepBoxBox.obj
 0001:000338f0       ?getTrianglesRemap@TriangleMesh@Gu@physx@@UEBAPEBIXZ 00000001800348f0 f i GuSweepBoxBox.obj
 0001:00033900       ?getTrigSharedEdgeFlagsFromData@InternalTriangleMesh@physx@@QEBAII@Z 0000000180034900 f i GuSweepBoxBox.obj
 0001:00033910       ?getVertices@InternalTriangleMesh@physx@@QEBAPEBVPxVec3@2@XZ 0000000180034910 f i GuSweepBoxBox.obj
 0001:00033920       ?getVertices@TriangleMesh@Gu@physx@@UEBAPEBVPxVec3@3@XZ 0000000180034920 f i GuSweepBoxBox.obj
 0001:00033930       ?has16BitIndices@InternalTriangleMesh@physx@@QEBA_NXZ 0000000180034930 f i GuSweepBoxBox.obj
 0001:00033940       ?requires@TriangleMesh@Gu@physx@@UEAAXAEAVPxProcessPxBaseCallback@3@@Z 0000000180034940 f i GuSweepBoxBox.obj
 0001:00033950       ?setTriangleAdjacency@InternalTriangleMesh@physx@@QEAAXIII@Z 0000000180034950 f i GuSweepBoxBox.obj
 0001:00033970       ?setTrigSharedEdgeFlag@InternalTriangleMesh@physx@@QEAAXII@Z 0000000180034970 f i GuSweepBoxBox.obj
 0001:00033990       ?sweepBoxSphere@Gu@physx@@YA_NAEBVBox@12@MAEBVPxVec3@2@1MAEAMAEAV42@V?$PxFlags@W4Enum@PxHitFlag@physx@@G@2@@Z 0000000180034990 f   GuSweepBoxSphere.obj
 0001:00034270       ?sweepBoxTriangle@Gu@physx@@YA_NAEBVPxTriangle@2@AEBVPxBounds3@2@AEBVPxVec3@2@2AEAV52@3AEAM@Z 0000000180035270 f   GuSweepBoxTriangle_FeatureBased.obj
 0001:00035450       ?triBoxSweepTestBoxSpace@Gu@physx@@YAHAEBVPxTriangle@2@AEBVPxVec3@2@11MAEAM_N@Z 0000000180036450 f   GuSweepBoxTriangle_SAT.obj
 0001:00035e70       ?sweepCapsuleBox@Gu@physx@@YA_NAEBVCapsule@12@AEBVPxTransform@2@AEBVPxVec3@2@2MAEAV52@AEAM3V?$PxFlags@W4Enum@PxHitFlag@physx@@G@2@@Z 0000000180036e70 f   GuSweepCapsuleBox.obj
 0001:00036270       ??0PxTriangle@physx@@QEAA@XZ 0000000180037270 f i GuSweepCapsuleBox.obj
 0001:00036280       ??1PxTriangle@physx@@QEAA@XZ 0000000180037280 f i GuSweepCapsuleBox.obj
 0001:000374f0       ?sweepCapsuleCapsule@Gu@physx@@YA_NAEBVCapsule@12@0AEBVPxVec3@2@MAEAMAEAV42@3IAEAG@Z 00000001800384f0 f   GuSweepCapsuleCapsule.obj
 0001:00038120       ??0Capsule@Gu@physx@@QEAA@XZ 0000000180039120 f i GuSweepCapsuleCapsule.obj
 0001:00038130       ??1Capsule@Gu@physx@@QEAA@XZ 0000000180039130 f i GuSweepCapsuleCapsule.obj
 0001:000383e0       ?sweepCapsuleTriangles@Gu@physx@@YA_NIPEIBVPxTriangle@2@AEBVCapsule@12@AEBVPxVec3@2@MPEIBIAEAV?$PxFlags@W4Enum@PxHitFlag@physx@@G@2@AEAMAEAV52@6AEAI6V62@_NPEBVBox@12@@Z 00000001800393e0 f   GuSweepCapsuleTriangle.obj
 0001:00039f30       ?sweepSphereCapsule@Gu@physx@@YA_NAEBVSphere@12@AEBVCapsule@12@AEBVPxVec3@2@MAEAMAEAV52@4V?$PxFlags@W4Enum@PxHitFlag@physx@@G@2@@Z 000000018003af30 f   GuSweepSphereCapsule.obj
 0001:0003a2e0       ?sweepSphereSphere@Gu@physx@@YA_NAEBVPxVec3@2@M0M0AEAMAEAV32@@Z 000000018003b2e0 f   GuSweepSphereSphere.obj
 0001:0003a690       ?sweepTriSphere@Gu@physx@@YA_NAEBVPxTriangle@2@AEBVPxVec3@2@1M1AEAM@Z 000000018003b690 f   GuSweepSphereTriangle.obj
 0001:0003b090       ?sweepSphereTriangles@Gu@physx@@YA_NIPEIBVPxTriangle@2@AEBVPxVec3@2@M1MPEIBIAEAV42@3AEAMAEAIAEAV?$PxFlags@W4Enum@PxHitFlag@physx@@G@2@3_N7@Z 000000018003c090 f   GuSweepSphereTriangle.obj
 0001:0003b870       ?computeSphereTriImpactData@Gu@physx@@YAXAEAVPxVec3@2@0AEBV32@1MAEBVPxTriangle@2@@Z 000000018003c870 f   GuSweepTriangleUtils.obj
 0001:0003bb10       ?computeBoxTriImpactData@Gu@physx@@YAXAEAVPxVec3@2@0AEBV32@111AEBVPxTriangle@2@@Z 000000018003cb10 f   GuSweepTriangleUtils.obj
 0001:0003bd90       ?computeEdgeEdgeNormal@Gu@physx@@YAXAEAVPxVec3@2@AEBV32@1111M@Z 000000018003cd90 f   GuSweepTriangleUtils.obj
 0001:0003c2c0       ?epaPenetration@Gu@physx@@YAIAEBVConvexV@12@0PEAVEPASupportMapPair@12@PEIAE2EAEAT__m128@@333_N@Z 000000018003d2c0 f   GuEPA.obj
 0001:0003d3e0       ?silhouette@Facet@Gu@physx@@QEAAXAEBT__m128@@PEIBT4@1AEAVEdgeBuffer@23@AEAV?$InlineDeferredIDPool@$0EA@@Cm@3@@Z 000000018003e3e0 f   GuEPA.obj
 0001:0003d5c0       ?PenetrationDepth@EPA@Gu@physx@@QEAAIAEBVConvexV@23@0PEAVEPASupportMapPair@23@PEIBT__m128@@22HAEAT6@333_N@Z 000000018003e5c0 f   GuEPA.obj
 0001:0003df70       ?expandPoint@EPA@Gu@physx@@QEAA_NPEAVEPASupportMapPair@23@AEAHAEBT__m128@@2@Z 000000018003ef70 f   GuEPA.obj
 0001:0003e000       ?expandSegment@EPA@Gu@physx@@QEAA_NPEAVEPASupportMapPair@23@AEAHAEBT__m128@@2@Z 000000018003f000 f   GuEPA.obj
 0001:0003e380       ?expandTriangle@EPA@Gu@physx@@QEAA_NAEAHAEBT__m128@@1@Z 000000018003f380 f   GuEPA.obj
 0001:0003e440       ?addFacet@EPA@Gu@physx@@QEAAPEAVFacet@23@IIIAEBT__m128@@0@Z 000000018003f440 f   GuEPA.obj
 0001:0003e6d0       ??0Edge@Gu@physx@@QEAA@XZ  000000018003f6d0 f i GuEPA.obj
 0001:0003e6e0       ??0Facet@Gu@physx@@QEAA@XZ 000000018003f6e0 f i GuEPA.obj
 0001:0003eab0       ?EPALocalPenetration@Gu@physx@@YAIAEBVCapsuleV@12@AEBVBoxV@12@AEAT__m128@@222PEIAE3AEAE_N@Z 000000018003fab0 f   GuEPAPenetrationWrapper.obj
 0001:0003eb40       ?EPALocalPenetration@Gu@physx@@YAIAEBVCapsuleV@12@AEBVConvexHullV@12@AEAT__m128@@222PEIAE3AEAE_N@Z 000000018003fb40 f   GuEPAPenetrationWrapper.obj
 0001:0003ebd0       ?EPALocalPenetration@Gu@physx@@YAIAEBVTriangleV@12@AEBVBoxV@12@AEAT__m128@@222PEIAE3AEAE_N@Z 000000018003fbd0 f   GuEPAPenetrationWrapper.obj
 0001:0003ec60       ?EPALocalPenetration@Gu@physx@@YAIAEBVTriangleV@12@AEBVConvexHullV@12@AEAT__m128@@222PEIAE3AEAE_N@Z 000000018003fc60 f   GuEPAPenetrationWrapper.obj
 0001:0003ecf0       ?EPARelativePenetration@Gu@physx@@YAIAEBVBoxV@12@0AEBVPsMatTransformV@aos@shdfnd@2@AEAT__m128@@222PEIAE3AEAE_N@Z 000000018003fcf0 f   GuEPAPenetrationWrapper.obj
 0001:0003ed90       ?EPARelativePenetration@Gu@physx@@YAIAEBVBoxV@12@AEBVConvexHullV@12@AEBVPsMatTransformV@aos@shdfnd@2@AEAT__m128@@333PEIAE4AEAE_N@Z 000000018003fd90 f   GuEPAPenetrationWrapper.obj
 0001:0003ee30       ?EPARelativePenetration@Gu@physx@@YAIAEBVConvexHullV@12@0AEBVPsMatTransformV@aos@shdfnd@2@AEAT__m128@@222PEIAE3AEAE_N@Z 000000018003fe30 f   GuEPAPenetrationWrapper.obj
 0001:0003eed0       ?EPARelativePenetration@Gu@physx@@YAIAEBVConvexHullNoScaleV@12@0AEBVPsMatTransformV@aos@shdfnd@2@AEAT__m128@@222PEIAE3AEAE_N@Z 000000018003fed0 f   GuEPAPenetrationWrapper.obj
 0001:0003ef70       ?EPARelativePenetration@Gu@physx@@YAIAEBVConvexHullNoScaleV@12@AEBVConvexHullV@12@AEBVPsMatTransformV@aos@shdfnd@2@AEAT__m128@@333PEIAE4AEAE_N@Z 000000018003ff70 f   GuEPAPenetrationWrapper.obj
 0001:0003f010       ?EPARelativePenetration@Gu@physx@@YAIAEBVConvexHullV@12@AEBVConvexHullNoScaleV@12@AEBVPsMatTransformV@aos@shdfnd@2@AEAT__m128@@333PEIAE4AEAE_N@Z 0000000180040010 f   GuEPAPenetrationWrapper.obj
 0001:0003f0a0       ??1EPASupportMapPair@Gu@physx@@UEAA@XZ 00000001800400a0 f i GuEPAPenetrationWrapper.obj
 0001:0003f0b0       ??_E?$EPASupportMapPairLocalImpl@VCapsuleV@Gu@physx@@VBoxV@23@@Gu@physx@@UEAAPEAXI@Z 00000001800400b0 f i GuEPAPenetrationWrapper.obj
 0001:0003f0b0       ??_G?$EPASupportMapPairLocalImpl@VCapsuleV@Gu@physx@@VBoxV@23@@Gu@physx@@UEAAPEAXI@Z 00000001800400b0 f i GuEPAPenetrationWrapper.obj
 0001:0003f0e0       ??_G?$EPASupportMapPairLocalImpl@VCapsuleV@Gu@physx@@VConvexHullV@23@@Gu@physx@@UEAAPEAXI@Z 00000001800400e0 f i GuEPAPenetrationWrapper.obj
 0001:0003f0e0       ??_E?$EPASupportMapPairLocalImpl@VCapsuleV@Gu@physx@@VConvexHullV@23@@Gu@physx@@UEAAPEAXI@Z 00000001800400e0 f i GuEPAPenetrationWrapper.obj
 0001:0003f110       ??_E?$EPASupportMapPairLocalImpl@VTriangleV@Gu@physx@@VBoxV@23@@Gu@physx@@UEAAPEAXI@Z 0000000180040110 f i GuEPAPenetrationWrapper.obj
 0001:0003f110       ??_G?$EPASupportMapPairLocalImpl@VTriangleV@Gu@physx@@VBoxV@23@@Gu@physx@@UEAAPEAXI@Z 0000000180040110 f i GuEPAPenetrationWrapper.obj
 0001:0003f140       ??_G?$EPASupportMapPairLocalImpl@VTriangleV@Gu@physx@@VConvexHullV@23@@Gu@physx@@UEAAPEAXI@Z 0000000180040140 f i GuEPAPenetrationWrapper.obj
 0001:0003f140       ??_E?$EPASupportMapPairLocalImpl@VTriangleV@Gu@physx@@VConvexHullV@23@@Gu@physx@@UEAAPEAXI@Z 0000000180040140 f i GuEPAPenetrationWrapper.obj
 0001:0003f170       ??_G?$EPASupportMapPairRelativeImpl@VBoxV@Gu@physx@@V123@@Gu@physx@@UEAAPEAXI@Z 0000000180040170 f i GuEPAPenetrationWrapper.obj
 0001:0003f170       ??_E?$EPASupportMapPairRelativeImpl@VBoxV@Gu@physx@@V123@@Gu@physx@@UEAAPEAXI@Z 0000000180040170 f i GuEPAPenetrationWrapper.obj
 0001:0003f1a0       ??_E?$EPASupportMapPairRelativeImpl@VBoxV@Gu@physx@@VConvexHullV@23@@Gu@physx@@UEAAPEAXI@Z 00000001800401a0 f i GuEPAPenetrationWrapper.obj
 0001:0003f1a0       ??_G?$EPASupportMapPairRelativeImpl@VBoxV@Gu@physx@@VConvexHullV@23@@Gu@physx@@UEAAPEAXI@Z 00000001800401a0 f i GuEPAPenetrationWrapper.obj
 0001:0003f1d0       ??_G?$EPASupportMapPairRelativeImpl@VConvexHullNoScaleV@Gu@physx@@V123@@Gu@physx@@UEAAPEAXI@Z 00000001800401d0 f i GuEPAPenetrationWrapper.obj
 0001:0003f1d0       ??_E?$EPASupportMapPairRelativeImpl@VConvexHullNoScaleV@Gu@physx@@V123@@Gu@physx@@UEAAPEAXI@Z 00000001800401d0 f i GuEPAPenetrationWrapper.obj
 0001:0003f200       ??_G?$EPASupportMapPairRelativeImpl@VConvexHullNoScaleV@Gu@physx@@VConvexHullV@23@@Gu@physx@@UEAAPEAXI@Z 0000000180040200 f i GuEPAPenetrationWrapper.obj
 0001:0003f200       ??_E?$EPASupportMapPairRelativeImpl@VConvexHullNoScaleV@Gu@physx@@VConvexHullV@23@@Gu@physx@@UEAAPEAXI@Z 0000000180040200 f i GuEPAPenetrationWrapper.obj
 0001:0003f230       ??_G?$EPASupportMapPairRelativeImpl@VConvexHullV@Gu@physx@@V123@@Gu@physx@@UEAAPEAXI@Z 0000000180040230 f i GuEPAPenetrationWrapper.obj
 0001:0003f230       ??_E?$EPASupportMapPairRelativeImpl@VConvexHullV@Gu@physx@@V123@@Gu@physx@@UEAAPEAXI@Z 0000000180040230 f i GuEPAPenetrationWrapper.obj
 0001:0003f260       ??_E?$EPASupportMapPairRelativeImpl@VConvexHullV@Gu@physx@@VConvexHullNoScaleV@23@@Gu@physx@@UEAAPEAXI@Z 0000000180040260 f i GuEPAPenetrationWrapper.obj
 0001:0003f260       ??_G?$EPASupportMapPairRelativeImpl@VConvexHullV@Gu@physx@@VConvexHullNoScaleV@23@@Gu@physx@@UEAAPEAXI@Z 0000000180040260 f i GuEPAPenetrationWrapper.obj
 0001:0003f290       ??_GEPASupportMapPair@Gu@physx@@UEAAPEAXI@Z 0000000180040290 f i GuEPAPenetrationWrapper.obj
 0001:0003f290       ??_EEPASupportMapPair@Gu@physx@@UEAAPEAXI@Z 0000000180040290 f i GuEPAPenetrationWrapper.obj
 0001:0003f2c0       ?doSupport@?$EPASupportMapPairLocalImpl@VCapsuleV@Gu@physx@@VBoxV@23@@Gu@physx@@UEBAXAEBT__m128@@AEAT4@11@Z 00000001800402c0 f i GuEPAPenetrationWrapper.obj
 0001:0003f380       ?doSupport@?$EPASupportMapPairLocalImpl@VCapsuleV@Gu@physx@@VConvexHullV@23@@Gu@physx@@UEBAXAEBT__m128@@AEAT4@11@Z 0000000180040380 f i GuEPAPenetrationWrapper.obj
 0001:0003f7b0       ?doSupport@?$EPASupportMapPairLocalImpl@VTriangleV@Gu@physx@@VBoxV@23@@Gu@physx@@UEBAXAEBT__m128@@AEAT4@11@Z 00000001800407b0 f i GuEPAPenetrationWrapper.obj
 0001:0003f8b0       ?doSupport@?$EPASupportMapPairLocalImpl@VTriangleV@Gu@physx@@VConvexHullV@23@@Gu@physx@@UEBAXAEBT__m128@@AEAT4@11@Z 00000001800408b0 f i GuEPAPenetrationWrapper.obj
 0001:0003fd40       ?doSupport@?$EPASupportMapPairRelativeImpl@VBoxV@Gu@physx@@V123@@Gu@physx@@UEBAXAEBT__m128@@AEAT4@11@Z 0000000180040d40 f i GuEPAPenetrationWrapper.obj
 0001:0003fe50       ?doSupport@?$EPASupportMapPairRelativeImpl@VBoxV@Gu@physx@@VConvexHullV@23@@Gu@physx@@UEBAXAEBT__m128@@AEAT4@11@Z 0000000180040e50 f i GuEPAPenetrationWrapper.obj
 0001:000402f0       ?doSupport@?$EPASupportMapPairRelativeImpl@VConvexHullNoScaleV@Gu@physx@@V123@@Gu@physx@@UEBAXAEBT__m128@@AEAT4@11@Z 00000001800412f0 f i GuEPAPenetrationWrapper.obj
 0001:00040940       ?doSupport@?$EPASupportMapPairRelativeImpl@VConvexHullNoScaleV@Gu@physx@@VConvexHullV@23@@Gu@physx@@UEBAXAEBT__m128@@AEAT4@11@Z 0000000180041940 f i GuEPAPenetrationWrapper.obj
 0001:00041030       ?doSupport@?$EPASupportMapPairRelativeImpl@VConvexHullV@Gu@physx@@V123@@Gu@physx@@UEBAXAEBT__m128@@AEAT4@11@Z 0000000180042030 f i GuEPAPenetrationWrapper.obj
 0001:00041790       ?doSupport@?$EPASupportMapPairRelativeImpl@VConvexHullV@Gu@physx@@VConvexHullNoScaleV@23@@Gu@physx@@UEBAXAEBT__m128@@AEAT4@11@Z 0000000180042790 f i GuEPAPenetrationWrapper.obj
 0001:00041e60       ?doWarmStartSupport@?$EPASupportMapPairLocalImpl@VCapsuleV@Gu@physx@@VBoxV@23@@Gu@physx@@UEBAXHHAEAT__m128@@00@Z 0000000180042e60 f i GuEPAPenetrationWrapper.obj
 0001:00041ec0       ?doWarmStartSupport@?$EPASupportMapPairLocalImpl@VCapsuleV@Gu@physx@@VConvexHullV@23@@Gu@physx@@UEBAXHHAEAT__m128@@00@Z 0000000180042ec0 f i GuEPAPenetrationWrapper.obj
 0001:00041f50       ?doWarmStartSupport@?$EPASupportMapPairLocalImpl@VTriangleV@Gu@physx@@VBoxV@23@@Gu@physx@@UEBAXHHAEAT__m128@@00@Z 0000000180042f50 f i GuEPAPenetrationWrapper.obj
 0001:00041fb0       ?doWarmStartSupport@?$EPASupportMapPairLocalImpl@VTriangleV@Gu@physx@@VConvexHullV@23@@Gu@physx@@UEBAXHHAEAT__m128@@00@Z 0000000180042fb0 f i GuEPAPenetrationWrapper.obj
 0001:00042040       ?doWarmStartSupport@?$EPASupportMapPairRelativeImpl@VBoxV@Gu@physx@@V123@@Gu@physx@@UEBAXHHAEAT__m128@@00@Z 0000000180043040 f i GuEPAPenetrationWrapper.obj
 0001:000420e0       ?doWarmStartSupport@?$EPASupportMapPairRelativeImpl@VBoxV@Gu@physx@@VConvexHullV@23@@Gu@physx@@UEBAXHHAEAT__m128@@00@Z 00000001800430e0 f i GuEPAPenetrationWrapper.obj
 0001:000421b0       ?doWarmStartSupport@?$EPASupportMapPairRelativeImpl@VConvexHullNoScaleV@Gu@physx@@V123@@Gu@physx@@UEBAXHHAEAT__m128@@00@Z 00000001800431b0 f i GuEPAPenetrationWrapper.obj
 0001:00042260       ?doWarmStartSupport@?$EPASupportMapPairRelativeImpl@VConvexHullNoScaleV@Gu@physx@@VConvexHullV@23@@Gu@physx@@UEBAXHHAEAT__m128@@00@Z 0000000180043260 f i GuEPAPenetrationWrapper.obj
 0001:00042330       ?doWarmStartSupport@?$EPASupportMapPairRelativeImpl@VConvexHullV@Gu@physx@@V123@@Gu@physx@@UEBAXHHAEAT__m128@@00@Z 0000000180043330 f i GuEPAPenetrationWrapper.obj
 0001:00042430       ?doWarmStartSupport@?$EPASupportMapPairRelativeImpl@VConvexHullV@Gu@physx@@VConvexHullNoScaleV@23@@Gu@physx@@UEBAXHHAEAT__m128@@00@Z 0000000180043430 f i GuEPAPenetrationWrapper.obj
 0001:00042500       ?getDir@?$EPASupportMapPairLocalImpl@VCapsuleV@Gu@physx@@VBoxV@23@@Gu@physx@@UEBA?AT__m128@@XZ 0000000180043500 f i GuEPAPenetrationWrapper.obj
 0001:00042520       ?getDir@?$EPASupportMapPairLocalImpl@VCapsuleV@Gu@physx@@VConvexHullV@23@@Gu@physx@@UEBA?AT__m128@@XZ 0000000180043520 f i GuEPAPenetrationWrapper.obj
 0001:00042540       ?getDir@?$EPASupportMapPairLocalImpl@VTriangleV@Gu@physx@@VBoxV@23@@Gu@physx@@UEBA?AT__m128@@XZ 0000000180043540 f i GuEPAPenetrationWrapper.obj
 0001:00042560       ?getDir@?$EPASupportMapPairLocalImpl@VTriangleV@Gu@physx@@VConvexHullV@23@@Gu@physx@@UEBA?AT__m128@@XZ 0000000180043560 f i GuEPAPenetrationWrapper.obj
 0001:00042580       ?getDir@?$EPASupportMapPairRelativeImpl@VBoxV@Gu@physx@@V123@@Gu@physx@@UEBA?AT__m128@@XZ 0000000180043580 f i GuEPAPenetrationWrapper.obj
 0001:00042590       ?getDir@?$EPASupportMapPairRelativeImpl@VBoxV@Gu@physx@@VConvexHullV@23@@Gu@physx@@UEBA?AT__m128@@XZ 0000000180043590 f i GuEPAPenetrationWrapper.obj
 0001:000425a0       ?getDir@?$EPASupportMapPairRelativeImpl@VConvexHullNoScaleV@Gu@physx@@V123@@Gu@physx@@UEBA?AT__m128@@XZ 00000001800435a0 f i GuEPAPenetrationWrapper.obj
 0001:000425b0       ?getDir@?$EPASupportMapPairRelativeImpl@VConvexHullNoScaleV@Gu@physx@@VConvexHullV@23@@Gu@physx@@UEBA?AT__m128@@XZ 00000001800435b0 f i GuEPAPenetrationWrapper.obj
 0001:000425c0       ?getDir@?$EPASupportMapPairRelativeImpl@VConvexHullV@Gu@physx@@V123@@Gu@physx@@UEBA?AT__m128@@XZ 00000001800435c0 f i GuEPAPenetrationWrapper.obj
 0001:000425d0       ?getDir@?$EPASupportMapPairRelativeImpl@VConvexHullV@Gu@physx@@VConvexHullNoScaleV@23@@Gu@physx@@UEBA?AT__m128@@XZ 00000001800435d0 f i GuEPAPenetrationWrapper.obj
 0001:000425e0       ?gjkRelativeFallback@Gu@physx@@YAIAEBVConvexV@12@0PEAVSupportMap@12@1AEBT__m128@@AEAT5@333@Z 00000001800435e0 f   GuGJKFallBack.obj
 0001:00042a50       ?doSupportMappingPair@Gu@physx@@YA?AT__m128@@AEBVConvexV@12@0PEAVSupportMap@12@1T3@PEAT3@33IAEAUSimplexStack@12@@Z 0000000180043a50 f   GuGJKFallBack.obj
 0001:00042cf0       ?pushSimplex@SimplexStack@Gu@physx@@QEAAXPEAT__m128@@00I@Z 0000000180043cf0 f i GuGJKFallBack.obj
 0001:00042db0       ?GJKLocalPenetration@Gu@physx@@YAIAEBVCapsuleV@12@AEBVBoxV@12@AEBT__m128@@AEAT5@333PEIAE4AEAE_N@Z 0000000180043db0 f   GuGJKPenetrationWrapper.obj
 0001:00044600       ?GJKLocalPenetration@Gu@physx@@YAIAEBVCapsuleV@12@AEBVShrunkBoxV@12@AEBT__m128@@AEAT5@333PEIAE4AEAE_N@Z 0000000180045600 f   GuGJKPenetrationWrapper.obj
 0001:00045e30       ?GJKLocalPenetration@Gu@physx@@YAIAEBVCapsuleV@12@AEBVConvexHullV@12@AEBT__m128@@AEAT5@333PEIAE4AEAE_N@Z 0000000180046e30 f   GuGJKPenetrationWrapper.obj
 0001:00047a00       ?GJKLocalPenetration@Gu@physx@@YAIAEBVCapsuleV@12@AEBVConvexHullNoScaleV@12@AEBT__m128@@AEAT5@333PEIAE4AEAE_N@Z 0000000180048a00 f   GuGJKPenetrationWrapper.obj
 0001:00049530       ?GJKLocalPenetration@Gu@physx@@YAIAEBVCapsuleV@12@AEBVShrunkConvexHullV@12@AEBT__m128@@AEAT5@333PEIAE4AEAE_N@Z 000000018004a530 f   GuGJKPenetrationWrapper.obj
 0001:0004b760       ?GJKLocalPenetration@Gu@physx@@YAIAEBVCapsuleV@12@AEBVShrunkConvexHullNoScaleV@12@AEBT__m128@@AEAT5@333PEIAE4AEAE_N@Z 000000018004c760 f   GuGJKPenetrationWrapper.obj
 0001:0004d770       ?GJKLocalPenetration@Gu@physx@@YAIAEBVTriangleV@12@AEBVBoxV@12@AEBT__m128@@AEAT5@333PEIAE4AEAE_N@Z 000000018004e770 f   GuGJKPenetrationWrapper.obj
 0001:0004efd0       ?GJKLocalPenetration@Gu@physx@@YAIAEBVTriangleV@12@AEBVConvexHullV@12@AEBT__m128@@AEAT5@333PEIAE4AEAE_N@Z 000000018004ffd0 f   GuGJKPenetrationWrapper.obj
 0001:00050be0       ?GJKLocalPenetration@Gu@physx@@YAIAEBVTriangleV@12@AEBVConvexHullNoScaleV@12@AEBT__m128@@AEAT5@333PEIAE4AEAE_N@Z 0000000180051be0 f   GuGJKPenetrationWrapper.obj
 0001:000527b0       ?GJKLocalPenetration@Gu@physx@@YAIAEBVTriangleV@12@0AEBT__m128@@AEAT4@222PEIAE3AEAE_N@Z 00000001800537b0 f   GuGJKPenetrationWrapper.obj
 0001:00054060       ?GJKRelativePenetration@Gu@physx@@YAIAEBVBoxV@12@0AEBVPsMatTransformV@aos@shdfnd@2@AEBT__m128@@AEAT7@333PEIAE4AEAE@Z 0000000180055060 f   GuGJKPenetrationWrapper.obj
 0001:000557f0       ?GJKRelativePenetration@Gu@physx@@YAIAEBVBoxV@12@AEBVConvexHullV@12@AEBVPsMatTransformV@aos@shdfnd@2@AEBT__m128@@AEAT8@444PEIAE5AEAE@Z 00000001800567f0 f   GuGJKPenetrationWrapper.obj
 0001:00057390       ?GJKRelativePenetration@Gu@physx@@YAIAEBVShrunkBoxV@12@0AEBVPsMatTransformV@aos@shdfnd@2@AEBT__m128@@AEAT7@333PEIAE4AEAE@Z 0000000180058390 f   GuGJKPenetrationWrapper.obj
 0001:00058b50       ?GJKRelativePenetration@Gu@physx@@YAIAEBVShrunkBoxV@12@AEBVShrunkConvexHullV@12@AEBVPsMatTransformV@aos@shdfnd@2@AEBT__m128@@AEAT8@444PEIAE5AEAE@Z 0000000180059b50 f   GuGJKPenetrationWrapper.obj
 0001:0005ad10       ?GJKRelativePenetration@Gu@physx@@YAIAEBVShrunkBoxV@12@AEBVShrunkConvexHullNoScaleV@12@AEBVPsMatTransformV@aos@shdfnd@2@AEBT__m128@@AEAT8@444PEIAE5AEAE@Z 000000018005bd10 f   GuGJKPenetrationWrapper.obj
 0001:0005cca0       ?GJKRelativePenetration@Gu@physx@@YAIAEBVConvexHullV@12@0AEBVPsMatTransformV@aos@shdfnd@2@AEBT__m128@@AEAT7@333PEIAE4AEAE@Z 000000018005dca0 f   GuGJKPenetrationWrapper.obj
 0001:0005eb70       ?GJKRelativePenetration@Gu@physx@@YAIAEBVShrunkConvexHullV@12@0AEBVPsMatTransformV@aos@shdfnd@2@AEBT__m128@@AEAT7@333PEIAE4AEAE@Z 000000018005fb70 f   GuGJKPenetrationWrapper.obj
 0001:00061560       ?GJKRelativePenetration@Gu@physx@@YAIAEBVShrunkConvexHullNoScaleV@12@0AEBVPsMatTransformV@aos@shdfnd@2@AEBT__m128@@AEAT7@333PEIAE4AEAE@Z 0000000180062560 f   GuGJKPenetrationWrapper.obj
 0001:00063be0       ?GJKRelativePenetration@Gu@physx@@YAIAEBVShrunkConvexHullNoScaleV@12@AEBVShrunkConvexHullV@12@AEBVPsMatTransformV@aos@shdfnd@2@AEBT__m128@@AEAT8@444PEIAE5AEAE@Z 0000000180064be0 f   GuGJKPenetrationWrapper.obj
 0001:00066470       ?GJKRelativePenetration@Gu@physx@@YAIAEBVShrunkConvexHullV@12@AEBVShrunkConvexHullNoScaleV@12@AEBVPsMatTransformV@aos@shdfnd@2@AEBT__m128@@AEAT8@444PEIAE5AEAE@Z 0000000180067470 f   GuGJKPenetrationWrapper.obj
 0001:00068c20       ?GJKRelativePenetration@Gu@physx@@YAIAEBVTriangleV@12@AEBVBoxV@12@AEBVPsMatTransformV@aos@shdfnd@2@AEBT__m128@@AEAT8@444@Z 0000000180069c20 f   GuGJKPenetrationWrapper.obj
 0001:00069aa0       ?GJKRelativePenetration@Gu@physx@@YAIAEBVTriangleV@12@AEBVCapsuleV@12@AEBVPsMatTransformV@aos@shdfnd@2@AEBT__m128@@AEAT8@444@Z 000000018006aaa0 f   GuGJKPenetrationWrapper.obj
 0001:0006a970       ?GJKRelativePenetration@Gu@physx@@YAIAEBVTriangleV@12@AEBVConvexHullV@12@AEBVPsMatTransformV@aos@shdfnd@2@AEBT__m128@@AEAT8@444@Z 000000018006b970 f   GuGJKPenetrationWrapper.obj
 0001:0006bbc0       ?GJKRelativePenetration@Gu@physx@@YAIAEBVCapsuleV@12@0AEBVPsMatTransformV@aos@shdfnd@2@AEBT__m128@@AEAT7@333@Z 000000018006cbc0 f   GuGJKPenetrationWrapper.obj
 0001:0006ca10       ?GJKRelativePenetration@Gu@physx@@YAIAEBVCapsuleV@12@AEBVBoxV@12@AEBVPsMatTransformV@aos@shdfnd@2@AEBT__m128@@AEAT8@444@Z 000000018006da10 f   GuGJKPenetrationWrapper.obj
 0001:0006d830       ?GJKRelativePenetration@Gu@physx@@YAIAEBVCapsuleV@12@AEBVConvexHullV@12@AEBVPsMatTransformV@aos@shdfnd@2@AEBT__m128@@AEAT8@444@Z 000000018006e830 f   GuGJKPenetrationWrapper.obj
 0001:0006e9e0       ?GJKRelativePenetration@Gu@physx@@YAIAEBVBoxV@12@0AEBVPsMatTransformV@aos@shdfnd@2@AEBT__m128@@AEAT7@333@Z 000000018006f9e0 f   GuGJKPenetrationWrapper.obj
 0001:0006f7c0       ?GJKRelativePenetration@Gu@physx@@YAIAEBVBoxV@12@AEBVConvexHullV@12@AEBVPsMatTransformV@aos@shdfnd@2@AEBT__m128@@AEAT8@444@Z 00000001800707c0 f   GuGJKPenetrationWrapper.obj
 0001:00070910       ?GJKRelativePenetration@Gu@physx@@YAIAEBVConvexHullV@12@0AEBVPsMatTransformV@aos@shdfnd@2@AEBT__m128@@AEAT7@333@Z 0000000180071910 f   GuGJKPenetrationWrapper.obj
 0001:00071d80       ?GJKRelativePenetration@Gu@physx@@YAIAEBVShrunkConvexHullV@12@0AEBVPsMatTransformV@aos@shdfnd@2@AEBT__m128@@AEAT7@333@Z 0000000180072d80 f   GuGJKPenetrationWrapper.obj
 0001:00073770       ?closestPtPointTetrahedron@Gu@physx@@YA?AT__m128@@PEIAT3@00AEAI@Z 0000000180074770 f   GuGJKSimplex.obj
 0001:000740e0       ?closestPtPointTetrahedron@Gu@physx@@YA?AT__m128@@PEIAT3@00PEIAH1AEAI@Z 00000001800750e0 f   GuGJKSimplex.obj
 0001:00075e70       ?closestPtPointSegmentTesselation@Gu@physx@@YA?AT__m128@@AEBT3@00000AEAIAEAT3@2@Z 0000000180076e70 f   GuGJKSimplexTesselation.obj
 0001:00076280       ?closestPtPointTetrahedronTesselation@Gu@physx@@YA?AT__m128@@PEIAT3@00AEAIAEAT3@2@Z 0000000180077280 f   GuGJKSimplexTesselation.obj
 0001:00076a80       ?closestPtPointTriangleTesselation@Gu@physx@@YA?AT__m128@@PEIAT3@00PEIAIAEAIAEAT3@3@Z 0000000180077a80 f   GuGJKSimplexTesselation.obj
 0001:000775d0       ?GJKRelative@Gu@physx@@YAIAEBVCapsuleV@12@AEBVConvexHullV@12@AEBVPsMatTransformV@aos@shdfnd@2@AEAT__m128@@333@Z 00000001800785d0 f   GuGJKWrapper.obj
 0001:000775e0       ?GJKRelative@Gu@physx@@YAIAEBVCapsuleV@12@AEBVBoxV@12@AEBVPsMatTransformV@aos@shdfnd@2@AEAT__m128@@333@Z 00000001800785e0 f   GuGJKWrapper.obj
 0001:000775f0       ?GJKRelative@Gu@physx@@YAIAEBVBoxV@12@0AEBVPsMatTransformV@aos@shdfnd@2@AEAT__m128@@222@Z 00000001800785f0 f   GuGJKWrapper.obj
 0001:00077600       ?GJKRelative@Gu@physx@@YAIAEBVBoxV@12@AEBVConvexHullV@12@AEBVPsMatTransformV@aos@shdfnd@2@AEAT__m128@@333@Z 0000000180078600 f   GuGJKWrapper.obj
 0001:00077610       ?GJKRelative@Gu@physx@@YAIAEBVConvexHullV@12@0AEBVPsMatTransformV@aos@shdfnd@2@AEAT__m128@@222@Z 0000000180078610 f   GuGJKWrapper.obj
 0001:00077620       ?GJKRelative@Gu@physx@@YAIAEBVTriangleV@12@AEBVBoxV@12@AEBVPsMatTransformV@aos@shdfnd@2@AEAT__m128@@333@Z 0000000180078620 f   GuGJKWrapper.obj
 0001:00077630       ?GJKRelative@Gu@physx@@YAIAEBVTriangleV@12@AEBVConvexHullV@12@AEBVPsMatTransformV@aos@shdfnd@2@AEAT__m128@@333@Z 0000000180078630 f   GuGJKWrapper.obj
 0001:00077640       ?GJKLocal@Gu@physx@@YAIAEBVCapsuleV@12@AEBVConvexHullV@12@AEAT__m128@@222@Z 0000000180078640 f   GuGJKWrapper.obj
 0001:00077650       ?GJKLocal@Gu@physx@@YAIAEBVTriangleV@12@AEBVBoxV@12@AEAT__m128@@222@Z 0000000180078650 f   GuGJKWrapper.obj
 0001:00077660       ?GJKLocal@Gu@physx@@YAIAEBVTriangleV@12@AEBVConvexHullV@12@AEAT__m128@@222@Z 0000000180078660 f   GuGJKWrapper.obj
 0001:00077670       ?GJKRelativeTesselation@Gu@physx@@YAIAEBVBoxV@12@AEBVConvexHullV@12@AEBVPsMatTransformV@aos@shdfnd@2@AEBT__m128@@AEAT8@444@Z 0000000180078670 f   GuGJKWrapper.obj
 0001:00077680       ?GJKRelativeTesselation@Gu@physx@@YAIAEBVConvexHullV@12@0AEBVPsMatTransformV@aos@shdfnd@2@AEBT__m128@@AEAT7@333@Z 0000000180078680 f   GuGJKWrapper.obj
 0001:00077690       ?GJKLocalRayCast@Gu@physx@@YA_NAEAVTriangleV@12@AEAVCapsuleV@12@AEBT__m128@@22AEAT5@33M_N@Z 0000000180078690 f   GuGJKWrapper.obj
 0001:000776b0       ?GJKLocalRayCast@Gu@physx@@YA_NAEAVTriangleV@12@AEAVBoxV@12@AEBT__m128@@22AEAT5@33M_N@Z 00000001800786b0 f   GuGJKWrapper.obj
 0001:000776d0       ?GJKLocalRayCast@Gu@physx@@YA_NAEAVTriangleV@12@AEAVConvexHullV@12@AEBT__m128@@22AEAT5@33M_N@Z 00000001800786d0 f   GuGJKWrapper.obj
 0001:000776f0       ?GJKLocalRayCast@Gu@physx@@YA_NAEAVCapsuleV@12@AEAVBoxV@12@AEBT__m128@@22AEAT5@33M_N@Z 00000001800786f0 f   GuGJKWrapper.obj
 0001:00077710       ?GJKLocalRayCast@Gu@physx@@YA_NAEAVCapsuleV@12@AEAVConvexHullV@12@AEBT__m128@@22AEAT5@33M_N@Z 0000000180078710 f   GuGJKWrapper.obj
 0001:00077730       ?GJKRelativeRayCast@Gu@physx@@YA_NAEAVTriangleV@12@AEAVBoxV@12@AEBVPsMatTransformV@aos@shdfnd@2@AEBT__m128@@33AEAT8@44M_N@Z 0000000180078730 f   GuGJKWrapper.obj
 0001:00077750       ?GJKRelativeRayCast@Gu@physx@@YA_NAEAVTriangleV@12@AEAVCapsuleV@12@AEBVPsMatTransformV@aos@shdfnd@2@AEBT__m128@@33AEAT8@44M_N@Z 0000000180078750 f   GuGJKWrapper.obj
 0001:00077770       ?GJKRelativeRayCast@Gu@physx@@YA_NAEAVTriangleV@12@AEAVConvexHullV@12@AEBVPsMatTransformV@aos@shdfnd@2@AEBT__m128@@33AEAT8@44M_N@Z 0000000180078770 f   GuGJKWrapper.obj
 0001:00077790       ?GJKRelativeRayCast@Gu@physx@@YA_NAEAVCapsuleV@12@0AEBVPsMatTransformV@aos@shdfnd@2@AEBT__m128@@22AEAT7@33M_N@Z 0000000180078790 f   GuGJKWrapper.obj
 0001:000777b0       ?GJKRelativeRayCast@Gu@physx@@YA_NAEAVCapsuleV@12@AEAVBoxV@12@AEBVPsMatTransformV@aos@shdfnd@2@AEBT__m128@@33AEAT8@44M_N@Z 00000001800787b0 f   GuGJKWrapper.obj
 0001:000777d0       ?GJKRelativeRayCast@Gu@physx@@YA_NAEAVCapsuleV@12@AEAVConvexHullV@12@AEBVPsMatTransformV@aos@shdfnd@2@AEBT__m128@@33AEAT8@44M_N@Z 00000001800787d0 f   GuGJKWrapper.obj
 0001:000777f0       ?GJKRelativeRayCast@Gu@physx@@YA_NAEAVBoxV@12@0AEBVPsMatTransformV@aos@shdfnd@2@AEBT__m128@@22AEAT7@33M_N@Z 00000001800787f0 f   GuGJKWrapper.obj
 0001:00077810       ?GJKRelativeRayCast@Gu@physx@@YA_NAEAVBoxV@12@AEAVConvexHullV@12@AEBVPsMatTransformV@aos@shdfnd@2@AEBT__m128@@33AEAT8@44M_N@Z 0000000180078810 f   GuGJKWrapper.obj
 0001:00077830       ?GJKRelativeRayCast@Gu@physx@@YA_NAEAVConvexHullV@12@0AEBVPsMatTransformV@aos@shdfnd@2@AEBT__m128@@22AEAT7@33M_N@Z 0000000180078830 f   GuGJKWrapper.obj
 0001:00077840       ??$_gjkLocalRayCast@VCapsuleV@Gu@physx@@VBoxV@23@@Gu@physx@@YA_NAEAVCapsuleV@01@AEAVBoxV@01@AEBT__m128@@22AEAT4@33M@Z 0000000180078840 f i GuGJKWrapper.obj
 0001:00078590       ??$_gjkLocalRayCast@VCapsuleV@Gu@physx@@VConvexHullV@23@@Gu@physx@@YA_NAEAVCapsuleV@01@AEAVConvexHullV@01@AEBT__m128@@22AEAT4@33M@Z 0000000180079590 f i GuGJKWrapper.obj
 0001:00079d60       ??$_gjkLocalRayCast@VTriangleV@Gu@physx@@VBoxV@23@@Gu@physx@@YA_NAEAVTriangleV@01@AEAVBoxV@01@AEBT__m128@@22AEAT4@33M@Z 000000018007ad60 f i GuGJKWrapper.obj
 0001:0007ab60       ??$_gjkLocalRayCast@VTriangleV@Gu@physx@@VCapsuleV@23@@Gu@physx@@YA_NAEAVTriangleV@01@AEAVCapsuleV@01@AEBT__m128@@22AEAT4@33M@Z 000000018007bb60 f i GuGJKWrapper.obj
 0001:0007ba20       ??$_gjkLocalRayCast@VTriangleV@Gu@physx@@VConvexHullV@23@@Gu@physx@@YA_NAEAVTriangleV@01@AEAVConvexHullV@01@AEBT__m128@@22AEAT4@33M@Z 000000018007ca20 f i GuGJKWrapper.obj
 0001:0007d2c0       ??$_gjkRelativeRayCast@VBoxV@Gu@physx@@V123@@Gu@physx@@YA_NAEAVBoxV@01@0AEBVPsMatTransformV@aos@shdfnd@1@AEBT__m128@@22AEAT6@33M@Z 000000018007e2c0 f i GuGJKWrapper.obj
 0001:0007e0b0       ??$_gjkRelativeRayCast@VBoxV@Gu@physx@@VConvexHullV@23@@Gu@physx@@YA_NAEAVBoxV@01@AEAVConvexHullV@01@AEBVPsMatTransformV@aos@shdfnd@1@AEBT__m128@@33AEAT7@44M@Z 000000018007f0b0 f i GuGJKWrapper.obj
 0001:0007f940       ??$_gjkRelativeRayCast@VCapsuleV@Gu@physx@@V123@@Gu@physx@@YA_NAEAVCapsuleV@01@0AEBVPsMatTransformV@aos@shdfnd@1@AEBT__m128@@22AEAT6@33M@Z 0000000180080940 f i GuGJKWrapper.obj
 0001:00080850       ??$_gjkRelativeRayCast@VCapsuleV@Gu@physx@@VBoxV@23@@Gu@physx@@YA_NAEAVCapsuleV@01@AEAVBoxV@01@AEBVPsMatTransformV@aos@shdfnd@1@AEBT__m128@@33AEAT7@44M@Z 0000000180081850 f i GuGJKWrapper.obj
 0001:00081690       ??$_gjkRelativeRayCast@VCapsuleV@Gu@physx@@VConvexHullV@23@@Gu@physx@@YA_NAEAVCapsuleV@01@AEAVConvexHullV@01@AEBVPsMatTransformV@aos@shdfnd@1@AEBT__m128@@33AEAT7@44M@Z 0000000180082690 f i GuGJKWrapper.obj
 0001:00082f20       ??$_gjkRelativeRayCast@VConvexHullV@Gu@physx@@V123@@Gu@physx@@YA_NAEAVConvexHullV@01@0AEBVPsMatTransformV@aos@shdfnd@1@AEBT__m128@@22AEAT6@33M@Z 0000000180083f20 f i GuGJKWrapper.obj
 0001:00084d20       ??$_gjkRelativeRayCast@VTriangleV@Gu@physx@@VBoxV@23@@Gu@physx@@YA_NAEAVTriangleV@01@AEAVBoxV@01@AEBVPsMatTransformV@aos@shdfnd@1@AEBT__m128@@33AEAT7@44M@Z 0000000180085d20 f i GuGJKWrapper.obj
 0001:00085c10       ??$_gjkRelativeRayCast@VTriangleV@Gu@physx@@VCapsuleV@23@@Gu@physx@@YA_NAEAVTriangleV@01@AEAVCapsuleV@01@AEBVPsMatTransformV@aos@shdfnd@1@AEBT__m128@@33AEAT7@44M@Z 0000000180086c10 f i GuGJKWrapper.obj
 0001:00086bc0       ??$_gjkRelativeRayCast@VTriangleV@Gu@physx@@VConvexHullV@23@@Gu@physx@@YA_NAEAVTriangleV@01@AEAVConvexHullV@01@AEBVPsMatTransformV@aos@shdfnd@1@AEBT__m128@@33AEAT7@44M@Z 0000000180087bc0 f i GuGJKWrapper.obj
 0001:00088480       ??$gjkLocal@VCapsuleV@Gu@physx@@VConvexHullV@23@@Gu@physx@@YAIAEBVCapsuleV@01@AEBVConvexHullV@01@AEAT__m128@@222@Z 0000000180089480 f i GuGJKWrapper.obj
 0001:00089500       ??$gjkLocal@VTriangleV@Gu@physx@@VBoxV@23@@Gu@physx@@YAIAEBVTriangleV@01@AEBVBoxV@01@AEAT__m128@@222@Z 000000018008a500 f i GuGJKWrapper.obj
 0001:0008a260       ??$gjkLocal@VTriangleV@Gu@physx@@VConvexHullV@23@@Gu@physx@@YAIAEBVTriangleV@01@AEBVConvexHullV@01@AEAT__m128@@222@Z 000000018008b260 f i GuGJKWrapper.obj
 0001:0008b2d0       ??$gjkLocalRayCast@VCapsuleV@Gu@physx@@VBoxV@23@V123@VShrunkBoxV@23@@Gu@physx@@YA_NAEAVCapsuleV@01@AEAVBoxV@01@AEBT__m128@@22AEAT4@33M_N@Z 000000018008c2d0 f i GuGJKWrapper.obj
 0001:0008c2c0       ??$gjkLocalRayCast@VCapsuleV@Gu@physx@@VConvexHullV@23@V123@VShrunkConvexHullV@23@@Gu@physx@@YA_NAEAVCapsuleV@01@AEAVConvexHullV@01@AEBT__m128@@22AEAT4@33M_N@Z 000000018008d2c0 f i GuGJKWrapper.obj
 0001:0008d930       ??$gjkLocalRayCast@VTriangleV@Gu@physx@@VBoxV@23@V123@VShrunkBoxV@23@@Gu@physx@@YA_NAEAVTriangleV@01@AEAVBoxV@01@AEBT__m128@@22AEAT4@33M_N@Z 000000018008e930 f i GuGJKWrapper.obj
 0001:0008e980       ??$gjkLocalRayCast@VTriangleV@Gu@physx@@VCapsuleV@23@V123@V423@@Gu@physx@@YA_NAEAVTriangleV@01@AEAVCapsuleV@01@AEBT__m128@@22AEAT4@33M_N@Z 000000018008f980 f i GuGJKWrapper.obj
 0001:0008fa30       ??$gjkLocalRayCast@VTriangleV@Gu@physx@@VConvexHullV@23@V123@VShrunkConvexHullV@23@@Gu@physx@@YA_NAEAVTriangleV@01@AEAVConvexHullV@01@AEBT__m128@@22AEAT4@33M_N@Z 0000000180090a30 f i GuGJKWrapper.obj
 0001:00091180       ??$gjkRelative@VBoxV@Gu@physx@@V123@@Gu@physx@@YAIAEBVBoxV@01@0AEBVPsMatTransformV@aos@shdfnd@1@AEAT__m128@@222@Z 0000000180092180 f i GuGJKWrapper.obj
 0001:00091f00       ??$gjkRelative@VBoxV@Gu@physx@@VConvexHullV@23@@Gu@physx@@YAIAEBVBoxV@01@AEBVConvexHullV@01@AEBVPsMatTransformV@aos@shdfnd@1@AEAT__m128@@333@Z 0000000180092f00 f i GuGJKWrapper.obj
 0001:00092f80       ??$gjkRelative@VCapsuleV@Gu@physx@@VBoxV@23@@Gu@physx@@YAIAEBVCapsuleV@01@AEBVBoxV@01@AEBVPsMatTransformV@aos@shdfnd@1@AEAT__m128@@333@Z 0000000180093f80 f i GuGJKWrapper.obj
 0001:00093d50       ??$gjkRelative@VCapsuleV@Gu@physx@@VConvexHullV@23@@Gu@physx@@YAIAEBVCapsuleV@01@AEBVConvexHullV@01@AEBVPsMatTransformV@aos@shdfnd@1@AEAT__m128@@333@Z 0000000180094d50 f i GuGJKWrapper.obj
 0001:00094e00       ??$gjkRelative@VConvexHullV@Gu@physx@@V123@@Gu@physx@@YAIAEBVConvexHullV@01@0AEBVPsMatTransformV@aos@shdfnd@1@AEAT__m128@@222@Z 0000000180095e00 f i GuGJKWrapper.obj
 0001:000961f0       ??$gjkRelative@VTriangleV@Gu@physx@@VBoxV@23@@Gu@physx@@YAIAEBVTriangleV@01@AEBVBoxV@01@AEBVPsMatTransformV@aos@shdfnd@1@AEAT__m128@@333@Z 00000001800971f0 f i GuGJKWrapper.obj
 0001:00097000       ??$gjkRelative@VTriangleV@Gu@physx@@VConvexHullV@23@@Gu@physx@@YAIAEBVTriangleV@01@AEBVConvexHullV@01@AEBVPsMatTransformV@aos@shdfnd@1@AEAT__m128@@333@Z 0000000180098000 f i GuGJKWrapper.obj
 0001:00098110       ??$gjkRelativeRayCast@VBoxV@Gu@physx@@V123@VShrunkBoxV@23@V423@@Gu@physx@@YA_NAEAVBoxV@01@0AEBVPsMatTransformV@aos@shdfnd@1@AEBT__m128@@22AEAT6@33M_N@Z 0000000180099110 f i GuGJKWrapper.obj
 0001:000990f0       ??$gjkRelativeRayCast@VBoxV@Gu@physx@@VConvexHullV@23@VShrunkBoxV@23@VShrunkConvexHullV@23@@Gu@physx@@YA_NAEAVBoxV@01@AEAVConvexHullV@01@AEBVPsMatTransformV@aos@shdfnd@1@AEBT__m128@@33AEAT7@44M_N@Z 000000018009a0f0 f i GuGJKWrapper.obj
 0001:0009a740       ??$gjkRelativeRayCast@VCapsuleV@Gu@physx@@V123@V123@V123@@Gu@physx@@YA_NAEAVCapsuleV@01@0AEBVPsMatTransformV@aos@shdfnd@1@AEBT__m128@@22AEAT6@33M_N@Z 000000018009b740 f i GuGJKWrapper.obj
 0001:0009b780       ??$gjkRelativeRayCast@VCapsuleV@Gu@physx@@VBoxV@23@V123@VShrunkBoxV@23@@Gu@physx@@YA_NAEAVCapsuleV@01@AEAVBoxV@01@AEBVPsMatTransformV@aos@shdfnd@1@AEBT__m128@@33AEAT7@44M_N@Z 000000018009c780 f i GuGJKWrapper.obj
 0001:0009c780       ??$gjkRelativeRayCast@VCapsuleV@Gu@physx@@VConvexHullV@23@V123@VShrunkConvexHullV@23@@Gu@physx@@YA_NAEAVCapsuleV@01@AEAVConvexHullV@01@AEBVPsMatTransformV@aos@shdfnd@1@AEBT__m128@@33AEAT7@44M_N@Z 000000018009d780 f i GuGJKWrapper.obj
 0001:0009de00       ??$gjkRelativeRayCast@VConvexHullV@Gu@physx@@V123@VShrunkConvexHullV@23@V423@@Gu@physx@@YA_NAEAVConvexHullV@01@0AEBVPsMatTransformV@aos@shdfnd@1@AEBT__m128@@22AEAT6@33M_N@Z 000000018009ee00 f i GuGJKWrapper.obj
 0001:0009f940       ??$gjkRelativeRayCast@VTriangleV@Gu@physx@@VBoxV@23@V123@VShrunkBoxV@23@@Gu@physx@@YA_NAEAVTriangleV@01@AEAVBoxV@01@AEBVPsMatTransformV@aos@shdfnd@1@AEBT__m128@@33AEAT7@44M_N@Z 00000001800a0940 f i GuGJKWrapper.obj
 0001:000a09c0       ??$gjkRelativeRayCast@VTriangleV@Gu@physx@@VCapsuleV@23@V123@V423@@Gu@physx@@YA_NAEAVTriangleV@01@AEAVCapsuleV@01@AEBVPsMatTransformV@aos@shdfnd@1@AEBT__m128@@33AEAT7@44M_N@Z 00000001800a19c0 f i GuGJKWrapper.obj
 0001:000a1a80       ??$gjkRelativeRayCast@VTriangleV@Gu@physx@@VConvexHullV@23@V123@VShrunkConvexHullV@23@@Gu@physx@@YA_NAEAVTriangleV@01@AEAVConvexHullV@01@AEBVPsMatTransformV@aos@shdfnd@1@AEBT__m128@@33AEAT7@44M_N@Z 00000001800a2a80 f i GuGJKWrapper.obj
 0001:000a3190       ??$gjkRelativeTesselation@VBoxV@Gu@physx@@VConvexHullV@23@@Gu@physx@@YAIAEBVBoxV@01@AEBVConvexHullV@01@AEBVPsMatTransformV@aos@shdfnd@1@AEBT__m128@@AEAT7@444@Z 00000001800a4190 f i GuGJKWrapper.obj
 0001:000a32c0       ??$gjkRelativeTesselation@VConvexHullV@Gu@physx@@V123@@Gu@physx@@YAIAEBVConvexHullV@01@0AEBVPsMatTransformV@aos@shdfnd@1@AEBT__m128@@AEAT6@333@Z 00000001800a42c0 f i GuGJKWrapper.obj
 0001:000a33f0       ??1SupportMap@Gu@physx@@UEAA@XZ 00000001800a43f0 f i GuGJKWrapper.obj
 0001:000a3400       ??_E?$EPASupportMapPairLocalImpl@VTriangleV@Gu@physx@@VCapsuleV@23@@Gu@physx@@UEAAPEAXI@Z 00000001800a4400 f i GuGJKWrapper.obj
 0001:000a3400       ??_G?$EPASupportMapPairLocalImpl@VTriangleV@Gu@physx@@VCapsuleV@23@@Gu@physx@@UEAAPEAXI@Z 00000001800a4400 f i GuGJKWrapper.obj
 0001:000a3430       ??_E?$EPASupportMapPairRelativeImpl@VCapsuleV@Gu@physx@@V123@@Gu@physx@@UEAAPEAXI@Z 00000001800a4430 f i GuGJKWrapper.obj
 0001:000a3430       ??_G?$EPASupportMapPairRelativeImpl@VCapsuleV@Gu@physx@@V123@@Gu@physx@@UEAAPEAXI@Z 00000001800a4430 f i GuGJKWrapper.obj
 0001:000a3460       ??_G?$EPASupportMapPairRelativeImpl@VCapsuleV@Gu@physx@@VBoxV@23@@Gu@physx@@UEAAPEAXI@Z 00000001800a4460 f i GuGJKWrapper.obj
 0001:000a3460       ??_E?$EPASupportMapPairRelativeImpl@VCapsuleV@Gu@physx@@VBoxV@23@@Gu@physx@@UEAAPEAXI@Z 00000001800a4460 f i GuGJKWrapper.obj
 0001:000a3490       ??_E?$EPASupportMapPairRelativeImpl@VCapsuleV@Gu@physx@@VConvexHullV@23@@Gu@physx@@UEAAPEAXI@Z 00000001800a4490 f i GuGJKWrapper.obj
 0001:000a3490       ??_G?$EPASupportMapPairRelativeImpl@VCapsuleV@Gu@physx@@VConvexHullV@23@@Gu@physx@@UEAAPEAXI@Z 00000001800a4490 f i GuGJKWrapper.obj
 0001:000a34c0       ??_E?$EPASupportMapPairRelativeImpl@VTriangleV@Gu@physx@@VBoxV@23@@Gu@physx@@UEAAPEAXI@Z 00000001800a44c0 f i GuGJKWrapper.obj
 0001:000a34c0       ??_G?$EPASupportMapPairRelativeImpl@VTriangleV@Gu@physx@@VBoxV@23@@Gu@physx@@UEAAPEAXI@Z 00000001800a44c0 f i GuGJKWrapper.obj
 0001:000a34f0       ??_E?$EPASupportMapPairRelativeImpl@VTriangleV@Gu@physx@@VCapsuleV@23@@Gu@physx@@UEAAPEAXI@Z 00000001800a44f0 f i GuGJKWrapper.obj
 0001:000a34f0       ??_G?$EPASupportMapPairRelativeImpl@VTriangleV@Gu@physx@@VCapsuleV@23@@Gu@physx@@UEAAPEAXI@Z 00000001800a44f0 f i GuGJKWrapper.obj
 0001:000a3520       ??_G?$EPASupportMapPairRelativeImpl@VTriangleV@Gu@physx@@VConvexHullV@23@@Gu@physx@@UEAAPEAXI@Z 00000001800a4520 f i GuGJKWrapper.obj
 0001:000a3520       ??_E?$EPASupportMapPairRelativeImpl@VTriangleV@Gu@physx@@VConvexHullV@23@@Gu@physx@@UEAAPEAXI@Z 00000001800a4520 f i GuGJKWrapper.obj
 0001:000a3550       ??_G?$SupportMapLocalImpl@VConvexHullV@Gu@physx@@@Gu@physx@@UEAAPEAXI@Z 00000001800a4550 f i GuGJKWrapper.obj
 0001:000a3550       ??_E?$SupportMapLocalImpl@VConvexHullV@Gu@physx@@@Gu@physx@@UEAAPEAXI@Z 00000001800a4550 f i GuGJKWrapper.obj
 0001:000a3580       ??_G?$SupportMapRelativeImpl@VBoxV@Gu@physx@@@Gu@physx@@UEAAPEAXI@Z 00000001800a4580 f i GuGJKWrapper.obj
 0001:000a3580       ??_E?$SupportMapRelativeImpl@VBoxV@Gu@physx@@@Gu@physx@@UEAAPEAXI@Z 00000001800a4580 f i GuGJKWrapper.obj
 0001:000a35b0       ??_G?$SupportMapRelativeImpl@VConvexHullV@Gu@physx@@@Gu@physx@@UEAAPEAXI@Z 00000001800a45b0 f i GuGJKWrapper.obj
 0001:000a35b0       ??_E?$SupportMapRelativeImpl@VConvexHullV@Gu@physx@@@Gu@physx@@UEAAPEAXI@Z 00000001800a45b0 f i GuGJKWrapper.obj
 0001:000a35e0       ??_GSupportMap@Gu@physx@@UEAAPEAXI@Z 00000001800a45e0 f i GuGJKWrapper.obj
 0001:000a35e0       ??_ESupportMap@Gu@physx@@UEAAPEAXI@Z 00000001800a45e0 f i GuGJKWrapper.obj
 0001:000a3610       ?doSupport@?$EPASupportMapPairLocalImpl@VTriangleV@Gu@physx@@VCapsuleV@23@@Gu@physx@@UEBAXAEBT__m128@@AEAT4@11@Z 00000001800a4610 f i GuGJKWrapper.obj
 0001:000a3730       ?doSupport@?$EPASupportMapPairRelativeImpl@VCapsuleV@Gu@physx@@V123@@Gu@physx@@UEBAXAEBT__m128@@AEAT4@11@Z 00000001800a4730 f i GuGJKWrapper.obj
 0001:000a38a0       ?doSupport@?$EPASupportMapPairRelativeImpl@VCapsuleV@Gu@physx@@VBoxV@23@@Gu@physx@@UEBAXAEBT__m128@@AEAT4@11@Z 00000001800a48a0 f i GuGJKWrapper.obj
 0001:000a39e0       ?doSupport@?$EPASupportMapPairRelativeImpl@VCapsuleV@Gu@physx@@VConvexHullV@23@@Gu@physx@@UEBAXAEBT__m128@@AEAT4@11@Z 00000001800a49e0 f i GuGJKWrapper.obj
 0001:000a3eb0       ?doSupport@?$EPASupportMapPairRelativeImpl@VTriangleV@Gu@physx@@VBoxV@23@@Gu@physx@@UEBAXAEBT__m128@@AEAT4@11@Z 00000001800a4eb0 f i GuGJKWrapper.obj
 0001:000a4050       ?doSupport@?$EPASupportMapPairRelativeImpl@VTriangleV@Gu@physx@@VCapsuleV@23@@Gu@physx@@UEBAXAEBT__m128@@AEAT4@11@Z 00000001800a5050 f i GuGJKWrapper.obj
 0001:000a4210       ?doSupport@?$EPASupportMapPairRelativeImpl@VTriangleV@Gu@physx@@VConvexHullV@23@@Gu@physx@@UEBAXAEBT__m128@@AEAT4@11@Z 00000001800a5210 f i GuGJKWrapper.obj
 0001:000a4740       ?doSupport@?$SupportMapLocalImpl@VConvexHullV@Gu@physx@@@Gu@physx@@UEBA?AT__m128@@AEBT4@@Z 00000001800a5740 f i GuGJKWrapper.obj
 0001:000a4ae0       ?doSupport@?$SupportMapRelativeImpl@VBoxV@Gu@physx@@@Gu@physx@@UEBA?AT__m128@@AEBT4@@Z 00000001800a5ae0 f i GuGJKWrapper.obj
 0001:000a4bb0       ?doSupport@?$SupportMapRelativeImpl@VConvexHullV@Gu@physx@@@Gu@physx@@UEBA?AT__m128@@AEBT4@@Z 00000001800a5bb0 f i GuGJKWrapper.obj
 0001:000a4fd0       ?doSupportSweep@?$SupportMapLocalImpl@VConvexHullV@Gu@physx@@@Gu@physx@@UEBA?AT__m128@@AEBT4@@Z 00000001800a5fd0 f i GuGJKWrapper.obj
 0001:000a5370       ?doSupportSweep@?$SupportMapRelativeImpl@VBoxV@Gu@physx@@@Gu@physx@@UEBA?AT__m128@@AEBT4@@Z 00000001800a6370 f i GuGJKWrapper.obj
 0001:000a5440       ?doSupportSweep@?$SupportMapRelativeImpl@VConvexHullV@Gu@physx@@@Gu@physx@@UEBA?AT__m128@@AEBT4@@Z 00000001800a6440 f i GuGJKWrapper.obj
 0001:000a5860       ?doWarmStartSupport@?$EPASupportMapPairLocalImpl@VTriangleV@Gu@physx@@VCapsuleV@23@@Gu@physx@@UEBAXHHAEAT__m128@@00@Z 00000001800a6860 f i GuGJKWrapper.obj
 0001:000a58b0       ?doWarmStartSupport@?$EPASupportMapPairRelativeImpl@VCapsuleV@Gu@physx@@V123@@Gu@physx@@UEBAXHHAEAT__m128@@00@Z 00000001800a68b0 f i GuGJKWrapper.obj
 0001:000a5940       ?doWarmStartSupport@?$EPASupportMapPairRelativeImpl@VCapsuleV@Gu@physx@@VBoxV@23@@Gu@physx@@UEBAXHHAEAT__m128@@00@Z 00000001800a6940 f i GuGJKWrapper.obj
 0001:000a59d0       ?doWarmStartSupport@?$EPASupportMapPairRelativeImpl@VCapsuleV@Gu@physx@@VConvexHullV@23@@Gu@physx@@UEBAXHHAEAT__m128@@00@Z 00000001800a69d0 f i GuGJKWrapper.obj
 0001:000a5a90       ?doWarmStartSupport@?$EPASupportMapPairRelativeImpl@VTriangleV@Gu@physx@@VBoxV@23@@Gu@physx@@UEBAXHHAEAT__m128@@00@Z 00000001800a6a90 f i GuGJKWrapper.obj
 0001:000a5b20       ?doWarmStartSupport@?$EPASupportMapPairRelativeImpl@VTriangleV@Gu@physx@@VCapsuleV@23@@Gu@physx@@UEBAXHHAEAT__m128@@00@Z 00000001800a6b20 f i GuGJKWrapper.obj
 0001:000a5bb0       ?doWarmStartSupport@?$EPASupportMapPairRelativeImpl@VTriangleV@Gu@physx@@VConvexHullV@23@@Gu@physx@@UEBAXHHAEAT__m128@@00@Z 00000001800a6bb0 f i GuGJKWrapper.obj
 0001:000a5c60       ?doWarmStartSupport@?$SupportMapLocalImpl@VConvexHullV@Gu@physx@@@Gu@physx@@UEBAXHAEAT__m128@@@Z 00000001800a6c60 f i GuGJKWrapper.obj
 0001:000a5cc0       ?doWarmStartSupport@?$SupportMapRelativeImpl@VBoxV@Gu@physx@@@Gu@physx@@UEBAXHAEAT__m128@@@Z 00000001800a6cc0 f i GuGJKWrapper.obj
 0001:000a5d20       ?doWarmStartSupport@?$SupportMapRelativeImpl@VConvexHullV@Gu@physx@@@Gu@physx@@UEBAXHAEAT__m128@@@Z 00000001800a6d20 f i GuGJKWrapper.obj
 0001:000a5db0       ?getDir@?$EPASupportMapPairLocalImpl@VTriangleV@Gu@physx@@VCapsuleV@23@@Gu@physx@@UEBA?AT__m128@@XZ 00000001800a6db0 f i GuGJKWrapper.obj
 0001:000a5dd0       ?getDir@?$EPASupportMapPairRelativeImpl@VCapsuleV@Gu@physx@@V123@@Gu@physx@@UEBA?AT__m128@@XZ 00000001800a6dd0 f i GuGJKWrapper.obj
 0001:000a5de0       ?getDir@?$EPASupportMapPairRelativeImpl@VCapsuleV@Gu@physx@@VBoxV@23@@Gu@physx@@UEBA?AT__m128@@XZ 00000001800a6de0 f i GuGJKWrapper.obj
 0001:000a5df0       ?getDir@?$EPASupportMapPairRelativeImpl@VCapsuleV@Gu@physx@@VConvexHullV@23@@Gu@physx@@UEBA?AT__m128@@XZ 00000001800a6df0 f i GuGJKWrapper.obj
 0001:000a5e00       ?getDir@?$EPASupportMapPairRelativeImpl@VTriangleV@Gu@physx@@VBoxV@23@@Gu@physx@@UEBA?AT__m128@@XZ 00000001800a6e00 f i GuGJKWrapper.obj
 0001:000a5e10       ?getDir@?$EPASupportMapPairRelativeImpl@VTriangleV@Gu@physx@@VCapsuleV@23@@Gu@physx@@UEBA?AT__m128@@XZ 00000001800a6e10 f i GuGJKWrapper.obj
 0001:000a5e20       ?getDir@?$EPASupportMapPairRelativeImpl@VTriangleV@Gu@physx@@VConvexHullV@23@@Gu@physx@@UEBA?AT__m128@@XZ 00000001800a6e20 f i GuGJKWrapper.obj
 0001:000a5e30       ?create@BoxV@Gu@physx@@QEAAXAEBVCapsuleV@23@@Z 00000001800a6e30 f   GuVecBox.obj
 0001:000a5ff0       ?isInside@BoxV@Gu@physx@@QEBAIAEBV123@@Z 00000001800a6ff0 f   GuVecBox.obj
 0001:000a6230       ?intersectOBBOBB@Gu@physx@@YA_NAEBVPxVec3@2@0AEBVPxMat33@2@001_N@Z 00000001800a7230 f   GuIntersectionBoxBox.obj
 0001:000a68d0       ?intersectEdgeEdge@Gu@physx@@YA_NAEBVPxVec3@2@0000AEAMAEAV32@@Z 00000001800a78d0 f   GuIntersectionEdgeEdge.obj
 0001:000a6c00       ?rayAABBIntersect@Gu@physx@@YA_NAEBVPxVec3@2@000AEAV32@@Z 00000001800a7c00 f   GuIntersectionRayBox.obj
 0001:000a6e00       ?rayAABBIntersect2@Gu@physx@@YAIAEBVPxVec3@2@000AEAV32@AEAM@Z 00000001800a7e00 f   GuIntersectionRayBox.obj
 0001:000a7010       ?intersectRayAABB@Gu@physx@@YAHAEBVPxVec3@2@000AEAM1@Z 00000001800a8010 f   GuIntersectionRayBox.obj
 0001:000a7130       ?intersectRayAABB@Gu@physx@@YAHAEBVPxVec3@2@0000AEAM1@Z 00000001800a8130 f   GuIntersectionRayBox.obj
 0001:000a72f0       ?intersectRayAABB2@Gu@physx@@YA_NAEBVPxVec3@2@000MAEAM1@Z 00000001800a82f0 f   GuIntersectionRayBox.obj
 0001:000a7480       ?intersectRayAABB@Gu@physx@@YAHAEBT__m128@@000AEAT3@1@Z 00000001800a8480 f   GuIntersectionRayBox.obj
 0001:000a76a0       ?intersectRayAABB@Gu@physx@@YAHAEBT__m128@@0000AEAT3@1@Z 00000001800a86a0 f   GuIntersectionRayBox.obj
 0001:000a78b0       ?intersectRayAABB2@Gu@physx@@YA_NAEBT__m128@@0000AEAT3@1@Z 00000001800a88b0 f   GuIntersectionRayBox.obj
 0001:000a7980       ?intersectRayCapsule@Gu@physx@@YAIAEBVPxVec3@2@0AEBVCapsule@12@QEAM@Z 00000001800a8980 f   GuIntersectionRayCapsule.obj
 0001:000a81f0       ?intersectRaySphereBasic@Gu@physx@@YA_NAEBVPxVec3@2@0M0MAEAMPEAV32@@Z 00000001800a91f0 f   GuIntersectionRaySphere.obj
 0001:000a8350       ?intersectRaySphere@Gu@physx@@YA_NAEBVPxVec3@2@0M0MAEAMPEAV32@@Z 00000001800a9350 f   GuIntersectionRaySphere.obj
 0001:000a8460       ?intersectRayTriangleCulling@Gu@physx@@YA_NAEBVPxVec3@2@0000AEAM11M@Z 00000001800a9460 f   GuIntersectionRayTriangle.obj
 0001:000a86f0       ?intersectRayTriangleNoCulling@Gu@physx@@YA_NAEBVPxVec3@2@0000AEAM11M@Z 00000001800a96f0 f   GuIntersectionRayTriangle.obj
 0001:000a8980       ??0OBBTriangleTest@Gu@physx@@QEAA@AEBVBox@12@@Z 00000001800a9980 f   GuIntersectionTriangleBox.obj
 0001:000a8b70       ?obbTriTest@OBBTriangleTest@Gu@physx@@QEBAHAEBVPxVec3@3@00@Z 00000001800a9b70 f   GuIntersectionTriangleBox.obj
 0001:000a9470       ?intersectTriangleBox@Gu@physx@@YAHAEBVPxVec3@2@0000@Z 00000001800aa470 f   GuIntersectionTriangleBox.obj
 0001:000a9c90       ?intersectTriangleBox@Gu@physx@@YA_NAEBT__m128@@0000@Z 00000001800aac90 f   GuIntersectionTriangleBox.obj
 0001:000aa580       ??0RTreeMidphase@Gu@physx@@QEAA@XZ 00000001800ab580 f   GuHybridModel.obj
 0001:000aa5b0       ??1RTreeMidphase@Gu@physx@@QEAA@XZ 00000001800ab5b0 f   GuHybridModel.obj
 0001:000aa5c0       ?exportExtraData@RTreeMidphase@Gu@physx@@QEAAXAEAVPxSerializationContext@3@@Z 00000001800ab5c0 f   GuHybridModel.obj
 0001:000aa5d0       ?importExtraData@RTreeMidphase@Gu@physx@@QEAAXAEAVPxDeserializationContext@3@@Z 00000001800ab5d0 f   GuHybridModel.obj
 0001:000aa5e0       ?exportExtraData@InternalTriangleMesh@physx@@QEAAXAEAVPxSerializationContext@2@@Z 00000001800ab5e0 f   GuInternalTriangleMesh.obj
 0001:000aa740       ?importExtraData@InternalTriangleMesh@physx@@QEAAXAEAVPxDeserializationContext@2@@Z 00000001800ab740 f   GuInternalTriangleMesh.obj
 0001:000aa8b0       ??0InternalTriangleMesh@physx@@QEAA@XZ 00000001800ab8b0 f   GuInternalTriangleMesh.obj
 0001:000aa950       ??1InternalTriangleMesh@physx@@QEAA@XZ 00000001800ab950 f   GuInternalTriangleMesh.obj
 0001:000aa980       ?release@InternalTriangleMesh@physx@@QEAAXXZ 00000001800ab980 f   GuInternalTriangleMesh.obj
 0001:000aaa60       ?allocateVertices@InternalTriangleMesh@physx@@QEAAPEAVPxVec3@2@I@Z 00000001800aba60 f   GuInternalTriangleMesh.obj
 0001:000aaaa0       ?allocateTriangles@InternalTriangleMesh@physx@@QEAAPEAXI_N@Z 00000001800abaa0 f   GuInternalTriangleMesh.obj
 0001:000aab30       ?allocateMaterials@InternalTriangleMesh@physx@@QEAAPEAGXZ 00000001800abb30 f   GuInternalTriangleMesh.obj
 0001:000aac00       ?allocateFaceRemap@InternalTriangleMesh@physx@@QEAAPEAIXZ 00000001800abc00 f   GuInternalTriangleMesh.obj
 0001:000aacd0       ?allocateAdjacencies@InternalTriangleMesh@physx@@QEAAPEAIXZ 00000001800abcd0 f   GuInternalTriangleMesh.obj
 0001:000aada0       ?loadRTree@InternalTriangleMesh@physx@@QEAA_NAEAVPxInputStream@2@I@Z 00000001800abda0 f   GuInternalTriangleMesh.obj
 0001:000aae70       ?setupMeshInterface@InternalTriangleMesh@physx@@QEAAXXZ 00000001800abe70 f   GuInternalTriangleMesh.obj
 0001:000aaeb0       ??0MeshInterface@Gu@physx@@QEAA@XZ 00000001800abeb0 f   GuMeshInterface.obj
 0001:000aaed0       ??1MeshInterface@Gu@physx@@QEAA@XZ 00000001800abed0 f   GuMeshInterface.obj
 0001:000aaee0       ?SetPointers@MeshInterface@Gu@physx@@QEAA_NPEBX_NPEBVPxVec3@3@@Z 00000001800abee0 f   GuMeshInterface.obj
 0001:000aaf40       ?IsValid@MeshInterface@Gu@physx@@QEBA_NXZ 00000001800abf40 f   GuMeshInterface.obj
 0001:000aaf70       ?CheckTopology@MeshInterface@Gu@physx@@QEBAIXZ 00000001800abf70 f   GuMeshInterface.obj
 0001:000ab020       ?getTriangle@PxMeshQuery@physx@@SAXAEBVPxTriangleMeshGeometry@2@AEBVPxTransform@2@IAEAVPxTriangle@2@PEAI3@Z 00000001800ac020 f   GuMeshQuery.obj
 0001:000ab400       ?getTriangle@PxMeshQuery@physx@@SAXAEBVPxHeightFieldGeometry@2@AEBVPxTransform@2@IAEAVPxTriangle@2@PEAI3@Z 00000001800ac400 f   GuMeshQuery.obj
 0001:000ab480       ?findOverlapTriangleMesh@PxMeshQuery@physx@@SAIAEBVPxGeometry@2@AEBVPxTransform@2@AEBVPxTriangleMeshGeometry@2@1PEAIIIAEA_N@Z 00000001800ac480 f   GuMeshQuery.obj
 0001:000ab880       ?findOverlapHeightField@PxMeshQuery@physx@@SAIAEBVPxGeometry@2@AEBVPxTransform@2@AEBVPxHeightFieldGeometry@2@1PEAIIIAEA_N@Z 00000001800ac880 f   GuMeshQuery.obj
 0001:000abd70       ?sweep@PxMeshQuery@physx@@SA_NAEBVPxVec3@2@MAEBVPxGeometry@2@AEBVPxTransform@2@IPEBVPxTriangle@2@AEAUPxSweepHit@2@V?$PxFlags@W4Enum@PxHitFlag@physx@@G@2@PEBIM_N@Z 00000001800acd70 f   GuMeshQuery.obj
 0001:000ac000       ??Dphysx@@YA?AVMatrix34@Cm@0@AEBVPxTransform@0@AEBVPxMeshScale@0@@Z 00000001800ad000 f i GuMeshQuery.obj
 0001:000ac670       ??_EHfTrianglesEntityReport2@?A0x177607fb@@UEAAPEAXI@Z 00000001800ad670 f i GuMeshQuery.obj
 0001:000ac670       ??_GHfTrianglesEntityReport2@?A0x177607fb@@UEAAPEAXI@Z 00000001800ad670 f i GuMeshQuery.obj
 0001:000ac6a0       ?basisExtent@PxBounds3@physx@@SA?AV12@AEBVPxVec3@2@AEBVPxMat33@2@0@Z 00000001800ad6a0 f i GuMeshQuery.obj
 0001:000accd0       ?poseExtent@PxBounds3@physx@@SA?AV12@AEBVPxTransform@2@AEBVPxVec3@2@@Z 00000001800adcd0 f i GuMeshQuery.obj
 0001:000ace40       ?collideOBB@MeshRayCollider@Gu@physx@@SAXAEBVBox@23@_NAEBURTreeMidphaseData@23@AEAU?$MeshHitCallback@UPxRaycastHit@physx@@@23@1@Z 00000001800ade40 f   GuMidphase.obj
 0001:000ad120       ??$collide@$00$00@MeshRayCollider@Gu@physx@@SAXAEBVPxVec3@2@0M_NAEBURTreeMidphaseData@12@AEAU?$MeshHitCallback@UPxRaycastHit@physx@@@12@PEBV32@@Z 00000001800ae120 f i GuMidphase.obj
 0001:000ad350       ??$collide@$00$0A@@MeshRayCollider@Gu@physx@@SAXAEBVPxVec3@2@0M_NAEBURTreeMidphaseData@12@AEAU?$MeshHitCallback@UPxRaycastHit@physx@@@12@PEBV32@@Z 00000001800ae350 f i GuMidphase.obj
 0001:000ad580       ??$collide@$0A@$00@MeshRayCollider@Gu@physx@@SAXAEBVPxVec3@2@0M_NAEBURTreeMidphaseData@12@AEAU?$MeshHitCallback@UPxRaycastHit@physx@@@12@PEBV32@@Z 00000001800ae580 f i GuMidphase.obj
 0001:000ad7d0       ??$collide@$0A@$0A@@MeshRayCollider@Gu@physx@@SAXAEBVPxVec3@2@0M_NAEBURTreeMidphaseData@12@AEAU?$MeshHitCallback@UPxRaycastHit@physx@@@12@PEBV32@@Z 00000001800ae7d0 f i GuMidphase.obj
 0001:000ada20       ??0?$RayRTreeCallback@$00$00@@QEAA@AEBURTreeMidphaseData@Gu@physx@@AEAU?$MeshHitCallback@UPxRaycastHit@physx@@@23@IPEA_K2AEBVPxVec3@3@3M_NPEBV53@@Z 00000001800aea20 f i GuMidphase.obj
 0001:000adb80       ??0?$RayRTreeCallback@$00$0A@@@QEAA@AEBURTreeMidphaseData@Gu@physx@@AEAU?$MeshHitCallback@UPxRaycastHit@physx@@@23@IPEA_K2AEBVPxVec3@3@3M_NPEBV53@@Z 00000001800aeb80 f i GuMidphase.obj
 0001:000adce0       ??0?$RayRTreeCallback@$0A@$00@@QEAA@AEBURTreeMidphaseData@Gu@physx@@AEAU?$MeshHitCallback@UPxRaycastHit@physx@@@23@IPEA_K2AEBVPxVec3@3@3M_NPEBV53@@Z 00000001800aece0 f i GuMidphase.obj
 0001:000ade20       ??0?$RayRTreeCallback@$0A@$0A@@@QEAA@AEBURTreeMidphaseData@Gu@physx@@AEAU?$MeshHitCallback@UPxRaycastHit@physx@@@23@IPEA_K2AEBVPxVec3@3@3M_NPEBV53@@Z 00000001800aee20 f i GuMidphase.obj
 0001:000adf60       ??1?$RayRTreeCallback@$00$00@@UEAA@XZ 00000001800aef60 f i GuMidphase.obj
 0001:000adff0       ??1?$RayRTreeCallback@$00$0A@@@UEAA@XZ 00000001800aeff0 f i GuMidphase.obj
 0001:000ae080       ??1?$RayRTreeCallback@$0A@$00@@UEAA@XZ 00000001800af080 f i GuMidphase.obj
 0001:000ae110       ??1?$RayRTreeCallback@$0A@$0A@@@UEAA@XZ 00000001800af110 f i GuMidphase.obj
 0001:000ae1a0       ??1Callback@RTree@Gu@physx@@UEAA@XZ 00000001800af1a0 f i GuMidphase.obj
 0001:000ae1b0       ??1CallbackRaycast@RTree@Gu@physx@@UEAA@XZ 00000001800af1b0 f i GuMidphase.obj
 0001:000ae1bc       ??_E?$RayRTreeCallback@$00$00@@W7EAAPEAXI@Z 00000001800af1bc f i GuMidphase.obj
 0001:000ae1c8       ??_E?$RayRTreeCallback@$00$0A@@@W7EAAPEAXI@Z 00000001800af1c8 f i GuMidphase.obj
 0001:000ae1d4       ??_E?$RayRTreeCallback@$0A@$00@@W7EAAPEAXI@Z 00000001800af1d4 f i GuMidphase.obj
 0001:000ae1e0       ??_E?$RayRTreeCallback@$0A@$0A@@@W7EAAPEAXI@Z 00000001800af1e0 f i GuMidphase.obj
 0001:000ae1f0       ??_G?$RayRTreeCallback@$00$00@@UEAAPEAXI@Z 00000001800af1f0 f i GuMidphase.obj
 0001:000ae1f0       ??_E?$RayRTreeCallback@$00$00@@UEAAPEAXI@Z 00000001800af1f0 f i GuMidphase.obj
 0001:000ae230       ??_G?$RayRTreeCallback@$00$0A@@@UEAAPEAXI@Z 00000001800af230 f i GuMidphase.obj
 0001:000ae230       ??_E?$RayRTreeCallback@$00$0A@@@UEAAPEAXI@Z 00000001800af230 f i GuMidphase.obj
 0001:000ae270       ??_E?$RayRTreeCallback@$0A@$00@@UEAAPEAXI@Z 00000001800af270 f i GuMidphase.obj
 0001:000ae270       ??_G?$RayRTreeCallback@$0A@$00@@UEAAPEAXI@Z 00000001800af270 f i GuMidphase.obj
 0001:000ae2b0       ??_G?$RayRTreeCallback@$0A@$0A@@@UEAAPEAXI@Z 00000001800af2b0 f i GuMidphase.obj
 0001:000ae2b0       ??_E?$RayRTreeCallback@$0A@$0A@@@UEAAPEAXI@Z 00000001800af2b0 f i GuMidphase.obj
 0001:000ae2f0       ??_GCallback@RTree@Gu@physx@@UEAAPEAXI@Z 00000001800af2f0 f i GuMidphase.obj
 0001:000ae2f0       ??_ECallback@RTree@Gu@physx@@UEAAPEAXI@Z 00000001800af2f0 f i GuMidphase.obj
 0001:000ae320       ??_ECallbackRaycast@RTree@Gu@physx@@UEAAPEAXI@Z 00000001800af320 f i GuMidphase.obj
 0001:000ae320       ??_GCallbackRaycast@RTree@Gu@physx@@UEAAPEAXI@Z 00000001800af320 f i GuMidphase.obj
 0001:000ae350       ?processResults@?$RayRTreeCallback@$00$00@@UEAA_NIPEAI@Z 00000001800af350 f i GuMidphase.obj
 0001:000ae730       ?processResults@?$RayRTreeCallback@$00$00@@UEAA_NIPEAIAEAM@Z 00000001800af730 f i GuMidphase.obj
 0001:000aeb10       ?processResults@?$RayRTreeCallback@$00$0A@@@UEAA_NIPEAI@Z 00000001800afb10 f i GuMidphase.obj
 0001:000aedc0       ?processResults@?$RayRTreeCallback@$00$0A@@@UEAA_NIPEAIAEAM@Z 00000001800afdc0 f i GuMidphase.obj
 0001:000af080       ?processResults@?$RayRTreeCallback@$0A@$00@@UEAA_NIPEAI@Z 00000001800b0080 f i GuMidphase.obj
 0001:000af700       ?processResults@?$RayRTreeCallback@$0A@$00@@UEAA_NIPEAIAEAM@Z 00000001800b0700 f i GuMidphase.obj
 0001:000afda0       ?processResults@?$RayRTreeCallback@$0A@$0A@@@UEAA_NIPEAI@Z 00000001800b0da0 f i GuMidphase.obj
 0001:000b0050       ?processResults@?$RayRTreeCallback@$0A@$0A@@@UEAA_NIPEAIAEAM@Z 00000001800b1050 f i GuMidphase.obj
 0001:000b0310       ?profile@Callback@RTree@Gu@physx@@UEAAXXZ 00000001800b1310 f i GuMidphase.obj
 0001:000b0320       ?findOverlapSphereMesh@Gu@physx@@YAIAEBVSphere@12@AEBVRTreeMidphase@12@AEBVPxTransform@2@AEBVPxMeshScale@2@PEIAIIIAEA_N@Z 00000001800b1320 f   GuOverlapTestsMesh.obj
 0001:000b03f0       ?findOverlapCapsuleMesh@Gu@physx@@YAIAEBVCapsule@12@AEBVRTreeMidphase@12@AEBVPxTransform@2@AEBVPxMeshScale@2@PEIAIIIAEA_N@Z 00000001800b13f0 f   GuOverlapTestsMesh.obj
 0001:000b04c0       ?findOverlapOBBMesh@Gu@physx@@YAIAEBVBox@12@AEBVRTreeMidphase@12@AEBVPxTransform@2@AEBVPxMeshScale@2@PEIAIIIAEA_N@Z 00000001800b14c0 f   GuOverlapTestsMesh.obj
 0001:000b0590       ?checkOverlapOBB_triangleGeom@Gu@physx@@YA_NAEBVPxGeometry@2@AEBVPxTransform@2@AEBVBox@12@@Z 00000001800b1590 f   GuOverlapTestsMesh.obj
 0001:000b0610       ?checkOverlapSphere_triangleGeom@@YA_NAEBVPxGeometry@physx@@AEBVPxTransform@2@AEBVSphere@Gu@2@@Z 00000001800b1610 f   GuOverlapTestsMesh.obj
 0001:000b0690       ?checkOverlapCapsule_triangleGeom@@YA_NAEBVPxGeometry@physx@@AEBVPxTransform@2@AEBVCapsule@Gu@2@@Z 00000001800b1690 f   GuOverlapTestsMesh.obj
 0001:000b0710       ?GeomOverlapCallback_SphereMesh@@YA_NAEBVPxGeometry@physx@@AEBVPxTransform@2@01PEAUTriggerCache@Gu@2@@Z 00000001800b1710 f   GuOverlapTestsMesh.obj
 0001:000b07c0       ?GeomOverlapCallback_CapsuleMesh@@YA_NAEBVPxGeometry@physx@@AEBVPxTransform@2@01PEAUTriggerCache@Gu@2@@Z 00000001800b17c0 f   GuOverlapTestsMesh.obj
 0001:000b0930       ?GeomOverlapCallback_BoxMesh@@YA_NAEBVPxGeometry@physx@@AEBVPxTransform@2@01PEAUTriggerCache@Gu@2@@Z 00000001800b1930 f   GuOverlapTestsMesh.obj
 0001:000b0b70       ?GeomOverlapCallback_ConvexMesh@@YA_NAEBVPxGeometry@physx@@AEBVPxTransform@2@01PEAUTriggerCache@Gu@2@@Z 00000001800b1b70 f   GuOverlapTestsMesh.obj
 0001:000b3080       ??0ConvexVsMeshOverlapCallback@@QEAA@AEBVConvexMesh@Gu@physx@@AEBVPxMeshScale@3@AEBVFastVertex2ShapeScaling@Cm@3@AEBVPxTransform@3@3_NAEBVBox@23@@Z 00000001800b4080 f i GuOverlapTestsMesh.obj
 0001:000b3b50       ??1?$IntersectAnyVsMeshCallback@$00$00@@UEAA@XZ 00000001800b4b50 f i GuOverlapTestsMesh.obj
 0001:000b3b60       ??1?$IntersectAnyVsMeshCallback@$00$0A@@@UEAA@XZ 00000001800b4b60 f i GuOverlapTestsMesh.obj
 0001:000b3b70       ??1?$IntersectAnyVsMeshCallback@$01$00@@UEAA@XZ 00000001800b4b70 f i GuOverlapTestsMesh.obj
 0001:000b3b80       ??1?$IntersectAnyVsMeshCallback@$01$0A@@@UEAA@XZ 00000001800b4b80 f i GuOverlapTestsMesh.obj
 0001:000b3b90       ??1?$IntersectAnyVsMeshCallback@$0A@$00@@UEAA@XZ 00000001800b4b90 f i GuOverlapTestsMesh.obj
 0001:000b3ba0       ??1?$IntersectAnyVsMeshCallback@$0A@$0A@@@UEAA@XZ 00000001800b4ba0 f i GuOverlapTestsMesh.obj
 0001:000b3bb0       ??1ConvexVsMeshOverlapCallback@@UEAA@XZ 00000001800b4bb0 f i GuOverlapTestsMesh.obj
 0001:000b3bc0       ??_E?$IntersectAnyVsMeshCallback@$00$00@@UEAAPEAXI@Z 00000001800b4bc0 f i GuOverlapTestsMesh.obj
 0001:000b3bc0       ??_G?$IntersectAnyVsMeshCallback@$00$00@@UEAAPEAXI@Z 00000001800b4bc0 f i GuOverlapTestsMesh.obj
 0001:000b3bf0       ??_E?$IntersectAnyVsMeshCallback@$00$0A@@@UEAAPEAXI@Z 00000001800b4bf0 f i GuOverlapTestsMesh.obj
 0001:000b3bf0       ??_G?$IntersectAnyVsMeshCallback@$00$0A@@@UEAAPEAXI@Z 00000001800b4bf0 f i GuOverlapTestsMesh.obj
 0001:000b3c20       ??_E?$IntersectAnyVsMeshCallback@$01$00@@UEAAPEAXI@Z 00000001800b4c20 f i GuOverlapTestsMesh.obj
 0001:000b3c20       ??_G?$IntersectAnyVsMeshCallback@$01$00@@UEAAPEAXI@Z 00000001800b4c20 f i GuOverlapTestsMesh.obj
 0001:000b3c50       ??_E?$IntersectAnyVsMeshCallback@$01$0A@@@UEAAPEAXI@Z 00000001800b4c50 f i GuOverlapTestsMesh.obj
 0001:000b3c50       ??_G?$IntersectAnyVsMeshCallback@$01$0A@@@UEAAPEAXI@Z 00000001800b4c50 f i GuOverlapTestsMesh.obj
 0001:000b3c80       ??_G?$IntersectAnyVsMeshCallback@$0A@$00@@UEAAPEAXI@Z 00000001800b4c80 f i GuOverlapTestsMesh.obj
 0001:000b3c80       ??_E?$IntersectAnyVsMeshCallback@$0A@$00@@UEAAPEAXI@Z 00000001800b4c80 f i GuOverlapTestsMesh.obj
 0001:000b3cb0       ??_E?$IntersectAnyVsMeshCallback@$0A@$0A@@@UEAAPEAXI@Z 00000001800b4cb0 f i GuOverlapTestsMesh.obj
 0001:000b3cb0       ??_G?$IntersectAnyVsMeshCallback@$0A@$0A@@@UEAAPEAXI@Z 00000001800b4cb0 f i GuOverlapTestsMesh.obj
 0001:000b3ce0       ??_EConvexVsMeshOverlapCallback@@UEAAPEAXI@Z 00000001800b4ce0 f i GuOverlapTestsMesh.obj
 0001:000b3ce0       ??_GConvexVsMeshOverlapCallback@@UEAAPEAXI@Z 00000001800b4ce0 f i GuOverlapTestsMesh.obj
 0001:000b3d10       ?computeSweptAABBAroundOBB@Gu@physx@@YAXAEBVBox@12@AEAVPxVec3@2@11AEAM@Z 00000001800b4d10 f i GuOverlapTestsMesh.obj
 0001:000b3eb0       ?processHit@?$IntersectAnyVsMeshCallback@$00$00@@UEAA_NAEBUPxRaycastHit@physx@@AEBVPxVec3@3@11AEAMPEBI@Z 00000001800b4eb0 f i GuOverlapTestsMesh.obj
 0001:000b4040       ?processHit@?$IntersectAnyVsMeshCallback@$00$0A@@@UEAA_NAEBUPxRaycastHit@physx@@AEBVPxVec3@3@11AEAMPEBI@Z 00000001800b5040 f i GuOverlapTestsMesh.obj
 0001:000b4300       ?processHit@?$IntersectAnyVsMeshCallback@$01$00@@UEAA_NAEBUPxRaycastHit@physx@@AEBVPxVec3@3@11AEAMPEBI@Z 00000001800b5300 f i GuOverlapTestsMesh.obj
 0001:000b4560       ?processHit@?$IntersectAnyVsMeshCallback@$01$0A@@@UEAA_NAEBUPxRaycastHit@physx@@AEBVPxVec3@3@11AEAMPEBI@Z 00000001800b5560 f i GuOverlapTestsMesh.obj
 0001:000b47d0       ?processHit@?$IntersectAnyVsMeshCallback@$0A@$00@@UEAA_NAEBUPxRaycastHit@physx@@AEBVPxVec3@3@11AEAMPEBI@Z 00000001800b57d0 f i GuOverlapTestsMesh.obj
 0001:000b4940       ?processHit@?$IntersectAnyVsMeshCallback@$0A@$0A@@@UEAA_NAEBUPxRaycastHit@physx@@AEBVPxVec3@3@11AEAMPEBI@Z 00000001800b5940 f i GuOverlapTestsMesh.obj
 0001:000b4be0       ?processHit@ConvexVsMeshOverlapCallback@@UEAA_NAEBUPxRaycastHit@physx@@AEBVPxVec3@3@11AEAMPEBI@Z 00000001800b5be0 f i GuOverlapTestsMesh.obj
 0001:000b4f60       ?transformBoxOrthonormal@physx@@YA?AVBox@Gu@1@AEBV231@AEBVPxTransform@1@@Z 00000001800b5f60 f i GuOverlapTestsMesh.obj
 0001:000b53f0       ??0RTree@Gu@physx@@QEAA@AEBW4PxEMPTY@2@@Z 00000001800b63f0 f   GuRTree.obj
 0001:000b5400       ?exportExtraData@RTree@Gu@physx@@QEAAXAEAVPxSerializationContext@3@@Z 00000001800b6400 f   GuRTree.obj
 0001:000b5450       ?importExtraData@RTree@Gu@physx@@QEAAXAEAVPxDeserializationContext@3@@Z 00000001800b6450 f   GuRTree.obj
 0001:000b5480       ??0RTree@Gu@physx@@QEAA@XZ 00000001800b6480 f   GuRTree.obj
 0001:000b54a0       ?release@RTree@Gu@physx@@QEAAXXZ 00000001800b64a0 f   GuRTree.obj
 0001:000b54e0       ?save@RTree@Gu@physx@@QEBA_NAEAVPxOutputStream@3@@Z 00000001800b64e0 f   GuRTree.obj
 0001:000b56c0       ?load@RTree@Gu@physx@@QEAA_NAEAVPxInputStream@3@I@Z 00000001800b66c0 f   GuRTree.obj
 0001:000b5940       ?validate@RTree@Gu@physx@@QEAAXXZ 00000001800b6940 f   GuRTree.obj
 0001:000b59a0       ?computeBottomLevelCount@RTree@Gu@physx@@QEBAII@Z 00000001800b69a0 f   GuRTree.obj
 0001:000b5a90       ?validateRecursive@RTree@Gu@physx@@IEAAXIURTreeNodeQ@23@PEAURTreePage@23@@Z 00000001800b6a90 f   GuRTree.obj
 0001:000b5bb0       ?traverseAABB@RTree@Gu@physx@@QEBAXAEBVPxVec3@3@0IPEAIPEAUCallback@123@@Z 00000001800b6bb0 f   GuRTreeQueries.obj
 0001:000b5dc0       ?traverseOBB@RTree@Gu@physx@@QEBAXAEBVBox@23@IPEAIPEAUCallback@123@@Z 00000001800b6dc0 f   GuRTreeQueries.obj
 0001:000b6740       ??$traverseRay@$00@RTree@Gu@physx@@QEBAXAEBVPxVec3@2@0IPEAIPEAUCallbackRaycast@012@PEBV32@M@Z 00000001800b7740 f i GuRTreeQueries.obj
 0001:000b6b30       ??$traverseRay@$0A@@RTree@Gu@physx@@QEBAXAEBVPxVec3@2@0IPEAIPEAUCallbackRaycast@012@PEBV32@M@Z 00000001800b7b30 f i GuRTreeQueries.obj
 0001:000b6ec0       ?sweepCapsule_MeshGeom@@YA_NAEBVPxGeometry@physx@@AEBVPxTransform@2@AEBVCapsule@Gu@2@AEBVPxVec3@2@MAEAUPxSweepHit@2@V?$PxFlags@W4Enum@PxHitFlag@physx@@G@2@M@Z 00000001800b7ec0 f   GuSweepsMesh.obj
 0001:000b7910       ?sweepBox_MeshGeom@@YA_NAEBVPxGeometry@physx@@AEBVPxTransform@2@AEBVBox@Gu@2@AEBVPxVec3@2@MAEAUPxSweepHit@2@V?$PxFlags@W4Enum@PxHitFlag@physx@@G@2@M@Z 00000001800b8910 f   GuSweepsMesh.obj
 0001:000b93e0       ?sweepConvex_MeshGeom@@YA_NAEBVPxGeometry@physx@@AEBVPxTransform@2@AEBVPxConvexMeshGeometry@2@1AEBVPxVec3@2@MAEAUPxSweepHit@2@V?$PxFlags@W4Enum@PxHitFlag@physx@@G@2@M@Z 00000001800ba3e0 f   GuSweepsMesh.obj
 0001:000b9c70       ??0ConvexVsMeshSweepCallback@@QEAA@AEBUConvexHullData@Gu@physx@@AEBVPxMeshScale@3@AEBVFastVertex2ShapeScaling@Cm@3@AEBVPxTransform@3@3AEBVPxVec3@3@MV?$PxFlags@W4Enum@PxHitFlag@physx@@G@3@_NM6@Z 00000001800bac70 f i GuSweepsMesh.obj
 0001:000ba770       ??0SweepBoxMeshHitCallback@@QEAA@W4Enum@CallbackMode@Gu@physx@@AEBVMatrix34Padded@@MM_NAEBVBox@34@AEBVPxVec3@4@44AEBV?$PxFlags@W4Enum@PxHitFlag@physx@@G@4@M@Z 00000001800bb770 f i GuSweepsMesh.obj
 0001:000ba8a0       ??1ConvexVsMeshSweepCallback@@UEAA@XZ 00000001800bb8a0 f i GuSweepsMesh.obj
 0001:000ba8b0       ??1SweepBoxMeshHitCallback@@UEAA@XZ 00000001800bb8b0 f i GuSweepsMesh.obj
 0001:000ba8c0       ??_GConvexVsMeshSweepCallback@@UEAAPEAXI@Z 00000001800bb8c0 f i GuSweepsMesh.obj
 0001:000ba8c0       ??_EConvexVsMeshSweepCallback@@UEAAPEAXI@Z 00000001800bb8c0 f i GuSweepsMesh.obj
 0001:000ba8f0       ??_ESweepBoxMeshHitCallback@@UEAAPEAXI@Z 00000001800bb8f0 f i GuSweepsMesh.obj
 0001:000ba8f0       ??_GSweepBoxMeshHitCallback@@UEAAPEAXI@Z 00000001800bb8f0 f i GuSweepsMesh.obj
 0001:000ba920       ??_GSweepCapsuleCallback@@UEAAPEAXI@Z 00000001800bb920 f i GuSweepsMesh.obj
 0001:000ba920       ??_ESweepCapsuleCallback@@UEAAPEAXI@Z 00000001800bb920 f i GuSweepsMesh.obj
 0001:000ba950       ?finalize@SweepCapsuleCallback@@QEAA_NAEAUPxSweepHit@physx@@AEBVCapsule@Gu@3@AEBVPxTriangleMeshGeometry@3@AEBVPxTransform@3@_NM@Z 00000001800bb950 f i GuSweepsMesh.obj
 0001:000bab60       ?processHit@ConvexVsMeshSweepCallback@@UEAA_NAEBUPxRaycastHit@physx@@AEBVPxVec3@3@11AEAMPEBI@Z 00000001800bbb60 f i GuSweepsMesh.obj
 0001:000bb290       ?processHit@SweepBoxMeshHitCallback@@UEAA_NAEBUPxRaycastHit@physx@@AEBVPxVec3@3@11AEAMPEBI@Z 00000001800bc290 f i GuSweepsMesh.obj
 0001:000bb9c0       ?processHit@SweepCapsuleCallback@@UEAA_NAEBUPxRaycastHit@physx@@AEBVPxVec3@3@11AEAMPEBI@Z 00000001800bc9c0 f i GuSweepsMesh.obj
 0001:000bc1e0       ?onRefCountZero@TriangleMesh@Gu@physx@@UEAAXXZ 00000001800bd1e0 f   GuTriangleMesh.obj
 0001:000bc280       ?exportExtraData@TriangleMesh@Gu@physx@@UEAAXAEAVPxSerializationContext@3@@Z 00000001800bd280 f   GuTriangleMesh.obj
 0001:000bc290       ?importExtraData@TriangleMesh@Gu@physx@@QEAAXAEAVPxDeserializationContext@3@@Z 00000001800bd290 f   GuTriangleMesh.obj
 0001:000bc2a0       ?createObject@TriangleMesh@Gu@physx@@SAPEAV123@AEAPEAEAEAVPxDeserializationContext@3@@Z 00000001800bd2a0 f   GuTriangleMesh.obj
 0001:000bc310       ??0TriangleMesh@Gu@physx@@QEAA@XZ 00000001800bd310 f   GuTriangleMesh.obj
 0001:000bc3c0       ?load@TriangleMesh@Gu@physx@@QEAA_NAEAVPxInputStream@3@@Z 00000001800bd3c0 f   GuTriangleMesh.obj
 0001:000bc9a0       ?setupMeshInterface@TriangleMesh@Gu@physx@@QEAAXXZ 00000001800bd9a0 f   GuTriangleMesh.obj
 0001:000bc9d0       ?checkMeshIndicesSize@TriangleMesh@Gu@physx@@QEAAXXZ 00000001800bd9d0 f   GuTriangleMesh.obj
 0001:000bca80       ?release@TriangleMesh@Gu@physx@@UEAAXXZ 00000001800bda80 f   GuTriangleMesh.obj
 0001:000bcae0       ?getReferenceCount@TriangleMesh@Gu@physx@@UEBAIXZ 00000001800bdae0 f   GuTriangleMesh.obj
 0001:000bcaf0       ??1TriangleMesh@Gu@physx@@UEAA@XZ 00000001800bdaf0 f   GuTriangleMesh.obj
 0001:000bcb50       ?debugVisualize@TriangleMesh@Gu@physx@@QEBAXAEAVRenderOutput@Cm@3@AEBVMatrix34@53@AEBVPxMeshScale@3@AEBVPxBounds3@3@_KMI@Z 00000001800bdb50 f   GuTriangleMesh.obj
 0001:000be050       ?exportExtraData@HeightField@Gu@physx@@UEAAXAEAVPxSerializationContext@3@@Z 00000001800bf050 f   GuHeightField.obj
 0001:000be0b0       ?importExtraData@HeightField@Gu@physx@@QEAAXAEAVPxDeserializationContext@3@@Z 00000001800bf0b0 f   GuHeightField.obj
 0001:000be0e0       ?createObject@HeightField@Gu@physx@@SAPEAV123@AEAPEAEAEAVPxDeserializationContext@3@@Z 00000001800bf0e0 f   GuHeightField.obj
 0001:000be170       ??0HeightField@Gu@physx@@QEAA@PEAVGuMeshFactory@2@@Z 00000001800bf170 f   GuHeightField.obj
 0001:000be1f0       ?release@HeightField@Gu@physx@@UEAAXXZ 00000001800bf1f0 f   GuHeightField.obj
 0001:000be250       ?saveCells@HeightField@Gu@physx@@UEBAIPEAXI@Z 00000001800bf250 f   GuHeightField.obj
 0001:000be290       ?modifySamples@HeightField@Gu@physx@@UEAA_NHHAEBVPxHeightFieldDesc@3@_N@Z 00000001800bf290 f   GuHeightField.obj
 0001:000be5f0       ?getReferenceCount@HeightField@Gu@physx@@UEBAIXZ 00000001800bf5f0 f   GuHeightField.obj
 0001:000be600       ?onRefCountZero@HeightField@Gu@physx@@UEAAXXZ 00000001800bf600 f   GuHeightField.obj
 0001:000be6a0       ?loadFromDesc@HeightField@Gu@physx@@QEAA_NAEBVPxHeightFieldDesc@3@_N@Z 00000001800bf6a0 f   GuHeightField.obj
 0001:000be8b0       ?load@HeightField@Gu@physx@@QEAA_NAEAVPxInputStream@3@@Z 00000001800bf8b0 f   GuHeightField.obj
 0001:000beb60       ?computeCellCoordinates@HeightField@Gu@physx@@QEBAIMMAEAM0@Z 00000001800bfb60 f   GuHeightField.obj
 0001:000bec70       ?isSolidVertex@HeightField@Gu@physx@@QEBA_NIIIGAEA_N@Z 00000001800bfc70 f   GuHeightField.obj
 0001:000bedf0       ?isCollisionVertexPreca@HeightField@Gu@physx@@QEBA_NIIIG@Z 00000001800bfdf0 f   GuHeightField.obj
 0001:000beea0       ?parseTrianglesForCollisionVertices@HeightField@Gu@physx@@QEAAXG@Z 00000001800bfea0 f   GuHeightField.obj
 0001:000bf300       ?computeExtreme@HeightField@Gu@physx@@QEBAMIIII@Z 00000001800c0300 f   GuHeightField.obj
 0001:000bf3f0       ?releaseMemory@HeightField@Gu@physx@@QEAAX_N@Z 00000001800c03f0 f   GuHeightField.obj
 0001:000bf430       ??1HeightField@Gu@physx@@UEAA@XZ 00000001800c0430 f   GuHeightField.obj
 0001:000bf490       ?getVertexEdgeIndices@physx@@YAIAEBVHeightField@Gu@1@IIIQEAUEdgeData@1@@Z 00000001800c0490 f   GuHeightField.obj
 0001:000bf670       ?getEdgeTriangleIndices@physx@@YAIAEBVHeightField@Gu@1@AEBUEdgeData@1@PEIAI@Z 00000001800c0670 f   GuHeightField.obj
 0001:000bf7a0       ??0?$BitMapBase@VAllocator@shdfnd@physx@@@Cm@physx@@QEAA@XZ 00000001800c07a0 f i GuHeightField.obj
 0001:000bf7b0       ??1?$BitMapBase@VAllocator@shdfnd@physx@@@Cm@physx@@QEAA@XZ 00000001800c07b0 f i GuHeightField.obj
 0001:000bf7d0       ??_EHeightField@Gu@physx@@UEAAPEAXI@Z 00000001800c07d0 f i GuHeightField.obj
 0001:000bf968       ??_EHeightField@Gu@physx@@WBA@EAAPEAXI@Z 00000001800c0968 f i GuHeightField.obj
 0001:000bf980       ??_EPxHeightField@physx@@MEAAPEAXI@Z 00000001800c0980 f i GuHeightField.obj
 0001:000bfa10       ?clear@?$BitMapBase@VAllocator@shdfnd@physx@@@Cm@physx@@QEAAXI@Z 00000001800c0a10 f i GuHeightField.obj
 0001:000bfa90       ?isConvexVertex@HeightField@Gu@physx@@QEBA_NIII@Z 00000001800c0a90 f i GuHeightField.obj
 0001:000bfba0       ?requires@HeightField@Gu@physx@@UEAAXAEAVPxProcessPxBaseCallback@3@@Z 00000001800c0ba0 f i GuHeightField.obj
 0001:000bfbb0       ?computeLocalBounds@HeightFieldUtil@Gu@physx@@QEBAXAEAVPxBounds3@3@@Z 00000001800c0bb0 f   GuHeightFieldUtil.obj
 0001:000bfec0       ?isCollisionEdge@HeightFieldUtil@Gu@physx@@QEBA_NI@Z 00000001800c0ec0 f   GuHeightFieldUtil.obj
 0001:000bfff0       ?isCollisionEdge@HeightFieldUtil@Gu@physx@@QEBA_NIIPEIBIIII@Z 00000001800c0ff0 f   GuHeightFieldUtil.obj
 0001:000c00d0       ?isBoundaryEdge@HeightFieldUtil@Gu@physx@@QEBA_NI@Z 00000001800c10d0 f   GuHeightFieldUtil.obj
 0001:000c01a0       ?getFaceIndexAtShapePoint@HeightFieldUtil@Gu@physx@@QEBAIMM@Z 00000001800c11a0 f   GuHeightFieldUtil.obj
 0001:000c02c0       ?getFaceIndexAtShapePointNoTest@HeightFieldUtil@Gu@physx@@QEBAIMM@Z 00000001800c12c0 f   GuHeightFieldUtil.obj
 0001:000c0370       ?getFaceIndexAtShapePointNoTest2@HeightFieldUtil@Gu@physx@@QEBAIIMM@Z 00000001800c1370 f   GuHeightFieldUtil.obj
 0001:000c03e0       ?getFaceIndexAtTriangleIndex@HeightFieldUtil@Gu@physx@@QEBAII@Z 00000001800c13e0 f   GuHeightFieldUtil.obj
 0001:000c0430       ?getSmoothNormalAtShapePoint@HeightFieldUtil@Gu@physx@@QEBA?AVPxVec3@3@MM@Z 00000001800c1430 f   GuHeightFieldUtil.obj
 0001:000c08c0       ?getVertexNormal@HeightFieldUtil@Gu@physx@@QEBA?AVPxVec3@3@III@Z 00000001800c18c0 f   GuHeightFieldUtil.obj
 0001:000c0c30       ?getVertexFaceIndex@HeightFieldUtil@Gu@physx@@QEBAIIII@Z 00000001800c1c30 f   GuHeightFieldUtil.obj
 0001:000c0d60       ?getEdge@HeightFieldUtil@Gu@physx@@QEBAXIIIIAEAVPxVec3@3@0@Z 00000001800c1d60 f   GuHeightFieldUtil.obj
 0001:000c0fb0       ?getEdgeFaceIndex@HeightFieldUtil@Gu@physx@@QEBAII@Z 00000001800c1fb0 f   GuHeightFieldUtil.obj
 0001:000c1070       ?getEdgeFaceIndex@HeightFieldUtil@Gu@physx@@QEBAIIIII@Z 00000001800c2070 f   GuHeightFieldUtil.obj
 0001:000c1140       ?getEdgeFaceIndex@HeightFieldUtil@Gu@physx@@QEBAIIIPEIBI@Z 00000001800c2140 f   GuHeightFieldUtil.obj
 0001:000c11f0       ?findClosestPointsOnCell@HeightFieldUtil@Gu@physx@@QEBAIIIVPxVec3@3@PEIAV43@PEIAI_N33@Z 00000001800c21f0 f   GuHeightFieldUtil.obj
 0001:000c19b0       ?findProjectionOnTriangle@HeightFieldUtil@Gu@physx@@QEBA_NIIIAEBVPxVec3@3@AEAV43@@Z 00000001800c29b0 f   GuHeightFieldUtil.obj
 0001:000c1c70       ?findClosestPointOnEdge@HeightFieldUtil@Gu@physx@@QEBAMIIIIAEBVPxVec3@3@AEAV43@@Z 00000001800c2c70 f   GuHeightFieldUtil.obj
 0001:000c1f70       ?getTriangle@HeightFieldUtil@Gu@physx@@QEBAIAEBVPxTransform@3@AEAVPxTriangle@3@PEAI2I_N3@Z 00000001800c2f70 f   GuHeightFieldUtil.obj
 0001:000c25d0       ?overlapAABBTriangles@HeightFieldUtil@Gu@physx@@QEBA_NAEBVPxTransform@3@AEBVPxBounds3@3@IPEAV?$EntityReport@I@23@@Z 00000001800c35d0 f   GuHeightFieldUtil.obj
 0001:000c2c70       ?getEdgeTriangleIndices@HeightField@Gu@physx@@QEBAIIQEAI@Z 00000001800c3c70 f i GuHeightFieldUtil.obj
 0001:000c2da0       ?getEdgeTriangleIndices@HeightField@Gu@physx@@QEBAIIQEAIIII@Z 00000001800c3da0 f i GuHeightFieldUtil.obj
 0001:000c2ec0       ?getTriangleAdjacencyIndices@HeightField@Gu@physx@@QEBAXIIIIAEAI00@Z 00000001800c3ec0 f i GuHeightFieldUtil.obj
 0001:000c3040       ?getTriangleVertexIndices@HeightField@Gu@physx@@QEBAXIAEAI00@Z 00000001800c4040 f i GuHeightFieldUtil.obj
 0001:000c30f0       ?isConvexEdge@HeightField@Gu@physx@@QEBA_NIIII@Z 00000001800c40f0 f i GuHeightFieldUtil.obj
 0001:000c3290       ?intersectHeightFieldSphere@Gu@physx@@YA_NAEBVHeightFieldUtil@12@AEBVSphere@12@@Z 00000001800c4290 f   GuOverlapTestsHF.obj
 0001:000c3640       ?intersectHeightFieldCapsule@Gu@physx@@YA_NAEBVHeightFieldUtil@12@AEBVCapsule@12@@Z 00000001800c4640 f   GuOverlapTestsHF.obj
 0001:000c3d00       ?intersectHeightFieldBox@Gu@physx@@YA_NAEBVHeightFieldUtil@12@AEBVBox@12@@Z 00000001800c4d00 f   GuOverlapTestsHF.obj
 0001:000c4a30       ?intersectHeightFieldConvex@Gu@physx@@YA_NAEBVHeightFieldUtil@12@AEBVPxTransform@2@AEBVConvexMesh@12@1AEBVPxMeshScale@2@@Z 00000001800c5a30 f   GuOverlapTestsHF.obj
 0001:000c5fd0       ?checkOverlapSphere_heightFieldGeom@Gu@physx@@YA_NAEBVPxGeometry@2@AEBVPxTransform@2@AEBVSphere@12@@Z 00000001800c6fd0 f   GuOverlapTestsHF.obj
 0001:000c6350       ?checkOverlapOBB_heightFieldGeom@Gu@physx@@YA_NAEBVPxGeometry@2@AEBVPxTransform@2@AEBVBox@12@@Z 00000001800c7350 f   GuOverlapTestsHF.obj
 0001:000c6930       ?checkOverlapCapsule_heightFieldGeom@Gu@physx@@YA_NAEBVPxGeometry@2@AEBVPxTransform@2@AEBVCapsule@12@@Z 00000001800c7930 f   GuOverlapTestsHF.obj
 0001:000c6d70       ?GeomOverlapCallback_SphereHeightfield@@YA_NAEBVPxGeometry@physx@@AEBVPxTransform@2@01PEAUTriggerCache@Gu@2@@Z 00000001800c7d70 f   GuOverlapTestsHF.obj
 0001:000c6f50       ?GeomOverlapCallback_PlaneHeightfield@@YA_NAEBVPxGeometry@physx@@AEBVPxTransform@2@01PEAUTriggerCache@Gu@2@@Z 00000001800c7f50 f   GuOverlapTestsHF.obj
 0001:000c6f60       ?GeomOverlapCallback_CapsuleHeightfield@@YA_NAEBVPxGeometry@physx@@AEBVPxTransform@2@01PEAUTriggerCache@Gu@2@@Z 00000001800c7f60 f   GuOverlapTestsHF.obj
 0001:000c7220       ?GeomOverlapCallback_BoxHeightfield@@YA_NAEBVPxGeometry@physx@@AEBVPxTransform@2@01PEAUTriggerCache@Gu@2@@Z 00000001800c8220 f   GuOverlapTestsHF.obj
 0001:000c75a0       ?GeomOverlapCallback_ConvexHeightfield@@YA_NAEBVPxGeometry@physx@@AEBVPxTransform@2@01PEAUTriggerCache@Gu@2@@Z 00000001800c85a0 f   GuOverlapTestsHF.obj
 0001:000c7610       ??$traceSegment@UTriggerTraceSegmentCallback@Gu@physx@@$0A@$0A@$0A@@HeightFieldUtil@Gu@physx@@QEBAXAEBVPxVec3@2@0PEAUTriggerTraceSegmentCallback@12@PEBV32@@Z 00000001800c8610 f i GuOverlapTestsHF.obj
 0001:000c8310       ?sweepCapsule_HeightFieldGeom@@YA_NAEBVPxGeometry@physx@@AEBVPxTransform@2@AEBVCapsule@Gu@2@AEBVPxVec3@2@MAEAUPxSweepHit@2@V?$PxFlags@W4Enum@PxHitFlag@physx@@G@2@M@Z 00000001800c9310 f   GuSweepsHF.obj
 0001:000c8c70       ?sweepConvex_HeightFieldGeom@@YA_NAEBVPxGeometry@physx@@AEBVPxTransform@2@AEBVPxConvexMeshGeometry@2@1AEBVPxVec3@2@MAEAUPxSweepHit@2@V?$PxFlags@W4Enum@PxHitFlag@physx@@G@2@M@Z 00000001800c9c70 f   GuSweepsHF.obj
 0001:000c9790       ?sweepBox_HeightFieldGeom@@YA_NAEBVPxGeometry@physx@@AEBVPxTransform@2@AEBVBox@Gu@2@AEBVPxVec3@2@MAEAUPxSweepHit@2@V?$PxFlags@W4Enum@PxHitFlag@physx@@G@2@M@Z 00000001800ca790 f   GuSweepsHF.obj
 0001:000ca550       ??$traceSegment@UBoxTraceSegmentReport@@$0A@$0A@$00@HeightFieldUtil@Gu@physx@@QEBAXAEBVPxVec3@2@0PEAUBoxTraceSegmentReport@@PEBV32@@Z 00000001800cb550 f i GuSweepsHF.obj
 0001:000cad00       ??$traceSegment@UCapsuleTraceSegmentReport@@$0A@$0A@$00@HeightFieldUtil@Gu@physx@@QEBAXAEBVPxVec3@2@0PEAUCapsuleTraceSegmentReport@@PEBV32@@Z 00000001800cbd00 f i GuSweepsHF.obj
 0001:000cb4b0       ??$traceSegment@VConvexVsHeightfieldSweep@@$0A@$0A@$00@HeightFieldUtil@Gu@physx@@QEBAXAEBVPxVec3@2@0PEAVConvexVsHeightfieldSweep@@PEBV32@@Z 00000001800cc4b0 f i GuSweepsHF.obj
 0001:000cbc60       ??0ConvexVsHeightfieldSweep@@QEAA@AEAVHeightFieldUtil@Gu@physx@@AEBUConvexHullData@23@AEBVPxMeshScale@3@AEBVPxTransform@3@3AEBVPxVec3@3@MV?$PxFlags@W4Enum@PxHitFlag@physx@@G@3@M_N_N@Z 00000001800ccc60 f i GuSweepsHF.obj
 0001:000cc730       ??_GBoxTraceSegmentReport@@UEAAPEAXI@Z 00000001800cd730 f i GuSweepsHF.obj
 0001:000cc730       ??_EBoxTraceSegmentReport@@UEAAPEAXI@Z 00000001800cd730 f i GuSweepsHF.obj
 0001:000cc760       ??_GCapsuleTraceSegmentReport@@UEAAPEAXI@Z 00000001800cd760 f i GuSweepsHF.obj
 0001:000cc760       ??_ECapsuleTraceSegmentReport@@UEAAPEAXI@Z 00000001800cd760 f i GuSweepsHF.obj
 0001:000cc790       ??_GConvexVsHeightfieldSweep@@UEAAPEAXI@Z 00000001800cd790 f i GuSweepsHF.obj
 0001:000cc790       ??_EConvexVsHeightfieldSweep@@UEAAPEAXI@Z 00000001800cd790 f i GuSweepsHF.obj
 0001:000cc7c0       ?addIndex@?$OverlapTraceSegment@UBoxTraceSegmentReport@@@HeightFieldUtil@Gu@physx@@QEAA_NI@Z 00000001800cd7c0 f i GuSweepsHF.obj
 0001:000cc830       ?addIndex@?$OverlapTraceSegment@UCapsuleTraceSegmentReport@@@HeightFieldUtil@Gu@physx@@QEAA_NI@Z 00000001800cd830 f i GuSweepsHF.obj
 0001:000cc8a0       ?addIndex@?$OverlapTraceSegment@VConvexVsHeightfieldSweep@@@HeightFieldUtil@Gu@physx@@QEAA_NI@Z 00000001800cd8a0 f i GuSweepsHF.obj
 0001:000cc910       ?onEvent@BoxTraceSegmentReport@@UEAA_NIPEAI@Z 00000001800cd910 f i GuSweepsHF.obj
 0001:000ccf20       ?onEvent@CapsuleTraceSegmentReport@@UEAA_NIPEAI@Z 00000001800cdf20 f i GuSweepsHF.obj
 0001:000cd160       ?onEvent@ConvexVsHeightfieldSweep@@UEAA_NIPEAI@Z 00000001800ce160 f i GuSweepsHF.obj
 0001:000cd790       ?prepare@?$OverlapTraceSegment@UBoxTraceSegmentReport@@@HeightFieldUtil@Gu@physx@@QEAAXAEBVPxVec3@4@00AEAM1@Z 00000001800ce790 f i GuSweepsHF.obj
 0001:000cda10       ?prepare@?$OverlapTraceSegment@UCapsuleTraceSegmentReport@@@HeightFieldUtil@Gu@physx@@QEAAXAEBVPxVec3@4@00AEAM1@Z 00000001800cea10 f i GuSweepsHF.obj
 0001:000cdc90       ?prepare@?$OverlapTraceSegment@VConvexVsHeightfieldSweep@@@HeightFieldUtil@Gu@physx@@QEAAXAEBVPxVec3@4@00AEAM1@Z 00000001800cec90 f i GuSweepsHF.obj
 0001:000cdf10       ?step@?$OverlapTraceSegment@UBoxTraceSegmentReport@@@HeightFieldUtil@Gu@physx@@QEAA_NHH@Z 00000001800cef10 f i GuSweepsHF.obj
 0001:000cdfe0       ?step@?$OverlapTraceSegment@UCapsuleTraceSegmentReport@@@HeightFieldUtil@Gu@physx@@QEAA_NHH@Z 00000001800cefe0 f i GuSweepsHF.obj
 0001:000ce0b0       ?step@?$OverlapTraceSegment@VConvexVsHeightfieldSweep@@@HeightFieldUtil@Gu@physx@@QEAA_NHH@Z 00000001800cf0b0 f i GuSweepsHF.obj
 0001:000ce180       ?testVertexIndex@?$OverlapTraceSegment@UBoxTraceSegmentReport@@@HeightFieldUtil@Gu@physx@@QEAA_NI@Z 00000001800cf180 f i GuSweepsHF.obj
 0001:000ce270       ?testVertexIndex@?$OverlapTraceSegment@UCapsuleTraceSegmentReport@@@HeightFieldUtil@Gu@physx@@QEAA_NI@Z 00000001800cf270 f i GuSweepsHF.obj
 0001:000ce360       ?testVertexIndex@?$OverlapTraceSegment@VConvexVsHeightfieldSweep@@@HeightFieldUtil@Gu@physx@@QEAA_NI@Z 00000001800cf360 f i GuSweepsHF.obj
 0001:000ce450       ?visitCells@?$OverlapTraceSegment@UBoxTraceSegmentReport@@@HeightFieldUtil@Gu@physx@@QEAA_NAEBUOverlapLine@1234@@Z 00000001800cf450 f i GuSweepsHF.obj
 0001:000ce530       ?visitCells@?$OverlapTraceSegment@UBoxTraceSegmentReport@@@HeightFieldUtil@Gu@physx@@QEAA_NAEBUOverlapRectangle@1234@@Z 00000001800cf530 f i GuSweepsHF.obj
 0001:000ce720       ?visitCells@?$OverlapTraceSegment@UCapsuleTraceSegmentReport@@@HeightFieldUtil@Gu@physx@@QEAA_NAEBUOverlapLine@1234@@Z 00000001800cf720 f i GuSweepsHF.obj
 0001:000ce800       ?visitCells@?$OverlapTraceSegment@UCapsuleTraceSegmentReport@@@HeightFieldUtil@Gu@physx@@QEAA_NAEBUOverlapRectangle@1234@@Z 00000001800cf800 f i GuSweepsHF.obj
 0001:000ce9f0       ?visitCells@?$OverlapTraceSegment@VConvexVsHeightfieldSweep@@@HeightFieldUtil@Gu@physx@@QEAA_NAEBUOverlapLine@1234@@Z 00000001800cf9f0 f i GuSweepsHF.obj
 0001:000cead0       ?visitCells@?$OverlapTraceSegment@VConvexVsHeightfieldSweep@@@HeightFieldUtil@Gu@physx@@QEAA_NAEBUOverlapRectangle@1234@@Z 00000001800cfad0 f i GuSweepsHF.obj
 0001:000cecc0       ?pcmContactBoxBox@Gu@physx@@YA_NAEBVGeometryUnion@12@0AEBVPxTransform@2@1AEBMAEAUCache@12@AEAVContactBuffer@12@@Z 00000001800cfcc0 f   GuPCMContactBoxBox.obj
 0001:000d23b0       ?pcmContactBoxConvex@Gu@physx@@YA_NAEBVGeometryUnion@12@0AEBVPxTransform@2@1AEBMAEAUCache@12@AEAVContactBuffer@12@@Z 00000001800d33b0 f   GuPCMContactBoxConvex.obj
 0001:000d7770       ??1SupportLocal@Gu@physx@@UEAA@XZ 00000001800d8770 f i GuPCMContactBoxConvex.obj
 0001:000d7780       ??_G?$SupportLocalImpl@VBoxV@Gu@physx@@@Gu@physx@@UEAAPEAXI@Z 00000001800d8780 f i GuPCMContactBoxConvex.obj
 0001:000d7780       ??_E?$SupportLocalImpl@VBoxV@Gu@physx@@@Gu@physx@@UEAAPEAXI@Z 00000001800d8780 f i GuPCMContactBoxConvex.obj
 0001:000d77b0       ??_G?$SupportLocalImpl@VConvexHullNoScaleV@Gu@physx@@@Gu@physx@@UEAAPEAXI@Z 00000001800d87b0 f i GuPCMContactBoxConvex.obj
 0001:000d77b0       ??_E?$SupportLocalImpl@VConvexHullNoScaleV@Gu@physx@@@Gu@physx@@UEAAPEAXI@Z 00000001800d87b0 f i GuPCMContactBoxConvex.obj
 0001:000d77e0       ??_G?$SupportLocalImpl@VConvexHullV@Gu@physx@@@Gu@physx@@UEAAPEAXI@Z 00000001800d87e0 f i GuPCMContactBoxConvex.obj
 0001:000d77e0       ??_E?$SupportLocalImpl@VConvexHullV@Gu@physx@@@Gu@physx@@UEAAPEAXI@Z 00000001800d87e0 f i GuPCMContactBoxConvex.obj
 0001:000d7810       ??_ESupportLocal@Gu@physx@@UEAAPEAXI@Z 00000001800d8810 f i GuPCMContactBoxConvex.obj
 0001:000d7810       ??_GSupportLocal@Gu@physx@@UEAAPEAXI@Z 00000001800d8810 f i GuPCMContactBoxConvex.obj
 0001:000d7840       ?doSupport@?$SupportLocalImpl@VBoxV@Gu@physx@@@Gu@physx@@UEBA?AT__m128@@AEBT4@@Z 00000001800d8840 f i GuPCMContactBoxConvex.obj
 0001:000d7870       ?doSupport@?$SupportLocalImpl@VBoxV@Gu@physx@@@Gu@physx@@UEBAXAEBT__m128@@AEAT4@1@Z 00000001800d8870 f i GuPCMContactBoxConvex.obj
 0001:000d78c0       ?doSupport@?$SupportLocalImpl@VConvexHullNoScaleV@Gu@physx@@@Gu@physx@@UEBA?AT__m128@@AEBT4@@Z 00000001800d88c0 f i GuPCMContactBoxConvex.obj
 0001:000d7bf0       ?doSupport@?$SupportLocalImpl@VConvexHullNoScaleV@Gu@physx@@@Gu@physx@@UEBAXAEBT__m128@@AEAT4@1@Z 00000001800d8bf0 f i GuPCMContactBoxConvex.obj
 0001:000d8170       ?doSupport@?$SupportLocalImpl@VConvexHullV@Gu@physx@@@Gu@physx@@UEBA?AT__m128@@AEBT4@@Z 00000001800d9170 f i GuPCMContactBoxConvex.obj
 0001:000d8510       ?doSupport@?$SupportLocalImpl@VConvexHullV@Gu@physx@@@Gu@physx@@UEBAXAEBT__m128@@AEAT4@1@Z 00000001800d9510 f i GuPCMContactBoxConvex.obj
 0001:000d8ec0       ?populateVerts@?$SupportLocalImpl@VBoxV@Gu@physx@@@Gu@physx@@UEBAXPEBEIPEBVPxVec3@3@PEAT__m128@@@Z 00000001800d9ec0 f i GuPCMContactBoxConvex.obj
 0001:000d8f10       ?populateVerts@?$SupportLocalImpl@VConvexHullNoScaleV@Gu@physx@@@Gu@physx@@UEBAXPEBEIPEBVPxVec3@3@PEAT__m128@@@Z 00000001800d9f10 f i GuPCMContactBoxConvex.obj
 0001:000d8f60       ?populateVerts@?$SupportLocalImpl@VConvexHullV@Gu@physx@@@Gu@physx@@UEBAXPEBEIPEBVPxVec3@3@PEAT__m128@@@Z 00000001800d9f60 f i GuPCMContactBoxConvex.obj
 0001:000d8fe0       ?pcmContactCapsuleBox@Gu@physx@@YA_NAEBVGeometryUnion@12@0AEBVPxTransform@2@1AEBMAEAUCache@12@AEAVContactBuffer@12@@Z 00000001800d9fe0 f   GuPCMContactCapsuleBox.obj
 0001:000d9f60       ?pcmContactCapsuleConvex@Gu@physx@@YA_NAEBVGeometryUnion@12@0AEBVPxTransform@2@1AEBMAEAUCache@12@AEAVContactBuffer@12@@Z 00000001800daf60 f   GuPCMContactCapsuleConvex.obj
 0001:000de7f0       ?pcmContactCapsuleHeightField@Gu@physx@@YA_NAEBVGeometryUnion@12@0AEBVPxTransform@2@1AEBMAEAUCache@12@AEAVContactBuffer@12@@Z 00000001800df7f0 f   GuPCMContactCapsuleHeightField.obj
 0001:000df650       ??0PCMContactPatch@Gu@physx@@QEAA@XZ 00000001800e0650 f i GuPCMContactCapsuleHeightField.obj
 0001:000df680       ??0PCMMeshContactGeneration@Gu@physx@@QEAA@AEBT__m128@@0AEBVPsTransformV@aos@shdfnd@2@1AEAVMultiplePersistentContactManifold@12@AEAVContactBuffer@12@@Z 00000001800e0680 f i GuPCMContactCapsuleHeightField.obj
 0001:000dfae0       ??_G?$PCMHeightfieldContactGenerationCallback@UPCMCapsuleVsHeightfieldContactGenerationCallback@physx@@@Gu@physx@@UEAAPEAXI@Z 00000001800e0ae0 f i GuPCMContactCapsuleHeightField.obj
 0001:000dfae0       ??_E?$PCMHeightfieldContactGenerationCallback@UPCMCapsuleVsHeightfieldContactGenerationCallback@physx@@@Gu@physx@@UEAAPEAXI@Z 00000001800e0ae0 f i GuPCMContactCapsuleHeightField.obj
 0001:000dfb10       ??_GPCMCapsuleVsHeightfieldContactGenerationCallback@physx@@UEAAPEAXI@Z 00000001800e0b10 f i GuPCMContactCapsuleHeightField.obj
 0001:000dfb10       ??_EPCMCapsuleVsHeightfieldContactGenerationCallback@physx@@UEAAPEAXI@Z 00000001800e0b10 f i GuPCMContactCapsuleHeightField.obj
 0001:000dfb40       ?onEvent@?$PCMHeightfieldContactGenerationCallback@UPCMCapsuleVsHeightfieldContactGenerationCallback@physx@@@Gu@physx@@UEAA_NIPEAI@Z 00000001800e0b40 f i GuPCMContactCapsuleHeightField.obj
 0001:000e00c0       ?pcmContactCapsuleMesh@Gu@physx@@YA_NAEBVGeometryUnion@12@0AEBVPxTransform@2@1AEBMAEAUCache@12@AEAVContactBuffer@12@@Z 00000001800e10c0 f   GuPCMContactCapsuleMesh.obj
 0001:000e1100       ??$processTriangleCache@$0BA@VPCMCapsuleVsMeshContactGeneration@Gu@physx@@@PCMMeshContactGeneration@Gu@physx@@QEAA_NAEAU?$TriangleCache@$0BA@@12@@Z 00000001800e2100 f i GuPCMContactCapsuleMesh.obj
 0001:000e1190       ??_E?$PCMMeshContactGenerationCallback@UPCMCapsuleVsMeshContactGenerationCallback@physx@@@Gu@physx@@UEAAPEAXI@Z 00000001800e2190 f i GuPCMContactCapsuleMesh.obj
 0001:000e1190       ??_G?$PCMMeshContactGenerationCallback@UPCMCapsuleVsMeshContactGenerationCallback@physx@@@Gu@physx@@UEAAPEAXI@Z 00000001800e2190 f i GuPCMContactCapsuleMesh.obj
 0001:000e11c0       ??_GPCMCapsuleVsMeshContactGenerationCallback@physx@@UEAAPEAXI@Z 00000001800e21c0 f i GuPCMContactCapsuleMesh.obj
 0001:000e11c0       ??_EPCMCapsuleVsMeshContactGenerationCallback@physx@@UEAAPEAXI@Z 00000001800e21c0 f i GuPCMContactCapsuleMesh.obj
 0001:000e11f0       ?processHit@?$PCMMeshContactGenerationCallback@UPCMCapsuleVsMeshContactGenerationCallback@physx@@@Gu@physx@@UEAA_NAEBUPxRaycastHit@3@AEBVPxVec3@3@11AEAMPEBI@Z 00000001800e21f0 f i GuPCMContactCapsuleMesh.obj
 0001:000e1500       ?generateLastContacts@PCMConvexVsMeshContactGeneration@Gu@physx@@QEAAXXZ 00000001800e2500 f   GuPCMContactConvexCommon.obj
 0001:000e18c0       ?addContactsToPatch@PCMConvexVsMeshContactGeneration@Gu@physx@@QEAAXAEBT__m128@@II@Z 00000001800e28c0 f   GuPCMContactConvexCommon.obj
 0001:000e2080       ?processTriangle@PCMConvexVsMeshContactGeneration@Gu@physx@@QEAA_NPEBVPxVec3@3@IEPEBI@Z 00000001800e3080 f   GuPCMContactConvexCommon.obj
 0001:000e24c0       ?processTriangle@PCMConvexVsMeshContactGeneration@Gu@physx@@SA_NAEBUPolygonalData@23@PEAVSupportLocal@23@PEBVPxVec3@3@IEAEBT__m128@@_NAEBVPsTransformV@aos@shdfnd@3@AEBVPsMatTransformV@9shdfnd@3@PEAVMeshPersistentContact@23@AEAI@Z 00000001800e34c0 f   GuPCMContactConvexCommon.obj
 0001:000e27c0       ?processTriangle@PCMSphereVsMeshContactGeneration@Gu@physx@@QEAA_NPEBVPxVec3@3@IEPEBI@Z 00000001800e37c0 f   GuPCMContactConvexCommon.obj
 0001:000e2f00       ?generateEEContacts@PCMCapsuleVsMeshContactGeneration@Gu@physx@@QEAAXAEBT__m128@@000I000PEAVMeshPersistentContact@23@AEAI@Z 00000001800e3f00 f   GuPCMContactConvexCommon.obj
 0001:000e3030       ?generateEE@PCMCapsuleVsMeshContactGeneration@Gu@physx@@QEAAXAEBT__m128@@000I00PEAVMeshPersistentContact@23@AEAI@Z 00000001800e4030 f   GuPCMContactConvexCommon.obj
 0001:000e32e0       ?generateContacts@PCMCapsuleVsMeshContactGeneration@Gu@physx@@SA_NAEBT__m128@@0000I000PEAVMeshPersistentContact@23@AEAI@Z 00000001800e42e0 f   GuPCMContactConvexCommon.obj
 0001:000e3760       ?generateEEContactsMTD@PCMCapsuleVsMeshContactGeneration@Gu@physx@@SAXAEBT__m128@@000I000PEAVMeshPersistentContact@23@AEAI@Z 00000001800e4760 f   GuPCMContactConvexCommon.obj
 0001:000e3880       ?generateEEMTD@PCMCapsuleVsMeshContactGeneration@Gu@physx@@SAXAEBT__m128@@000I00PEAVMeshPersistentContact@23@AEAI@Z 00000001800e4880 f   GuPCMContactConvexCommon.obj
 0001:000e3af0       ?processTriangle@PCMCapsuleVsMeshContactGeneration@Gu@physx@@QEAA_NPEBVPxVec3@3@IEPEBI@Z 00000001800e4af0 f   GuPCMContactConvexCommon.obj
 0001:000e44f0       ?processTriangle@PCMCapsuleVsMeshContactGeneration@Gu@physx@@SA_NAEBVTriangleV@23@IAEBVCapsuleV@23@AEBT__m128@@EPEAVMeshPersistentContact@23@AEAI@Z 00000001800e54f0 f   GuPCMContactConvexCommon.obj
 0001:000e4860       ?pcmDistanceSegmentTriangleSquared@Gu@physx@@YA?AT__m128@@AEBT3@0000AEAT3@11@Z 00000001800e5860 f   GuPCMContactConvexCommon.obj
 0001:000e5260       ??_G?$SupportLocalImpl@VTriangleV@Gu@physx@@@Gu@physx@@UEAAPEAXI@Z 00000001800e6260 f i GuPCMContactConvexCommon.obj
 0001:000e5260       ??_E?$SupportLocalImpl@VTriangleV@Gu@physx@@@Gu@physx@@UEAAPEAXI@Z 00000001800e6260 f i GuPCMContactConvexCommon.obj
 0001:000e5290       ?doSupport@?$SupportLocalImpl@VTriangleV@Gu@physx@@@Gu@physx@@UEBA?AT__m128@@AEBT4@@Z 00000001800e6290 f i GuPCMContactConvexCommon.obj
 0001:000e5330       ?doSupport@?$SupportLocalImpl@VTriangleV@Gu@physx@@@Gu@physx@@UEBAXAEBT__m128@@AEAT4@1@Z 00000001800e6330 f i GuPCMContactConvexCommon.obj
 0001:000e59e0       ?populateVerts@?$SupportLocalImpl@VTriangleV@Gu@physx@@@Gu@physx@@UEBAXPEBEIPEBVPxVec3@3@PEAT__m128@@@Z 00000001800e69e0 f i GuPCMContactConvexCommon.obj
 0001:000e5b10       ?pcmContactConvexConvex@Gu@physx@@YA_NAEBVGeometryUnion@12@0AEBVPxTransform@2@1AEBMAEAUCache@12@AEAVContactBuffer@12@@Z 00000001800e6b10 f   GuPCMContactConvexConvex.obj
 0001:000f1750       ?pcmContactBoxHeightField@Gu@physx@@YA_NAEBVGeometryUnion@12@0AEBVPxTransform@2@1AEBMAEAUCache@12@AEAVContactBuffer@12@@Z 00000001800f2750 f   GuPCMContactConvexHeightField.obj
 0001:000f1a00       ?pcmContactConvexHeightField@Gu@physx@@YA_NAEBVGeometryUnion@12@0AEBVPxTransform@2@1AEBMAEAUCache@12@AEAVContactBuffer@12@@Z 00000001800f2a00 f   GuPCMContactConvexHeightField.obj
 0001:000f2150       ?PCMContactConvexHeightfield@Gu@physx@@YA_NAEBUPolygonalData@12@PEAVSupportLocal@12@AEBT__m128@@AEBVPxBounds3@2@AEBVPxHeightFieldGeometry@2@AEBVPxTransform@2@5MAEAVContactBuffer@12@AEBVFastVertex2ShapeScaling@Cm@2@_NAEAVMultiplePersistentContactManifold@12@@Z 00000001800f3150 f   GuPCMContactConvexHeightField.obj
 0001:000f2d50       ??_E?$PCMHeightfieldContactGenerationCallback@UPCMConvexVsHeightfieldContactGenerationCallback@physx@@@Gu@physx@@UEAAPEAXI@Z 00000001800f3d50 f i GuPCMContactConvexHeightField.obj
 0001:000f2d50       ??_G?$PCMHeightfieldContactGenerationCallback@UPCMConvexVsHeightfieldContactGenerationCallback@physx@@@Gu@physx@@UEAAPEAXI@Z 00000001800f3d50 f i GuPCMContactConvexHeightField.obj
 0001:000f2d80       ??_G?$SupportLocalShrunkImpl@VBoxV@Gu@physx@@VShrunkBoxV@23@@Gu@physx@@UEAAPEAXI@Z 00000001800f3d80 f i GuPCMContactConvexHeightField.obj
 0001:000f2d80       ??_E?$SupportLocalShrunkImpl@VBoxV@Gu@physx@@VShrunkBoxV@23@@Gu@physx@@UEAAPEAXI@Z 00000001800f3d80 f i GuPCMContactConvexHeightField.obj
 0001:000f2db0       ??_G?$SupportLocalShrunkImpl@VConvexHullNoScaleV@Gu@physx@@VShrunkConvexHullNoScaleV@23@@Gu@physx@@UEAAPEAXI@Z 00000001800f3db0 f i GuPCMContactConvexHeightField.obj
 0001:000f2db0       ??_E?$SupportLocalShrunkImpl@VConvexHullNoScaleV@Gu@physx@@VShrunkConvexHullNoScaleV@23@@Gu@physx@@UEAAPEAXI@Z 00000001800f3db0 f i GuPCMContactConvexHeightField.obj
 0001:000f2de0       ??_E?$SupportLocalShrunkImpl@VConvexHullV@Gu@physx@@VShrunkConvexHullV@23@@Gu@physx@@UEAAPEAXI@Z 00000001800f3de0 f i GuPCMContactConvexHeightField.obj
 0001:000f2de0       ??_G?$SupportLocalShrunkImpl@VConvexHullV@Gu@physx@@VShrunkConvexHullV@23@@Gu@physx@@UEAAPEAXI@Z 00000001800f3de0 f i GuPCMContactConvexHeightField.obj
 0001:000f2e10       ??_GPCMConvexVsHeightfieldContactGenerationCallback@physx@@UEAAPEAXI@Z 00000001800f3e10 f i GuPCMContactConvexHeightField.obj
 0001:000f2e10       ??_EPCMConvexVsHeightfieldContactGenerationCallback@physx@@UEAAPEAXI@Z 00000001800f3e10 f i GuPCMContactConvexHeightField.obj
 0001:000f2e40       ?doSupport@?$SupportLocalShrunkImpl@VBoxV@Gu@physx@@VShrunkBoxV@23@@Gu@physx@@UEBA?AT__m128@@AEBT4@@Z 00000001800f3e40 f i GuPCMContactConvexHeightField.obj
 0001:000f2e70       ?doSupport@?$SupportLocalShrunkImpl@VBoxV@Gu@physx@@VShrunkBoxV@23@@Gu@physx@@UEBAXAEBT__m128@@AEAT4@1@Z 00000001800f3e70 f i GuPCMContactConvexHeightField.obj
 0001:000f2ec0       ?doSupport@?$SupportLocalShrunkImpl@VConvexHullNoScaleV@Gu@physx@@VShrunkConvexHullNoScaleV@23@@Gu@physx@@UEBA?AT__m128@@AEBT4@@Z 00000001800f3ec0 f i GuPCMContactConvexHeightField.obj
 0001:000f31f0       ?doSupport@?$SupportLocalShrunkImpl@VConvexHullNoScaleV@Gu@physx@@VShrunkConvexHullNoScaleV@23@@Gu@physx@@UEBAXAEBT__m128@@AEAT4@1@Z 00000001800f41f0 f i GuPCMContactConvexHeightField.obj
 0001:000f3770       ?doSupport@?$SupportLocalShrunkImpl@VConvexHullV@Gu@physx@@VShrunkConvexHullV@23@@Gu@physx@@UEBA?AT__m128@@AEBT4@@Z 00000001800f4770 f i GuPCMContactConvexHeightField.obj
 0001:000f3b10       ?doSupport@?$SupportLocalShrunkImpl@VConvexHullV@Gu@physx@@VShrunkConvexHullV@23@@Gu@physx@@UEBAXAEBT__m128@@AEAT4@1@Z 00000001800f4b10 f i GuPCMContactConvexHeightField.obj
 0001:000f41a0       ?onEvent@?$PCMHeightfieldContactGenerationCallback@UPCMConvexVsHeightfieldContactGenerationCallback@physx@@@Gu@physx@@UEAA_NIPEAI@Z 00000001800f51a0 f i GuPCMContactConvexHeightField.obj
 0001:000f4720       ?populateVerts@?$SupportLocalShrunkImpl@VBoxV@Gu@physx@@VShrunkBoxV@23@@Gu@physx@@UEBAXPEBEIPEBVPxVec3@3@PEAT__m128@@@Z 00000001800f5720 f i GuPCMContactConvexHeightField.obj
 0001:000f4770       ?populateVerts@?$SupportLocalShrunkImpl@VConvexHullNoScaleV@Gu@physx@@VShrunkConvexHullNoScaleV@23@@Gu@physx@@UEBAXPEBEIPEBVPxVec3@3@PEAT__m128@@@Z 00000001800f5770 f i GuPCMContactConvexHeightField.obj
 0001:000f47c0       ?populateVerts@?$SupportLocalShrunkImpl@VConvexHullV@Gu@physx@@VShrunkConvexHullV@23@@Gu@physx@@UEBAXPEBEIPEBVPxVec3@3@PEAT__m128@@@Z 00000001800f57c0 f i GuPCMContactConvexHeightField.obj
 0001:000f4840       ?pcmContactBoxMesh@Gu@physx@@YA_NAEBVGeometryUnion@12@0AEBVPxTransform@2@1AEBMAEAUCache@12@AEAVContactBuffer@12@@Z 00000001800f5840 f   GuPCMContactConvexMesh.obj
 0001:000f4b60       ?pcmContactConvexMesh@Gu@physx@@YA_NAEBVGeometryUnion@12@0AEBVPxTransform@2@1AEBMAEAUCache@12@AEAVContactBuffer@12@@Z 00000001800f5b60 f   GuPCMContactConvexMesh.obj
 0001:000f5340       ?PCMContactConvexMesh@Gu@physx@@YA_NAEBUPolygonalData@12@PEAVSupportLocal@12@AEBT__m128@@AEBVPxBounds3@2@AEBUPxTriangleMeshGeometryLL@2@AEBVPxTransform@2@5MAEAVContactBuffer@12@AEBVFastVertex2ShapeScaling@Cm@2@7_N8AEAVMultiplePersistentContactManifold@12@@Z 00000001800f6340 f   GuPCMContactConvexMesh.obj
 0001:000f60a0       ??$processTriangleCache@$0BA@VPCMConvexVsMeshContactGeneration@Gu@physx@@@PCMMeshContactGeneration@Gu@physx@@QEAA_NAEAU?$TriangleCache@$0BA@@12@@Z 00000001800f70a0 f i GuPCMContactConvexMesh.obj
 0001:000f6130       ??_E?$PCMMeshContactGenerationCallback@UPCMConvexVsMeshContactGenerationCallback@physx@@@Gu@physx@@UEAAPEAXI@Z 00000001800f7130 f i GuPCMContactConvexMesh.obj
 0001:000f6130       ??_G?$PCMMeshContactGenerationCallback@UPCMConvexVsMeshContactGenerationCallback@physx@@@Gu@physx@@UEAAPEAXI@Z 00000001800f7130 f i GuPCMContactConvexMesh.obj
 0001:000f6160       ??_EPCMConvexVsMeshContactGenerationCallback@physx@@UEAAPEAXI@Z 00000001800f7160 f i GuPCMContactConvexMesh.obj
 0001:000f6160       ??_GPCMConvexVsMeshContactGenerationCallback@physx@@UEAAPEAXI@Z 00000001800f7160 f i GuPCMContactConvexMesh.obj
 0001:000f6190       ?processHit@?$PCMMeshContactGenerationCallback@UPCMConvexVsMeshContactGenerationCallback@physx@@@Gu@physx@@UEAA_NAEBUPxRaycastHit@3@AEBVPxVec3@3@11AEAMPEBI@Z 00000001800f7190 f i GuPCMContactConvexMesh.obj
 0001:000f64f0       ?generateFullContactManifold@Gu@physx@@YA_NAEAUPolygonalData@12@0PEAVSupportLocal@12@1PEAVPersistentContact@12@AEAIAEBT__m128@@4_N@Z 00000001800f74f0 f   GuPCMContactGenBoxConvex.obj
 0001:000f7de0       ?computeMTD@Gu@physx@@YA_NAEAUPolygonalData@12@0PEAVSupportLocal@12@1AEAT__m128@@2@Z 00000001800f8de0 f   GuPCMContactGenBoxConvex.obj
 0001:000f8600       ?buildPartialHull@Gu@physx@@YAXAEBUPolygonalData@12@PEAVSupportLocal@12@AEAVSeparatingAxes@12@AEBT__m128@@3@Z 00000001800f9600 f   GuPCMContactGenBoxConvex.obj
 0001:000f8930       ?generatedContacts@Gu@physx@@YAXAEAUPolygonalData@12@0AEBUHullPolygonData@12@1PEAVSupportLocal@12@2AEBVPsMatTransformV@aos@shdfnd@2@PEAVPersistentContact@12@AEAIAEBT__m128@@@Z 00000001800f9930 f   GuPCMContactGenBoxConvex.obj
 0001:000fa170       ?generateFullContactManifold@Gu@physx@@YA_NAEBVCapsuleV@12@AEAUPolygonalData@12@PEAVSupportLocal@12@AEBVPsMatTransformV@aos@shdfnd@2@PEAVPersistentContact@12@AEAIAEBT__m128@@AEAT__m128@@_N@Z 00000001800fb170 f   GuPCMContactGenSphereCapsule.obj
 0001:000fa530       ?generateCapsuleBoxFullContactManifold@Gu@physx@@YA_NAEBVCapsuleV@12@AEAUPolygonalData@12@PEAVSupportLocal@12@AEBVPsMatTransformV@aos@shdfnd@2@PEAVPersistentContact@12@AEAIAEBT__m128@@AEAT__m128@@_N@Z 00000001800fb530 f   GuPCMContactGenSphereCapsule.obj
 0001:000fa910       ?computeMTD@Gu@physx@@YA_NAEBVCapsuleV@12@AEAUPolygonalData@12@PEAVSupportLocal@12@AEAT__m128@@3@Z 00000001800fb910 f   GuPCMContactGenSphereCapsule.obj
 0001:000faa40       ?generateSphereFullContactManifold@Gu@physx@@YA_NAEBVCapsuleV@12@AEAUPolygonalData@12@PEAVSupportLocal@12@PEAVPersistentContact@12@AEAIAEBT__m128@@AEAT7@_N@Z 00000001800fba40 f   GuPCMContactGenSphereCapsule.obj
 0001:000faf80       ?generatedCapsuleBoxFaceContacts@Gu@physx@@YAXAEBVCapsuleV@12@AEAUPolygonalData@12@AEBUHullPolygonData@12@PEAVSupportLocal@12@AEBVPsMatTransformV@aos@shdfnd@2@PEAVPersistentContact@12@AEAIAEBT__m128@@7@Z 00000001800fbf80 f   GuPCMContactGenSphereCapsule.obj
 0001:000fb760       ?generatedContactsEEContacts@Gu@physx@@YAXAEBVCapsuleV@12@AEAUPolygonalData@12@AEBUHullPolygonData@12@PEAVSupportLocal@12@AEBVPsMatTransformV@aos@shdfnd@2@PEAVPersistentContact@12@AEAIAEBT__m128@@7@Z 00000001800fc760 f   GuPCMContactGenSphereCapsule.obj
 0001:000fc5a0       ?pcmContactPlaneBox@Gu@physx@@YA_NAEBVGeometryUnion@12@0AEBVPxTransform@2@1AEBMAEAUCache@12@AEAVContactBuffer@12@@Z 00000001800fd5a0 f   GuPCMContactPlaneBox.obj
 0001:000fd280       ?pcmContactPlaneCapsule@Gu@physx@@YA_NAEBVGeometryUnion@12@0AEBVPxTransform@2@1AEBMAEAUCache@12@AEAVContactBuffer@12@@Z 00000001800fe280 f   GuPCMContactPlaneCapsule.obj
 0001:000fdc30       ?pcmContactPlaneConvex@Gu@physx@@YA_NAEBVGeometryUnion@12@0AEBVPxTransform@2@1AEBMAEAUCache@12@AEAVContactBuffer@12@@Z 00000001800fec30 f   GuPCMContactPlaneConvex.obj
 0001:000fe760       ?pcmContactSphereConvex@Gu@physx@@YA_NAEBVGeometryUnion@12@0AEBVPxTransform@2@1AEBMAEAUCache@12@AEAVContactBuffer@12@@Z 00000001800ff760 f   GuPCMContactSphereConvex.obj
 0001:00102af0       ??_G?$EPASupportMapPairLocalImpl@VCapsuleV@Gu@physx@@VConvexHullNoScaleV@23@@Gu@physx@@UEAAPEAXI@Z 0000000180103af0 f i GuPCMContactSphereConvex.obj
 0001:00102af0       ??_E?$EPASupportMapPairLocalImpl@VCapsuleV@Gu@physx@@VConvexHullNoScaleV@23@@Gu@physx@@UEAAPEAXI@Z 0000000180103af0 f i GuPCMContactSphereConvex.obj
 0001:00102b20       ?doSupport@?$EPASupportMapPairLocalImpl@VCapsuleV@Gu@physx@@VConvexHullNoScaleV@23@@Gu@physx@@UEBAXAEBT__m128@@AEAT4@11@Z 0000000180103b20 f i GuPCMContactSphereConvex.obj
 0001:00102ec0       ?doWarmStartSupport@?$EPASupportMapPairLocalImpl@VCapsuleV@Gu@physx@@VConvexHullNoScaleV@23@@Gu@physx@@UEBAXHHAEAT__m128@@00@Z 0000000180103ec0 f i GuPCMContactSphereConvex.obj
 0001:00103170       ?getDir@?$EPASupportMapPairLocalImpl@VCapsuleV@Gu@physx@@VConvexHullNoScaleV@23@@Gu@physx@@UEBA?AT__m128@@XZ 0000000180104170 f i GuPCMContactSphereConvex.obj
 0001:00103190       ?pcmContactSphereHeightField@Gu@physx@@YA_NAEBVGeometryUnion@12@0AEBVPxTransform@2@1AEBMAEAUCache@12@AEAVContactBuffer@12@@Z 0000000180104190 f   GuPCMContactSphereHeightField.obj
 0001:00103ca0       ??_G?$PCMHeightfieldContactGenerationCallback@UPCMSphereVsHeightfieldContactGenerationCallback@physx@@@Gu@physx@@UEAAPEAXI@Z 0000000180104ca0 f i GuPCMContactSphereHeightField.obj
 0001:00103ca0       ??_E?$PCMHeightfieldContactGenerationCallback@UPCMSphereVsHeightfieldContactGenerationCallback@physx@@@Gu@physx@@UEAAPEAXI@Z 0000000180104ca0 f i GuPCMContactSphereHeightField.obj
 0001:00103cd0       ??_EPCMSphereVsHeightfieldContactGenerationCallback@physx@@UEAAPEAXI@Z 0000000180104cd0 f i GuPCMContactSphereHeightField.obj
 0001:00103cd0       ??_GPCMSphereVsHeightfieldContactGenerationCallback@physx@@UEAAPEAXI@Z 0000000180104cd0 f i GuPCMContactSphereHeightField.obj
 0001:00103d00       ?onEvent@?$PCMHeightfieldContactGenerationCallback@UPCMSphereVsHeightfieldContactGenerationCallback@physx@@@Gu@physx@@UEAA_NIPEAI@Z 0000000180104d00 f i GuPCMContactSphereHeightField.obj
 0001:00104280       ?pcmContactSphereMesh@Gu@physx@@YA_NAEBVGeometryUnion@12@0AEBVPxTransform@2@1AEBMAEAUCache@12@AEAVContactBuffer@12@@Z 0000000180105280 f   GuPCMContactSphereMesh.obj
 0001:00104ee0       ??$processTriangleCache@$0BA@VPCMSphereVsMeshContactGeneration@Gu@physx@@@PCMMeshContactGeneration@Gu@physx@@QEAA_NAEAU?$TriangleCache@$0BA@@12@@Z 0000000180105ee0 f i GuPCMContactSphereMesh.obj
 0001:00104f70       ??_E?$PCMMeshContactGenerationCallback@UPCMSphereVsMeshContactGenerationCallback@physx@@@Gu@physx@@UEAAPEAXI@Z 0000000180105f70 f i GuPCMContactSphereMesh.obj
 0001:00104f70       ??_G?$PCMMeshContactGenerationCallback@UPCMSphereVsMeshContactGenerationCallback@physx@@@Gu@physx@@UEAAPEAXI@Z 0000000180105f70 f i GuPCMContactSphereMesh.obj
 0001:00104fa0       ??_GPCMSphereVsMeshContactGenerationCallback@physx@@UEAAPEAXI@Z 0000000180105fa0 f i GuPCMContactSphereMesh.obj
 0001:00104fa0       ??_EPCMSphereVsMeshContactGenerationCallback@physx@@UEAAPEAXI@Z 0000000180105fa0 f i GuPCMContactSphereMesh.obj
 0001:00104fd0       ?processHit@?$PCMMeshContactGenerationCallback@UPCMSphereVsMeshContactGenerationCallback@physx@@@Gu@physx@@UEAA_NAEBUPxRaycastHit@3@AEBVPxVec3@3@11AEAMPEBI@Z 0000000180105fd0 f i GuPCMContactSphereMesh.obj
 0001:001052e0       ??0PCMPolygonalBox@Gu@physx@@QEAA@AEBVPxVec3@2@@Z 00000001801062e0 f   GuPCMShapeConvex.obj
 0001:001054e0       ?getPolygonalData@PCMPolygonalBox@Gu@physx@@QEBAXPEIAUPolygonalData@23@@Z 00000001801064e0 f   GuPCMShapeConvex.obj
 0001:00105530       ?getPCMConvexData@Gu@physx@@YAXAEBVConvexHullV@12@_NAEAUPolygonalData@12@@Z 0000000180106530 f   GuPCMShapeConvex.obj
 0001:00105580       ?getPCMConvexData@Gu@physx@@YA_NAEBVGeometryUnion@12@AEAVFastVertex2ShapeScaling@Cm@2@AEAVPxBounds3@2@AEAUPolygonalData@12@@Z 0000000180106580 f   GuPCMShapeConvex.obj
 0001:00105870       ?generateTriangleFullContactManifold@PCMConvexVsMeshContactGeneration@Gu@physx@@QEAA_NAEAVTriangleV@23@IPEBIEAEBUPolygonalData@23@PEAV?$SupportLocalImpl@VTriangleV@Gu@physx@@@23@PEAVSupportLocal@23@PEAVMeshPersistentContact@23@AEAIAEBT__m128@@AEAT9@@Z 0000000180106870 f   GuPCMTriangleContactGen.obj
 0001:00106370       ?generatePolyDataContactManifold@PCMConvexVsMeshContactGeneration@Gu@physx@@QEAA_NAEAVTriangleV@23@IIEPEAVMeshPersistentContact@23@AEAIAEBT__m128@@AEAT6@@Z 0000000180107370 f   GuPCMTriangleContactGen.obj
 0001:001064a0       ?generateTriangleFullContactManifold@PCMConvexVsMeshContactGeneration@Gu@physx@@SA_NAEAVTriangleV@23@IEAEBUPolygonalData@23@PEAV?$SupportLocalImpl@VTriangleV@Gu@physx@@@23@PEAVSupportLocal@23@PEAVMeshPersistentContact@23@AEAIAEBT__m128@@AEAT9@@Z 00000001801074a0 f   GuPCMTriangleContactGen.obj
 0001:00109050       ?findRotationMatrixFromZAxis@Gu@physx@@YA?AUMat33V@aos@shdfnd@2@AEBT__m128@@@Z 000000018010a050 f   GuPersistentContactManifold.obj
 0001:00109330       ?replaceManifoldPoint@PersistentContactManifold@Gu@physx@@QEAA_NAEBT__m128@@000@Z 000000018010a330 f   GuPersistentContactManifold.obj
 0001:001093e0       ?addManifoldPoint@PersistentContactManifold@Gu@physx@@QEAAIAEBT__m128@@000@Z 000000018010a3e0 f   GuPersistentContactManifold.obj
 0001:001094a0       ?addManifoldPoint2@PersistentContactManifold@Gu@physx@@QEAAIAEBT__m128@@000@Z 000000018010a4a0 f   GuPersistentContactManifold.obj
 0001:00109570       ?addBatchManifoldContactsCluster@PersistentContactManifold@Gu@physx@@QEAAXPEBVPersistentContact@23@I@Z 000000018010a570 f   GuPersistentContactManifold.obj
 0001:001095f0       ?addBatchManifoldContacts2@PersistentContactManifold@Gu@physx@@QEAAXPEBVPersistentContact@23@I@Z 000000018010a5f0 f   GuPersistentContactManifold.obj
 0001:00109670       ?addBatchManifoldContacts@PersistentContactManifold@Gu@physx@@QEAAXPEBVPersistentContact@23@I@Z 000000018010a670 f   GuPersistentContactManifold.obj
 0001:001096f0       ?reduceBatchContactsCluster@PersistentContactManifold@Gu@physx@@QEAAXPEBVPersistentContact@23@I@Z 000000018010a6f0 f   GuPersistentContactManifold.obj
 0001:00109bc0       ?reduceBatchContacts2@PersistentContactManifold@Gu@physx@@QEAAXPEBVPersistentContact@23@I@Z 000000018010abc0 f   GuPersistentContactManifold.obj
 0001:00109de0       ?reduceBatchContacts@PersistentContactManifold@Gu@physx@@QEAAXPEBVPersistentContact@23@I@Z 000000018010ade0 f   GuPersistentContactManifold.obj
 0001:0010a110       ?reduceContactsForPCM@PersistentContactManifold@Gu@physx@@QEAAIAEBT__m128@@00@Z 000000018010b110 f   GuPersistentContactManifold.obj
 0001:0010a5f0       ?reduceContactSegment@PersistentContactManifold@Gu@physx@@QEAAIAEBT__m128@@00@Z 000000018010b5f0 f   GuPersistentContactManifold.obj
 0001:0010a690       ?addManifoldContactsToContactBuffer@PersistentContactManifold@Gu@physx@@QEAAXAEAVContactBuffer@23@AEBT__m128@@AEBVPsMatTransformV@aos@shdfnd@3@@Z 000000018010b690 f   GuPersistentContactManifold.obj
 0001:0010a740       ?addManifoldContactsToContactBuffer@PersistentContactManifold@Gu@physx@@QEAAXAEAVContactBuffer@23@AEBT__m128@@AEBVPsTransformV@aos@shdfnd@3@@Z 000000018010b740 f   GuPersistentContactManifold.obj
 0001:0010a8b0       ?addManifoldContactsToContactBuffer@PersistentContactManifold@Gu@physx@@QEAAXAEAVContactBuffer@23@AEBT__m128@@AEBVPsTransformV@aos@shdfnd@3@1@Z 000000018010b8b0 f   GuPersistentContactManifold.obj
 0001:0010aa60       ?drawManifold@PersistentContactManifold@Gu@physx@@QEAAXAEAVRenderOutput@Cm@3@AEBVPsTransformV@aos@shdfnd@3@1@Z 000000018010ba60 f   GuPersistentContactManifold.obj
 0001:0010aae0       ?drawManifold@PersistentContactManifold@Gu@physx@@QEAAXAEAVRenderOutput@Cm@3@AEBVPsTransformV@aos@shdfnd@3@1AEBT__m128@@@Z 000000018010bae0 f   GuPersistentContactManifold.obj
 0001:0010ab80       ?drawManifold@PersistentContactManifold@Gu@physx@@QEAAXAEBVPersistentContact@23@AEAVRenderOutput@Cm@3@AEBVPsTransformV@aos@shdfnd@3@2@Z 000000018010bb80 f   GuPersistentContactManifold.obj
 0001:0010abb0       ?drawPoint@PersistentContactManifold@Gu@physx@@SAXAEAVRenderOutput@Cm@3@AEBT__m128@@MI@Z 000000018010bbb0 f   GuPersistentContactManifold.obj
 0001:0010ad90       ?drawLine@PersistentContactManifold@Gu@physx@@SAXAEAVRenderOutput@Cm@3@AEBT__m128@@1I@Z 000000018010bd90 f   GuPersistentContactManifold.obj
 0001:0010ae50       ?drawTriangle@PersistentContactManifold@Gu@physx@@SAXAEAVRenderOutput@Cm@3@AEBT__m128@@11I@Z 000000018010be50 f   GuPersistentContactManifold.obj
 0001:0010af40       ?drawPolygon@PersistentContactManifold@Gu@physx@@SAXAEAVRenderOutput@Cm@3@AEBVPsTransformV@aos@shdfnd@3@PEAT__m128@@II@Z 000000018010bf40 f   GuPersistentContactManifold.obj
 0001:0010b260       ?drawPolygon@PersistentContactManifold@Gu@physx@@SAXAEAVRenderOutput@Cm@3@AEBVPsMatTransformV@aos@shdfnd@3@PEAT__m128@@II@Z 000000018010c260 f   GuPersistentContactManifold.obj
 0001:0010b420       ?reduceBatchContactsConvex@SinglePersistentContactManifold@Gu@physx@@QEAA?AT__m128@@PEBVMeshPersistentContact@23@IAEAUPCMContactPatch@23@@Z 000000018010c420 f   GuPersistentContactManifold.obj
 0001:0010ba20       ?reduceBatchContactsSphere@SinglePersistentContactManifold@Gu@physx@@QEAA?AT__m128@@PEBVMeshPersistentContact@23@IAEAUPCMContactPatch@23@@Z 000000018010ca20 f   GuPersistentContactManifold.obj
 0001:0010baf0       ?reduceBatchContactsCapsule@SinglePersistentContactManifold@Gu@physx@@QEAA?AT__m128@@PEBVMeshPersistentContact@23@IAEAUPCMContactPatch@23@@Z 000000018010caf0 f   GuPersistentContactManifold.obj
 0001:0010bda0       ?addBatchManifoldContactsConvex@SinglePersistentContactManifold@Gu@physx@@QEAA?AT__m128@@PEBVMeshPersistentContact@23@IAEAUPCMContactPatch@23@AEBT4@@Z 000000018010cda0 f   GuPersistentContactManifold.obj
 0001:0010be70       ?addBatchManifoldContactsSphere@SinglePersistentContactManifold@Gu@physx@@QEAA?AT__m128@@PEBVMeshPersistentContact@23@IAEAUPCMContactPatch@23@AEBT4@@Z 000000018010ce70 f   GuPersistentContactManifold.obj
 0001:0010bec0       ?addBatchManifoldContactsCapsule@SinglePersistentContactManifold@Gu@physx@@QEAA?AT__m128@@PEBVMeshPersistentContact@23@IAEAUPCMContactPatch@23@AEBT4@@Z 000000018010cec0 f   GuPersistentContactManifold.obj
 0001:0010bf90       ?reduceContacts@SinglePersistentContactManifold@Gu@physx@@SAIPEAVMeshPersistentContact@23@I@Z 000000018010cf90 f   GuPersistentContactManifold.obj
 0001:0010c380       ?refreshContactPoints@SinglePersistentContactManifold@Gu@physx@@QEAA?AT__m128@@AEBVPsMatTransformV@aos@shdfnd@3@AEBT4@1@Z 000000018010d380 f   GuPersistentContactManifold.obj
 0001:0010c500       ?drawManifold@SinglePersistentContactManifold@Gu@physx@@QEAAXAEAVRenderOutput@Cm@3@AEBVPsTransformV@aos@shdfnd@3@1@Z 000000018010d500 f   GuPersistentContactManifold.obj
 0001:0010c590       ?addManifoldContactPoints@MultiplePersistentContactManifold@Gu@physx@@QEAAXPEAVMeshPersistentContact@23@IPEAPEAUPCMContactPatch@23@IAEBT__m128@@2E@Z 000000018010d590 f   GuPersistentContactManifold.obj
 0001:0010c9e0       ?addManifoldContactsToContactBuffer@MultiplePersistentContactManifold@Gu@physx@@QEAA_NAEAVContactBuffer@23@AEBVPsTransformV@aos@shdfnd@3@@Z 000000018010d9e0 f   GuPersistentContactManifold.obj
 0001:0010cce0       ?addManifoldContactsToContactBuffer@MultiplePersistentContactManifold@Gu@physx@@QEAA_NAEAVContactBuffer@23@AEBVPsTransformV@aos@shdfnd@3@1AEBT__m128@@@Z 000000018010dce0 f   GuPersistentContactManifold.obj
 0001:0010d030       ?drawManifold@MultiplePersistentContactManifold@Gu@physx@@QEAAXAEAVRenderOutput@Cm@3@AEBVPsTransformV@aos@shdfnd@3@1@Z 000000018010e030 f   GuPersistentContactManifold.obj
 0001:0010d0f0       ?drawLine@MultiplePersistentContactManifold@Gu@physx@@SAXAEAVRenderOutput@Cm@3@AEBT__m128@@1I@Z 000000018010e0f0 f   GuPersistentContactManifold.obj
 0001:0010d1b0       ?drawLine@MultiplePersistentContactManifold@Gu@physx@@SAXAEAVRenderOutput@Cm@3@VPxVec3@3@1I@Z 000000018010e1b0 f   GuPersistentContactManifold.obj
 0001:0010d270       ?drawPoint@MultiplePersistentContactManifold@Gu@physx@@SAXAEAVRenderOutput@Cm@3@AEBT__m128@@MI@Z 000000018010e270 f   GuPersistentContactManifold.obj
 0001:0010d450       ?drawPolygon@MultiplePersistentContactManifold@Gu@physx@@SAXAEAVRenderOutput@Cm@3@AEBVPsTransformV@aos@shdfnd@3@PEAT__m128@@II@Z 000000018010e450 f   GuPersistentContactManifold.obj
 0001:0010d770       ??0MeshPersistentContact@Gu@physx@@QEAA@XZ 000000018010e770 f i GuPersistentContactManifold.obj
 0001:0010d780       ??0PersistentContact@Gu@physx@@QEAA@XZ 000000018010e780 f i GuPersistentContactManifold.obj
 0001:0010eab0       ?computeOBBPoints@Gu@physx@@YAXPEIAVPxVec3@2@AEBV32@1111@Z 000000018010fab0 f   GuBox.obj
 0001:0010edc0       ?create@Box@Gu@physx@@QEAAXAEBVCapsule@23@@Z 000000018010fdc0 f   GuBox.obj
 0001:0010f060       ?getBoxEdges@Gu@physx@@YAPEBEXZ 0000000180110060 f   GuBox.obj
 0001:0010f070       ?CompleteBoxPruning@Gu@physx@@YA_NPEBVPxBounds3@2@IAEAV?$Array@IV?$ReflectionAllocator@I@shdfnd@physx@@@shdfnd@2@AEBVAxes@12@@Z 0000000180110070 f   GuBoxPruning.obj
 0001:0010f360       ?BipartiteBoxPruning@Gu@physx@@YA_NPEBVPxBounds3@2@I0IAEAV?$Array@IV?$ReflectionAllocator@I@shdfnd@physx@@@shdfnd@2@AEBVAxes@12@@Z 0000000180110360 f   GuBoxPruning.obj
 0001:0010f940       ?GetNbHits@RadixSort@Gu@physx@@QEBAIXZ 0000000180110940 f i GuBoxPruning.obj
 0001:0010f950       ?GetNbTotalCalls@RadixSort@Gu@physx@@QEBAIXZ 0000000180110950 f i GuBoxPruning.obj
 0001:0010f960       ?GetRanks@RadixSort@Gu@physx@@QEBAPEBIXZ 0000000180110960 f i GuBoxPruning.obj
 0001:0010f970       ?GetRecyclable@RadixSort@Gu@physx@@QEBAPEAIXZ 0000000180110970 f i GuBoxPruning.obj
 0001:0010f980       ?allocate@?$ReflectionAllocator@I@shdfnd@physx@@QEAAPEAX_KPEBDH@Z 0000000180110980 f i GuBoxPruning.obj
 0001:0010fa20       ?growAndPushBack@?$Array@IV?$ReflectionAllocator@I@shdfnd@physx@@@shdfnd@physx@@IEAAAEAIAEBI@Z 0000000180110a20 f i GuBoxPruning.obj
 0001:0010faf0       ?computeBoxAroundCapsule@Gu@physx@@YAXAEBVCapsule@12@AEAVBox@12@@Z 0000000180110af0 f   GuCapsule.obj
 0001:0010fd50       ?sweepCCTBoxTriangles@Gu@physx@@YA_NIPEBVPxTriangle@2@_NAEBVPxBoxGeometry@2@AEBVPxTransform@2@AEBVPxVec3@2@MAEAV62@5AEAMAEAIPEBIMV?$PxFlags@W4Enum@PxHitFlag@physx@@G@2@@Z 0000000180110d50 f   GuCCTSweepTests.obj
 0001:00110020       ?sweepCCTCapsule_BoxGeom@@YA_NAEBVPxGeometry@physx@@AEBVPxTransform@2@AEBVCapsule@Gu@2@AEBVPxVec3@2@MAEAUPxSweepHit@2@V?$PxFlags@W4Enum@PxHitFlag@physx@@G@2@M@Z 0000000180111020 f   GuCCTSweepTests.obj
 0001:001107c0       ?sweepCCTBox_SphereGeom@@YA_NAEBVPxGeometry@physx@@AEBVPxTransform@2@AEBVBox@Gu@2@AEBVPxVec3@2@MAEAUPxSweepHit@2@V?$PxFlags@W4Enum@PxHitFlag@physx@@G@2@M@Z 00000001801117c0 f   GuCCTSweepTests.obj
 0001:00110ad0       ?sweepCCTBox_CapsuleGeom@@YA_NAEBVPxGeometry@physx@@AEBVPxTransform@2@AEBVBox@Gu@2@AEBVPxVec3@2@MAEAUPxSweepHit@2@V?$PxFlags@W4Enum@PxHitFlag@physx@@G@2@M@Z 0000000180111ad0 f   GuCCTSweepTests.obj
 0001:00110ee0       ?sweepCCTBox_BoxGeom@@YA_NAEBVPxGeometry@physx@@AEBVPxTransform@2@AEBVBox@Gu@2@AEBVPxVec3@2@MAEAUPxSweepHit@2@V?$PxFlags@W4Enum@PxHitFlag@physx@@G@2@M@Z 0000000180111ee0 f   GuCCTSweepTests.obj
 0001:001111c0       ?sweepCCTBox_HeightFieldGeom@@YA_NAEBVPxGeometry@physx@@AEBVPxTransform@2@AEBVBox@Gu@2@AEBVPxVec3@2@MAEAUPxSweepHit@2@V?$PxFlags@W4Enum@PxHitFlag@physx@@G@2@M@Z 00000001801121c0 f   GuCCTSweepTests.obj
 0001:001113a0       ??_ELocalReport@?1??sweepCCTBox_HeightFieldGeom@@YA_NAEBVPxGeometry@physx@@AEBVPxTransform@3@AEBVBox@Gu@3@AEBVPxVec3@3@MAEAUPxSweepHit@3@V?$PxFlags@W4Enum@PxHitFlag@physx@@G@3@M@Z@UEAAPEAXI@Z 00000001801123a0 f i GuCCTSweepTests.obj
 0001:001113a0       ??_GLocalReport@?1??sweepCCTBox_HeightFieldGeom@@YA_NAEBVPxGeometry@physx@@AEBVPxTransform@3@AEBVBox@Gu@3@AEBVPxVec3@3@MAEAUPxSweepHit@3@V?$PxFlags@W4Enum@PxHitFlag@physx@@G@3@M@Z@UEAAPEAXI@Z 00000001801123a0 f i GuCCTSweepTests.obj
 0001:001122b0       ??0Container@Gu@physx@@QEAA@XZ 00000001801132b0 f   GuContainer.obj
 0001:001122d0       ??0Container@Gu@physx@@QEAA@AEBV012@@Z 00000001801132d0 f   GuContainer.obj
 0001:00112330       ??0Container@Gu@physx@@QEAA@IM@Z 0000000180113330 f   GuContainer.obj
 0001:00112370       ??1Container@Gu@physx@@QEAA@XZ 0000000180113370 f   GuContainer.obj
 0001:00112380       ?Contains@Container@Gu@physx@@QEBA_NIPEAI@Z 0000000180113380 f   GuContainer.obj
 0001:001123c0       ?Delete@Container@Gu@physx@@QEAA_NI@Z 00000001801133c0 f   GuContainer.obj
 0001:00112400       ?DeleteKeepingOrder@Container@Gu@physx@@QEAA_NI@Z 0000000180113400 f   GuContainer.obj
 0001:00112460       ??4Container@Gu@physx@@QEAAXAEBV012@@Z 0000000180113460 f   GuContainer.obj
 0001:001124b0       ?InitSharedBuffers@Container@Gu@physx@@QEAAXIPEAI_N@Z 00000001801134b0 f   GuContainerMemoryMgmt.obj
 0001:00112540       ?Empty@Container@Gu@physx@@QEAAAEAV123@XZ 0000000180113540 f   GuContainerMemoryMgmt.obj
 0001:001125a0       ?SetSize@Container@Gu@physx@@QEAA_NI@Z 00000001801135a0 f   GuContainerMemoryMgmt.obj
 0001:00112690       ?Refit@Container@Gu@physx@@QEAA_NXZ 0000000180113690 f   GuContainerMemoryMgmt.obj
 0001:00112790       ?Resize@Container@Gu@physx@@AEAA_NI@Z 0000000180113790 f   GuContainerMemoryMgmt.obj
 0001:001128e0       ?convertToPxMat44@Debug@Gu@physx@@SA?AVPxMat44@3@AEBVMatrix34@Cm@3@@Z 00000001801138e0 f   GuDebug.obj
 0001:00112970       ?convertToPxMat44@Debug@Gu@physx@@SA?AVPxMat44@3@AEBVPxTransform@3@@Z 0000000180113970 f   GuDebug.obj
 0001:00112b10       ?visualize@Debug@Gu@physx@@SAXAEBVPxBoxGeometry@3@AEAVRenderOutput@Cm@3@AEBVMatrix34@63@AEBVPxBounds3@3@_KMI@Z 0000000180113b10 f   GuDebug.obj
 0001:00112cc0       ?visualize@Debug@Gu@physx@@SAXAEBVPxSphereGeometry@3@AEAVRenderOutput@Cm@3@AEBVMatrix34@63@AEBVPxBounds3@3@_KMI@Z 0000000180113cc0 f   GuDebug.obj
 0001:00112f40       ?visualize@Debug@Gu@physx@@SAXAEBVPxPlaneGeometry@3@AEAVRenderOutput@Cm@3@AEBVMatrix34@63@AEBVPxBounds3@3@_KMI@Z 0000000180113f40 f   GuDebug.obj
 0001:001130f0       ?visualize@Debug@Gu@physx@@SAXAEBVPxCapsuleGeometry@3@AEAVRenderOutput@Cm@3@AEBVMatrix34@63@AEBVPxBounds3@3@_KMI@Z 00000001801140f0 f   GuDebug.obj
 0001:001131d0       ?visualize@Debug@Gu@physx@@SAXAEBVPxConvexMeshGeometry@3@AEAVRenderOutput@Cm@3@AEBVMatrix34@63@AEBVPxBounds3@3@_KMI@Z 00000001801141d0 f   GuDebug.obj
 0001:001131e0       ?visualize@Debug@Gu@physx@@SAXAEBVPxTriangleMeshGeometry@3@AEAVRenderOutput@Cm@3@AEBVMatrix34@63@AEBVPxBounds3@3@_KMI@Z 00000001801141e0 f   GuDebug.obj
 0001:00113230       ?visualize@Debug@Gu@physx@@SAXAEBVPxHeightFieldGeometry@3@AEAVRenderOutput@Cm@3@AEBVMatrix34@63@AEBVPxBounds3@3@_KMI@Z 0000000180114230 f   GuDebug.obj
 0001:00113d90       ?sweep@PxGeometryQuery@physx@@SA_NAEBVPxVec3@2@MAEBVPxGeometry@2@AEBVPxTransform@2@12AEAUPxSweepHit@2@V?$PxFlags@W4Enum@PxHitFlag@physx@@G@2@M@Z 0000000180114d90 f   GuGeometryQuery.obj
 0001:00114260       ?overlap@PxGeometryQuery@physx@@SA_NAEBVPxGeometry@2@AEBVPxTransform@2@01@Z 0000000180115260 f   GuGeometryQuery.obj
 0001:00114300       ?raycast@PxGeometryQuery@physx@@SAIAEBVPxVec3@2@0AEBVPxGeometry@2@AEBVPxTransform@2@MV?$PxFlags@W4Enum@PxHitFlag@physx@@G@2@IPEIAUPxRaycastHit@2@_N@Z 0000000180115300 f   GuGeometryQuery.obj
 0001:001143e0       ?computePenetration@PxGeometryQuery@physx@@SA_NAEAVPxVec3@2@AEAMAEBVPxGeometry@2@AEBVPxTransform@2@23@Z 00000001801153e0 f   GuGeometryQuery.obj
 0001:001144c0       ?pointDistance@PxGeometryQuery@physx@@SAMAEBVPxVec3@2@AEBVPxGeometry@2@AEBVPxTransform@2@PEAV32@@Z 00000001801154c0 f   GuGeometryQuery.obj
 0001:00114b30       ?getWorldBounds@PxGeometryQuery@physx@@SA?AVPxBounds3@2@AEBVPxGeometry@2@AEBVPxTransform@2@M@Z 0000000180115b30 f   GuGeometryQuery.obj
 0001:00114cc0       ?set@GeometryUnion@Gu@physx@@QEAAXAEBVPxGeometry@3@@Z 0000000180115cc0 f   GuGeometryUnion.obj
 0001:00114e90       ?computeBoxPoints@Gu@physx@@YAXAEBVPxBounds3@2@PEIAVPxVec3@2@@Z 0000000180115e90 f   GuGeomUtilsInternal.obj
 0001:00114f30       ?computeBoundsAroundVertices@Gu@physx@@YAXAEAVPxBounds3@2@IPEIBVPxVec3@2@@Z 0000000180115f30 f   GuGeomUtilsInternal.obj
 0001:00114fd0       ?getPlane@Gu@physx@@YA?AVPxPlane@2@AEBVPxTransform@2@@Z 0000000180115fd0 f   GuGeomUtilsInternal.obj
 0001:00115080       ?getCapsuleTransform@Gu@physx@@YA?AVPxTransform@2@AEBVCapsule@12@AEAM@Z 0000000180116080 f   GuGeomUtilsInternal.obj
 0001:001152f0       ?computeSweptBox@Gu@physx@@YAXAEAVBox@12@AEBVPxVec3@2@1AEBVPxMat33@2@1M@Z 00000001801162f0 f   GuGeomUtilsInternal.obj
 0001:001157f0       ?computeBasis@shdfnd@physx@@YAXAEBVPxVec3@2@AEAV32@1@Z 00000001801167f0 f i GuGeomUtilsInternal.obj
 0001:00115910       ??1GuMeshFactory@physx@@MEAA@XZ 0000000180116910 f   GuMeshFactory.obj
 0001:001159d0       ?release@GuMeshFactory@physx@@QEAAXXZ 00000001801169d0 f   GuMeshFactory.obj
 0001:00115a60       ?addTriangleMesh@GuMeshFactory@physx@@QEAAXPEAVTriangleMesh@Gu@2@_N@Z 0000000180116a60 f   GuMeshFactory.obj
 0001:00115ae0       ?createTriangleMesh@GuMeshFactory@physx@@QEAAPEAVPxTriangleMesh@2@AEAVPxInputStream@2@@Z 0000000180116ae0 f   GuMeshFactory.obj
 0001:00115c10       ?removeTriangleMesh@GuMeshFactory@physx@@QEAA_NAEAVPxTriangleMesh@2@@Z 0000000180116c10 f   GuMeshFactory.obj
 0001:00115c60       ?getNbTriangleMeshes@GuMeshFactory@physx@@QEBAIXZ 0000000180116c60 f   GuMeshFactory.obj
 0001:00115ca0       ?getTriangleMeshes@GuMeshFactory@physx@@QEBAIPEAPEAVPxTriangleMesh@2@II@Z 0000000180116ca0 f   GuMeshFactory.obj
 0001:00115d30       ?addConvexMesh@GuMeshFactory@physx@@QEAAXPEAVConvexMesh@Gu@2@_N@Z 0000000180116d30 f   GuMeshFactory.obj
 0001:00115db0       ?createConvexMesh@GuMeshFactory@physx@@QEAAPEAVPxConvexMesh@2@AEAVPxInputStream@2@@Z 0000000180116db0 f   GuMeshFactory.obj
 0001:00115ee0       ?removeConvexMesh@GuMeshFactory@physx@@QEAA_NAEAVPxConvexMesh@2@@Z 0000000180116ee0 f   GuMeshFactory.obj
 0001:00115f30       ?getNbConvexMeshes@GuMeshFactory@physx@@QEBAIXZ 0000000180116f30 f   GuMeshFactory.obj
 0001:00115f70       ?getConvexMeshes@GuMeshFactory@physx@@QEBAIPEAPEAVPxConvexMesh@2@II@Z 0000000180116f70 f   GuMeshFactory.obj
 0001:00116000       ?addHeightField@GuMeshFactory@physx@@QEAAXPEAVHeightField@Gu@2@_N@Z 0000000180117000 f   GuMeshFactory.obj
 0001:00116090       ?createHeightField@GuMeshFactory@physx@@QEAAPEAVPxHeightField@2@AEBVPxHeightFieldDesc@2@@Z 0000000180117090 f   GuMeshFactory.obj
 0001:001161c0       ?createHeightField@GuMeshFactory@physx@@QEAAPEAVPxHeightField@2@AEAVPxInputStream@2@@Z 00000001801171c0 f   GuMeshFactory.obj
 0001:001162e0       ?removeHeightField@GuMeshFactory@physx@@QEAA_NAEAVPxHeightField@2@@Z 00000001801172e0 f   GuMeshFactory.obj
 0001:00116330       ?getNbHeightFields@GuMeshFactory@physx@@QEBAIXZ 0000000180117330 f   GuMeshFactory.obj
 0001:00116370       ?getHeightFields@GuMeshFactory@physx@@QEBAIPEAPEAVPxHeightField@2@II@Z 0000000180117370 f   GuMeshFactory.obj
 0001:00116400       ?addFactoryListener@GuMeshFactory@physx@@QEAAXAEAVGuMeshFactoryListener@2@@Z 0000000180117400 f   GuMeshFactory.obj
 0001:00116470       ?removeFactoryListener@GuMeshFactory@physx@@QEAAXAEAVGuMeshFactoryListener@2@@Z 0000000180117470 f   GuMeshFactory.obj
 0001:00116500       ?notifyFactoryListener@GuMeshFactory@physx@@QEAAXPEBVPxBase@2@G_N@Z 0000000180117500 f   GuMeshFactory.obj
 0001:00116580       ?allocate@?$ReflectionAllocator@PEAVGuMeshFactoryListener@physx@@@shdfnd@physx@@QEAAPEAX_KPEBDH@Z 0000000180117580 f i GuMeshFactory.obj
 0001:00116620       ?create@?$HashBase@PEAVConvexMesh@Gu@physx@@PEAV123@U?$Hash@PEAVConvexMesh@Gu@physx@@@shdfnd@3@UGetKey@?$HashSetBase@PEAVConvexMesh@Gu@physx@@U?$Hash@PEAVConvexMesh@Gu@physx@@@shdfnd@3@VAllocator@53@$00@internal@53@VAllocator@53@$00@internal@shdfnd@physx@@QEAAPEAPEAVConvexMesh@Gu@4@AEBQEAV564@AEA_N@Z 0000000180117620 f i GuMeshFactory.obj
 0001:001167b0       ?create@?$HashBase@PEAVHeightField@Gu@physx@@PEAV123@U?$Hash@PEAVHeightField@Gu@physx@@@shdfnd@3@UGetKey@?$HashSetBase@PEAVHeightField@Gu@physx@@U?$Hash@PEAVHeightField@Gu@physx@@@shdfnd@3@VAllocator@53@$00@internal@53@VAllocator@53@$00@internal@shdfnd@physx@@QEAAPEAPEAVHeightField@Gu@4@AEBQEAV564@AEA_N@Z 00000001801177b0 f i GuMeshFactory.obj
 0001:00116940       ?create@?$HashBase@PEAVTriangleMesh@Gu@physx@@PEAV123@U?$Hash@PEAVTriangleMesh@Gu@physx@@@shdfnd@3@UGetKey@?$HashSetBase@PEAVTriangleMesh@Gu@physx@@U?$Hash@PEAVTriangleMesh@Gu@physx@@@shdfnd@3@VAllocator@53@$00@internal@53@VAllocator@53@$00@internal@shdfnd@physx@@QEAAPEAPEAVTriangleMesh@Gu@4@AEBQEAV564@AEA_N@Z 0000000180117940 f i GuMeshFactory.obj
 0001:00116ad0       ?erase@?$HashBase@PEAVConvexMesh@Gu@physx@@PEAV123@U?$Hash@PEAVConvexMesh@Gu@physx@@@shdfnd@3@UGetKey@?$HashSetBase@PEAVConvexMesh@Gu@physx@@U?$Hash@PEAVConvexMesh@Gu@physx@@@shdfnd@3@VAllocator@53@$00@internal@53@VAllocator@53@$00@internal@shdfnd@physx@@QEAA_NAEBQEAVConvexMesh@Gu@4@@Z 0000000180117ad0 f i GuMeshFactory.obj
 0001:00116bb0       ?erase@?$HashBase@PEAVHeightField@Gu@physx@@PEAV123@U?$Hash@PEAVHeightField@Gu@physx@@@shdfnd@3@UGetKey@?$HashSetBase@PEAVHeightField@Gu@physx@@U?$Hash@PEAVHeightField@Gu@physx@@@shdfnd@3@VAllocator@53@$00@internal@53@VAllocator@53@$00@internal@shdfnd@physx@@QEAA_NAEBQEAVHeightField@Gu@4@@Z 0000000180117bb0 f i GuMeshFactory.obj
 0001:00116c90       ?erase@?$HashBase@PEAVTriangleMesh@Gu@physx@@PEAV123@U?$Hash@PEAVTriangleMesh@Gu@physx@@@shdfnd@3@UGetKey@?$HashSetBase@PEAVTriangleMesh@Gu@physx@@U?$Hash@PEAVTriangleMesh@Gu@physx@@@shdfnd@3@VAllocator@53@$00@internal@53@VAllocator@53@$00@internal@shdfnd@physx@@QEAA_NAEBQEAVTriangleMesh@Gu@4@@Z 0000000180117c90 f i GuMeshFactory.obj
 0001:00116d70       ?growAndPushBack@?$Array@PEAVGuMeshFactoryListener@physx@@V?$ReflectionAllocator@PEAVGuMeshFactoryListener@physx@@@shdfnd@2@@shdfnd@physx@@IEAAAEAPEAVGuMeshFactoryListener@3@AEBQEAV43@@Z 0000000180117d70 f i GuMeshFactory.obj
 0001:00116e50       ?replaceWithLast@?$HashBase@PEAVConvexMesh@Gu@physx@@PEAV123@U?$Hash@PEAVConvexMesh@Gu@physx@@@shdfnd@3@UGetKey@?$HashSetBase@PEAVConvexMesh@Gu@physx@@U?$Hash@PEAVConvexMesh@Gu@physx@@@shdfnd@3@VAllocator@53@$00@internal@53@VAllocator@53@$00@internal@shdfnd@physx@@AEAAXI@Z 0000000180117e50 f i GuMeshFactory.obj
 0001:00116f20       ?replaceWithLast@?$HashBase@PEAVHeightField@Gu@physx@@PEAV123@U?$Hash@PEAVHeightField@Gu@physx@@@shdfnd@3@UGetKey@?$HashSetBase@PEAVHeightField@Gu@physx@@U?$Hash@PEAVHeightField@Gu@physx@@@shdfnd@3@VAllocator@53@$00@internal@53@VAllocator@53@$00@internal@shdfnd@physx@@AEAAXI@Z 0000000180117f20 f i GuMeshFactory.obj
 0001:00116ff0       ?replaceWithLast@?$HashBase@PEAVTriangleMesh@Gu@physx@@PEAV123@U?$Hash@PEAVTriangleMesh@Gu@physx@@@shdfnd@3@UGetKey@?$HashSetBase@PEAVTriangleMesh@Gu@physx@@U?$Hash@PEAVTriangleMesh@Gu@physx@@@shdfnd@3@VAllocator@53@$00@internal@53@VAllocator@53@$00@internal@shdfnd@physx@@AEAAXI@Z 0000000180117ff0 f i GuMeshFactory.obj
 0001:001170c0       ?getBinaryMetaData@HeightField@Gu@physx@@SAXAEAVPxOutputStream@3@@Z 00000001801180c0 f   GuMetaData.obj
 0001:001173a0       ?getBinaryMetaData@BigConvexData@physx@@SAXAEAVPxOutputStream@2@@Z 00000001801183a0 f   GuMetaData.obj
 0001:001175c0       ?getBinaryMetaData@ConvexMesh@Gu@physx@@SAXAEAVPxOutputStream@3@@Z 00000001801185c0 f   GuMetaData.obj
 0001:00117a80       ?getBinaryMetaData@MeshInterface@Gu@physx@@SAXAEAVPxOutputStream@3@@Z 0000000180118a80 f   GuMetaData.obj
 0001:00117c20       ?getBinaryMetaData@RTree@Gu@physx@@SAXAEAVPxOutputStream@3@@Z 0000000180118c20 f   GuMetaData.obj
 0001:00117f90       ?getBinaryMetaData@RTreeMidphase@Gu@physx@@SAXAEAVPxOutputStream@3@@Z 0000000180118f90 f   GuMetaData.obj
 0001:001180c0       ?getBinaryMetaData@InternalTriangleMesh@physx@@SAXAEAVPxOutputStream@2@@Z 00000001801190c0 f   GuMetaData.obj
 0001:00118410       ?getBinaryMetaData@TriangleMesh@Gu@physx@@SAXAEAVPxOutputStream@3@@Z 0000000180119410 f   GuMetaData.obj
 0001:00118580       ?getBinaryMetaData@MaterialIndicesStruct@physx@@SAXAEAVPxOutputStream@2@@Z 0000000180119580 f   GuMetaData.obj
 0001:00118730       ?getBinaryMetaData@GeometryUnion@Gu@physx@@SAXAEAVPxOutputStream@3@@Z 0000000180119730 f   GuMetaData.obj
 0001:0011a9c0       ?computeMTD_SphereSphere@Gu@physx@@YA_NAEAVPxVec3@2@AEAMAEBVSphere@12@2@Z 000000018011b9c0 f   GuMTD.obj
 0001:0011aab0       ?computeMTD_SphereCapsule@Gu@physx@@YA_NAEAVPxVec3@2@AEAMAEBVSphere@12@AEBVCapsule@12@@Z 000000018011bab0 f   GuMTD.obj
 0001:0011ac00       ?computeMTD_SphereBox@Gu@physx@@YA_NAEAVPxVec3@2@AEAMAEBVSphere@12@AEBVBox@12@@Z 000000018011bc00 f   GuMTD.obj
 0001:0011b1b0       ?computeMTD_CapsuleCapsule@Gu@physx@@YA_NAEAVPxVec3@2@AEAMAEBVCapsule@12@2@Z 000000018011c1b0 f   GuMTD.obj
 0001:0011b380       ?computeMTD_CapsuleBox@Gu@physx@@YA_NAEAVPxVec3@2@AEAMAEBVCapsule@12@AEBVBox@12@@Z 000000018011c380 f   GuMTD.obj
 0001:0011b620       ?computeMTD_BoxBox@Gu@physx@@YA_NAEAVPxVec3@2@AEAMAEBVBox@12@2@Z 000000018011c620 f   GuMTD.obj
 0001:0011baa0       ?computeMTD_SphereConvex@Gu@physx@@YA_NAEAVPxVec3@2@AEAMAEBVSphere@12@AEBVPxConvexMeshGeometry@2@AEBVPxTransform@2@@Z 000000018011caa0 f   GuMTD.obj
 0001:0011bea0       ?computeMTD_BoxConvex@Gu@physx@@YA_NAEAVPxVec3@2@AEAMAEBVBox@12@AEBVPxConvexMeshGeometry@2@AEBVPxTransform@2@@Z 000000018011cea0 f   GuMTD.obj
 0001:0011c6e0       ?computeMTD_CapsuleConvex@Gu@physx@@YA_NAEAVPxVec3@2@AEAMAEBVCapsule@12@AEBVPxTransform@2@AEBVPxConvexMeshGeometry@2@3@Z 000000018011d6e0 f   GuMTD.obj
 0001:0011d0b0       ?computeMTD_ConvexConvex@Gu@physx@@YA_NAEAVPxVec3@2@AEAMAEBVPxConvexMeshGeometry@2@AEBVPxTransform@2@23@Z 000000018011e0b0 f   GuMTD.obj
 0001:0011dc40       ?computeMTD_SpherePlane@Gu@physx@@YA_NAEAVPxVec3@2@AEAMAEBVSphere@12@AEBVPxPlane@2@@Z 000000018011ec40 f   GuMTD.obj
 0001:0011dcb0       ?computeMTD_PlaneBox@Gu@physx@@YA_NAEAVPxVec3@2@AEAMAEBVPxPlane@2@AEBVBox@12@@Z 000000018011ecb0 f   GuMTD.obj
 0001:0011ded0       ?computeMTD_PlaneCapsule@Gu@physx@@YA_NAEAVPxVec3@2@AEAMAEBVPxPlane@2@AEBVCapsule@12@@Z 000000018011eed0 f   GuMTD.obj
 0001:0011dfb0       ?computeMTD_PlaneConvex@Gu@physx@@YA_NAEAVPxVec3@2@AEAMAEBVPxPlane@2@AEBVPxConvexMeshGeometry@2@AEBVPxTransform@2@@Z 000000018011efb0 f   GuMTD.obj
 0001:0011e800       ?computeMTD_SphereMesh@Gu@physx@@YA_NAEAVPxVec3@2@AEAMAEBVSphere@12@AEBVPxTriangleMeshGeometry@2@AEBVPxTransform@2@@Z 000000018011f800 f   GuMTD.obj
 0001:0011e940       ?computeMTD_BoxMesh@Gu@physx@@YA_NAEAVPxVec3@2@AEAMAEBVBox@12@AEBVPxTriangleMeshGeometry@2@AEBVPxTransform@2@@Z 000000018011f940 f   GuMTD.obj
 0001:0011eab0       ?computeMTD_CapsuleMesh@Gu@physx@@YA_NAEAVPxVec3@2@AEAMAEBVCapsule@12@AEBVPxTriangleMeshGeometry@2@AEBVPxTransform@2@@Z 000000018011fab0 f   GuMTD.obj
 0001:0011ebe0       ?computeMTD_ConvexMesh@Gu@physx@@YA_NAEAVPxVec3@2@AEAMAEBVPxConvexMeshGeometry@2@AEBVPxTransform@2@AEBVPxTriangleMeshGeometry@2@3@Z 000000018011fbe0 f   GuMTD.obj
 0001:0011ece0       ?computeMTD_SphereHeightField@Gu@physx@@YA_NAEAVPxVec3@2@AEAMAEBVSphere@12@AEBVPxHeightFieldGeometry@2@AEBVPxTransform@2@@Z 000000018011fce0 f   GuMTD.obj
 0001:0011ee20       ?computeMTD_CapsuleHeightField@Gu@physx@@YA_NAEAVPxVec3@2@AEAMAEBVCapsule@12@AEBVPxHeightFieldGeometry@2@AEBVPxTransform@2@@Z 000000018011fe20 f   GuMTD.obj
 0001:0011ef50       ?computeMTD_BoxHeightField@Gu@physx@@YA_NAEAVPxVec3@2@AEAMAEBVBox@12@AEBVPxHeightFieldGeometry@2@AEBVPxTransform@2@@Z 000000018011ff50 f   GuMTD.obj
 0001:0011f0c0       ?computeMTD_ConvexHeightField@Gu@physx@@YA_NAEAVPxVec3@2@AEAMAEBVPxConvexMeshGeometry@2@AEBVPxTransform@2@AEBVPxHeightFieldGeometry@2@3@Z 00000001801200c0 f   GuMTD.obj
 0001:0011f1c0       ?pointConvexDistance@@YA_NAEAVPxVec3@physx@@0AEAMAEBV12@PEBVConvexMesh@Gu@2@AEBVPxMeshScale@2@AEBVPxTransform@2@@Z 00000001801201c0 f   GuMTD.obj
 0001:001217e0       ??0ContactPoint@Gu@physx@@QEAA@XZ 00000001801227e0 f i GuMTD.obj
 0001:00122370       ?computeBounds@GeometryUnion@Gu@physx@@QEBAXAEAVPxBounds3@3@AEBVPxTransform@3@MPEIBV43@@Z 0000000180123370 f   GuObjectBounds.obj
 0001:001229e0       ?computeBoundsWithCCDThreshold@GeometryUnion@Gu@physx@@QEBAMAEAVPxVec3@3@0AEBVPxTransform@3@PEIBVPxBounds3@3@@Z 00000001801239e0 f   GuObjectBounds.obj
 0001:00123b90       ?intersectPlaneBox@Gu@physx@@YA_NAEBVPxPlane@2@AEBVBox@12@@Z 0000000180124b90 f   GuOverlapTests.obj
 0001:00123c50       ?intersectPlaneCapsule@Gu@physx@@YA_NAEBVCapsule@12@AEBVPxPlane@2@@Z 0000000180124c50 f   GuOverlapTests.obj
 0001:00123cd0       ?intersectSphereSphere@Gu@physx@@YA_NAEBVSphere@12@0@Z 0000000180124cd0 f   GuOverlapTests.obj
 0001:00123d20       ?intersectSphereCapsule@Gu@physx@@YA_NAEBVSphere@12@AEBVCapsule@12@@Z 0000000180124d20 f   GuOverlapTests.obj
 0001:00123d70       ?intersectSphereBox@Gu@physx@@YA_NAEBVSphere@12@AEBVBox@12@@Z 0000000180124d70 f   GuOverlapTests.obj
 0001:00123f70       ?intersectBoxCapsule@Gu@physx@@YA_NAEBVBox@12@AEBVCapsule@12@@Z 0000000180124f70 f   GuOverlapTests.obj
 0001:00123fd0       ?intersectSphereConvex@Gu@physx@@YA_NAEBVSphere@12@AEBVConvexMesh@12@AEBVPxMeshScale@2@AEBVPxTransform@2@PEAVPxVec3@2@@Z 0000000180124fd0 f   GuOverlapTests.obj
 0001:00124780       ?intersectCapsuleConvex@Gu@physx@@YA_NAEBVPxCapsuleGeometry@2@AEBVPxTransform@2@AEBVConvexMesh@12@AEBVPxMeshScale@2@1PEAVPxVec3@2@@Z 0000000180125780 f   GuOverlapTests.obj
 0001:00125090       ?intersectBoxConvex@Gu@physx@@YA_NAEBVPxBoxGeometry@2@AEBVPxTransform@2@AEBVConvexMesh@12@AEBVPxMeshScale@2@1PEAVPxVec3@2@@Z 0000000180126090 f   GuOverlapTests.obj
 0001:001259e0       ?checkOverlapSphere_boxGeom@Gu@physx@@YA_NAEBVPxGeometry@2@AEBVPxTransform@2@AEBVSphere@12@@Z 00000001801269e0 f   GuOverlapTests.obj
 0001:00125bb0       ?checkOverlapSphere_sphereGeom@Gu@physx@@YA_NAEBVPxGeometry@2@AEBVPxTransform@2@AEBVSphere@12@@Z 0000000180126bb0 f   GuOverlapTests.obj
 0001:00125c00       ?checkOverlapSphere_capsuleGeom@Gu@physx@@YA_NAEBVPxGeometry@2@AEBVPxTransform@2@AEBVSphere@12@@Z 0000000180126c00 f   GuOverlapTests.obj
 0001:00125d10       ?checkOverlapSphere_planeGeom@Gu@physx@@YA_NAEBVPxGeometry@2@AEBVPxTransform@2@AEBVSphere@12@@Z 0000000180126d10 f   GuOverlapTests.obj
 0001:00125d70       ?checkOverlapSphere_convexGeom@Gu@physx@@YA_NAEBVPxGeometry@2@AEBVPxTransform@2@AEBVSphere@12@@Z 0000000180126d70 f   GuOverlapTests.obj
 0001:00125f80       ?checkOverlapOBB_boxGeom@Gu@physx@@YA_NAEBVPxGeometry@2@AEBVPxTransform@2@AEBVBox@12@@Z 0000000180126f80 f   GuOverlapTests.obj
 0001:00126110       ?checkOverlapOBB_sphereGeom@Gu@physx@@YA_NAEBVPxGeometry@2@AEBVPxTransform@2@AEBVBox@12@@Z 0000000180127110 f   GuOverlapTests.obj
 0001:00126160       ?checkOverlapOBB_capsuleGeom@Gu@physx@@YA_NAEBVPxGeometry@2@AEBVPxTransform@2@AEBVBox@12@@Z 0000000180127160 f   GuOverlapTests.obj
 0001:00126290       ?checkOverlapOBB_planeGeom@Gu@physx@@YA_NAEBVPxGeometry@2@AEBVPxTransform@2@AEBVBox@12@@Z 0000000180127290 f   GuOverlapTests.obj
 0001:001262c0       ?checkOverlapOBB_convexGeom@Gu@physx@@YA_NAEBVPxGeometry@2@AEBVPxTransform@2@AEBVBox@12@@Z 00000001801272c0 f   GuOverlapTests.obj
 0001:00126550       ?checkOverlapCapsule_boxGeom@Gu@physx@@YA_NAEBVPxGeometry@2@AEBVPxTransform@2@AEBVCapsule@12@@Z 0000000180127550 f   GuOverlapTests.obj
 0001:00126760       ?checkOverlapCapsule_sphereGeom@Gu@physx@@YA_NAEBVPxGeometry@2@AEBVPxTransform@2@AEBVCapsule@12@@Z 0000000180127760 f   GuOverlapTests.obj
 0001:001267d0       ?checkOverlapCapsule_capsuleGeom@Gu@physx@@YA_NAEBVPxGeometry@2@AEBVPxTransform@2@AEBVCapsule@12@@Z 00000001801277d0 f   GuOverlapTests.obj
 0001:00126970       ?checkOverlapCapsule_planeGeom@Gu@physx@@YA_NAEBVPxGeometry@2@AEBVPxTransform@2@AEBVCapsule@12@@Z 0000000180127970 f   GuOverlapTests.obj
 0001:00126a10       ?checkOverlapCapsule_convexGeom@Gu@physx@@YA_NAEBVPxGeometry@2@AEBVPxTransform@2@AEBVCapsule@12@@Z 0000000180127a10 f   GuOverlapTests.obj
 0001:00126c90       ?GetGeomOverlapMethodTable@Gu@physx@@YAPEAY06P6A_NAEBVPxGeometry@2@AEBVPxTransform@2@01PEAUTriggerCache@12@@ZXZ 0000000180127c90 f   GuOverlapTests.obj
 0001:00126ca0       ?registerHeightFields@Gu@physx@@YAXXZ 0000000180127ca0 f   GuOverlapTests.obj
 0001:00129810       ?GetRaycastFuncTable@Gu@physx@@YAAEAY06P6AIAEBVPxGeometry@2@AEBVPxTransform@2@AEBVPxVec3@2@2MV?$PxFlags@W4Enum@PxHitFlag@physx@@G@2@IPEIAUPxRaycastHit@2@_NP6A_NAEAU72@PEAX@Z7@ZXZ 000000018012a810 f   GuRaycastTests.obj
 0001:00129820       ?raycast_box@@YAIAEBVPxGeometry@physx@@AEBVPxTransform@2@AEBVPxVec3@2@2MV?$PxFlags@W4Enum@PxHitFlag@physx@@G@2@IPEIAUPxRaycastHit@2@_NP6A_NAEAU62@PEAX@Z7@Z 000000018012a820 f   GuRaycastTests.obj
 0001:00129e60       ?raycast_sphere@@YAIAEBVPxGeometry@physx@@AEBVPxTransform@2@AEBVPxVec3@2@2MV?$PxFlags@W4Enum@PxHitFlag@physx@@G@2@IPEIAUPxRaycastHit@2@_NP6A_NAEAU62@PEAX@Z7@Z 000000018012ae60 f   GuRaycastTests.obj
 0001:0012a000       ?raycast_capsule@@YAIAEBVPxGeometry@physx@@AEBVPxTransform@2@AEBVPxVec3@2@2MV?$PxFlags@W4Enum@PxHitFlag@physx@@G@2@IPEIAUPxRaycastHit@2@_NP6A_NAEAU62@PEAX@Z7@Z 000000018012b000 f   GuRaycastTests.obj
 0001:0012a340       ?raycast_plane@@YAIAEBVPxGeometry@physx@@AEBVPxTransform@2@AEBVPxVec3@2@2MV?$PxFlags@W4Enum@PxHitFlag@physx@@G@2@IPEIAUPxRaycastHit@2@_NP6A_NAEAU62@PEAX@Z7@Z 000000018012b340 f   GuRaycastTests.obj
 0001:0012a510       ?raycast_convexMesh@@YAIAEBVPxGeometry@physx@@AEBVPxTransform@2@AEBVPxVec3@2@2MV?$PxFlags@W4Enum@PxHitFlag@physx@@G@2@IPEIAUPxRaycastHit@2@_NP6A_NAEAU62@PEAX@Z7@Z 000000018012b510 f   GuRaycastTests.obj
 0001:0012b060       ?raycast_triangleMesh@@YAIAEBVPxGeometry@physx@@AEBVPxTransform@2@AEBVPxVec3@2@2MV?$PxFlags@W4Enum@PxHitFlag@physx@@G@2@IPEIAUPxRaycastHit@2@_NP6A_NAEAU62@PEAX@Z7@Z 000000018012c060 f   GuRaycastTests.obj
 0001:0012b870       ?raycast_heightField@@YAIAEBVPxGeometry@physx@@AEBVPxTransform@2@AEBVPxVec3@2@2MV?$PxFlags@W4Enum@PxHitFlag@physx@@G@2@IPEIAUPxRaycastHit@2@_NP6A_NAEAU62@PEAX@Z7@Z 000000018012c870 f   GuRaycastTests.obj
 0001:0012c0b0       ??$traceSegment@VRayCastCallback@Gu@physx@@$0A@$0A@$0A@@HeightFieldUtil@Gu@physx@@QEBAXAEBVPxVec3@2@0PEAVRayCastCallback@12@PEBV32@@Z 000000018012d0b0 f i GuRaycastTests.obj
 0001:0012cb50       ??Dphysx@@YA?AVMatrix34@Cm@0@AEBVPxMeshScale@0@AEBVPxTransform@0@@Z 000000018012db50 f i GuRaycastTests.obj
 0001:0012d190       ??_ERayMeshColliderCallback@@UEAAPEAXI@Z 000000018012e190 f i GuRaycastTests.obj
 0001:0012d190       ??_GRayMeshColliderCallback@@UEAAPEAXI@Z 000000018012e190 f i GuRaycastTests.obj
 0001:0012d1c0       ?processHit@RayMeshColliderCallback@@UEAA_NAEBUPxRaycastHit@physx@@AEBVPxVec3@3@11AEAMPEBI@Z 000000018012e1c0 f i GuRaycastTests.obj
 0001:0012d890       ?transform@PxMeshScale@physx@@QEBA?AVPxVec3@2@AEBV32@@Z 000000018012e890 f i GuRaycastTests.obj
 0001:0012dae0       ??0RadixSort@Gu@physx@@QEAA@XZ 000000018012eae0 f   GuRevisitedRadix.obj
 0001:0012db20       ??1RadixSort@Gu@physx@@UEAA@XZ 000000018012eb20 f   GuRevisitedRadix.obj
 0001:0012db40       ?Sort@RadixSort@Gu@physx@@QEAAAEAV123@PEBIIW4RadixHint@23@@Z 000000018012eb40 f   GuRevisitedRadix.obj
 0001:0012e130       ?Sort@RadixSort@Gu@physx@@QEAAAEAV123@PEBMI@Z 000000018012f130 f   GuRevisitedRadix.obj
 0001:0012e7d0       ?SetBuffers@RadixSort@Gu@physx@@QEAA_NPEAI00PEAPEAI@Z 000000018012f7d0 f   GuRevisitedRadix.obj
 0001:0012e810       ??_ERadixSort@Gu@physx@@UEAAPEAXI@Z 000000018012f810 f i GuRevisitedRadix.obj
 0001:0012e8a0       ??_GRadixSort@Gu@physx@@UEAAPEAXI@Z 000000018012f8a0 f i GuRevisitedRadix.obj
 0001:0012e8d0       ??0RadixSortBuffered@Gu@physx@@QEAA@XZ 000000018012f8d0 f   GuRevisitedRadixBuffered.obj
 0001:0012e900       ??1RadixSortBuffered@Gu@physx@@UEAA@XZ 000000018012f900 f   GuRevisitedRadixBuffered.obj
 0001:0012e960       ?Sort@RadixSortBuffered@Gu@physx@@QEAAAEAV123@PEBIIW4RadixHint@23@@Z 000000018012f960 f   GuRevisitedRadixBuffered.obj
 0001:0012ea00       ?Sort@RadixSortBuffered@Gu@physx@@QEAAAEAV123@PEBMI@Z 000000018012fa00 f   GuRevisitedRadixBuffered.obj
 0001:0012ea90       ?Resize@RadixSortBuffered@Gu@physx@@AEAA_NI@Z 000000018012fa90 f   GuRevisitedRadixBuffered.obj
 0001:0012eb20       ??_ERadixSortBuffered@Gu@physx@@UEAAPEAXI@Z 000000018012fb20 f i GuRevisitedRadixBuffered.obj
 0001:0012ec50       ??_GRadixSortBuffered@Gu@physx@@UEAAPEAXI@Z 000000018012fc50 f i GuRevisitedRadixBuffered.obj
 0001:0012ecd0       ?CheckResize@RadixSortBuffered@Gu@physx@@AEAAXI@Z 000000018012fcd0 f i GuRevisitedRadixBuffered.obj
 0001:0012ed10       ?writeChunk@physx@@YAXCCCCAEAVPxOutputStream@1@@Z 000000018012fd10 f   GuSerialize.obj
 0001:0012ed90       ?readChunk@physx@@YAXAEAC000AEAVPxInputStream@1@@Z 000000018012fd90 f   GuSerialize.obj
 0001:0012ee20       ?readWord@physx@@YAG_NAEAVPxInputStream@1@@Z 000000018012fe20 f   GuSerialize.obj
 0001:0012ee70       ?readDword@physx@@YAI_NAEAVPxInputStream@1@@Z 000000018012fe70 f   GuSerialize.obj
 0001:0012eed0       ?readFloat@physx@@YAM_NAEAVPxInputStream@1@@Z 000000018012fed0 f   GuSerialize.obj
 0001:0012ef30       ?writeWord@physx@@YAXG_NAEAVPxOutputStream@1@@Z 000000018012ff30 f   GuSerialize.obj
 0001:0012ef70       ?writeDword@physx@@YAXI_NAEAVPxOutputStream@1@@Z 000000018012ff70 f   GuSerialize.obj
 0001:0012efd0       ?writeFloat@physx@@YAXM_NAEAVPxOutputStream@1@@Z 000000018012ffd0 f   GuSerialize.obj
 0001:0012f030       ?readFloatBuffer@physx@@YA_NPEAMI_NAEAVPxInputStream@1@@Z 0000000180130030 f   GuSerialize.obj
 0001:0012f0b0       ?writeWordBuffer@physx@@YAXPEBGI_NAEAVPxOutputStream@1@@Z 00000001801300b0 f   GuSerialize.obj
 0001:0012f140       ?writeFloatBuffer@physx@@YAXPEBMI_NAEAVPxOutputStream@1@@Z 0000000180130140 f   GuSerialize.obj
 0001:0012f1e0       ?writeHeader@physx@@YA_NCCCCI_NAEAVPxOutputStream@1@@Z 00000001801301e0 f   GuSerialize.obj
 0001:0012f310       ?readHeader@physx@@YA_NCCCCAEAIAEA_NAEAVPxInputStream@1@@Z 0000000180130310 f   GuSerialize.obj
 0001:0012f470       ?computeMaxIndex@physx@@YAIPEBII@Z 0000000180130470 f   GuSerialize.obj
 0001:0012f4a0       ?computeMaxIndex@physx@@YAGPEBGI@Z 00000001801304a0 f   GuSerialize.obj
 0001:0012f4d0       ?storeIndices@physx@@YAXIIPEBIAEAVPxOutputStream@1@_N@Z 00000001801304d0 f   GuSerialize.obj
 0001:0012f5d0       ?readIndices@physx@@YAXIIPEAIAEAVPxInputStream@1@_N@Z 00000001801305d0 f   GuSerialize.obj
 0001:0012f6d0       ?WriteHeader@Gu@physx@@YA_NEEEEI_NAEAVPxOutputStream@2@@Z 00000001801306d0 f   GuSerialize.obj
 0001:0012f800       ?ReadHeader@Gu@physx@@YA_NEEEEAEAIAEA_NAEAVPxInputStream@2@@Z 0000000180130800 f   GuSerialize.obj
 0001:0012f980       ?StoreIndices@Gu@physx@@YAXIIPEBIAEAVPxOutputStream@2@_N@Z 0000000180130980 f   GuSerialize.obj
 0001:0012fac0       ?ReadIndices@Gu@physx@@YAXIIPEAIAEAVPxInputStream@2@_N@Z 0000000180130ac0 f   GuSerialize.obj
 0001:0012fbd0       ?StoreIndices@Gu@physx@@YAXGIPEBGAEAVPxOutputStream@2@_N@Z 0000000180130bd0 f   GuSerialize.obj
 0001:0012fcb0       ?ReadIndices@Gu@physx@@YAXGIPEAGAEAVPxInputStream@2@_N@Z 0000000180130cb0 f   GuSerialize.obj
 0001:0012fe50       ?computeCapsule_TriangleMeshMTD@Gu@physx@@YA_NAEBVPxTriangleMeshGeometry@2@AEBVPxTransform@2@AEAVCapsuleV@12@MM_NAEAUPxSweepHit@2@@Z 0000000180130e50 f   GuSweepMTD.obj
 0001:00130770       ?computeCapsule_HeightFieldMTD@Gu@physx@@YA_NAEBVPxHeightFieldGeometry@2@AEBVPxTransform@2@AEAVCapsuleV@12@MM_NIAEAUPxSweepHit@2@@Z 0000000180131770 f   GuSweepMTD.obj
 0001:00130ee0       ?computeBox_TriangleMeshMTD@Gu@physx@@YA_NAEBVPxTriangleMeshGeometry@2@AEBVPxTransform@2@AEBVBox@12@1MM_NAEAUPxSweepHit@2@@Z 0000000180131ee0 f   GuSweepMTD.obj
 0001:00131f00       ?computeBox_HeightFieldMTD@Gu@physx@@YA_NAEBVPxHeightFieldGeometry@2@AEBVPxTransform@2@AEBVBox@12@1MM_NIAEAUPxSweepHit@2@@Z 0000000180132f00 f   GuSweepMTD.obj
 0001:00132e10       ?computeConvex_TriangleMeshMTD@Gu@physx@@YA_NAEBVPxTriangleMeshGeometry@2@AEBVPxTransform@2@AEBVPxConvexMeshGeometry@2@1MM_NAEAUPxSweepHit@2@@Z 0000000180133e10 f   GuSweepMTD.obj
 0001:00134630       ?computeConvex_HeightFieldMTD@Gu@physx@@YA_NAEBVPxHeightFieldGeometry@2@AEBVPxTransform@2@AEBVPxConvexMeshGeometry@2@1MM_NIAEAUPxSweepHit@2@@Z 0000000180135630 f   GuSweepMTD.obj
 0001:00135d20       ?computeSphere_SphereMTD@Gu@physx@@YA_NAEBVSphere@12@0AEAUPxSweepHit@2@@Z 0000000180136d20 f   GuSweepMTD.obj
 0001:00135e00       ?computeSphere_CapsuleMTD@Gu@physx@@YA_NAEBVSphere@12@AEBVCapsule@12@AEAUPxSweepHit@2@@Z 0000000180136e00 f   GuSweepMTD.obj
 0001:00135f50       ?computeCapsule_CapsuleMTD@Gu@physx@@YA_NAEBVCapsule@12@0AEAUPxSweepHit@2@@Z 0000000180136f50 f   GuSweepMTD.obj
 0001:00136110       ?computePlane_CapsuleMTD@Gu@physx@@YA_NAEBVPxPlane@2@AEBVCapsule@12@AEAUPxSweepHit@2@@Z 0000000180137110 f   GuSweepMTD.obj
 0001:00136220       ?computePlane_BoxMTD@Gu@physx@@YA_NAEBVPxPlane@2@AEBVBox@12@AEAUPxSweepHit@2@@Z 0000000180137220 f   GuSweepMTD.obj
 0001:00136480       ?computePlane_ConvexMTD@Gu@physx@@YA_NAEBVPxPlane@2@AEBVPxConvexMeshGeometry@2@AEBVPxTransform@2@AEAUPxSweepHit@2@@Z 0000000180137480 f   GuSweepMTD.obj
 0001:00136980       ?calculateMTD@@YA_NAEBVCapsuleV@Gu@physx@@AEBT__m128@@_NPEBUMTDTriangle@@IIPEAVMeshPersistentContact@23@AEAIAEAT4@6656@Z 0000000180137980 f   GuSweepMTD.obj
 0001:00136ca0       ?calculateMTD@@YA_NAEBUPolygonalData@Gu@physx@@PEAVSupportLocal@23@AEAVPsTransformV@aos@shdfnd@3@AEBVPsMatTransformV@673@_NAEBT__m128@@PEBUMTDTriangle@@IIPEAVMeshPersistentContact@23@AEAIAEAT9@9989@Z 0000000180137ca0 f   GuSweepMTD.obj
 0001:00136e70       ??0MTDTriangle@@QEAA@XZ    0000000180137e70 f i GuSweepMTD.obj
 0001:00136e80       ??1MTDTriangle@@QEAA@XZ    0000000180137e80 f i GuSweepMTD.obj
 0001:00136e90       ??_GMeshMTDGenerationCallback@@UEAAPEAXI@Z 0000000180137e90 f i GuSweepMTD.obj
 0001:00136e90       ??_EMeshMTDGenerationCallback@@UEAAPEAXI@Z 0000000180137e90 f i GuSweepMTD.obj
 0001:00136ec0       ??_GMidPhaseQueryLocalReport@@UEAAPEAXI@Z 0000000180137ec0 f i GuSweepMTD.obj
 0001:00136ec0       ??_EMidPhaseQueryLocalReport@@UEAAPEAXI@Z 0000000180137ec0 f i GuSweepMTD.obj
 0001:00137030       ?onEvent@MidPhaseQueryLocalReport@@UEAA_NIPEAI@Z 0000000180138030 f i GuSweepMTD.obj
 0001:001370b0       ?processHit@MeshMTDGenerationCallback@@UEAA_NAEBUPxRaycastHit@physx@@AEBVPxVec3@3@11AEAMPEBI@Z 00000001801380b0 f i GuSweepMTD.obj
 0001:001370f0       ?SweepCapsuleTriangles@Gu@physx@@YA_NIPEBVPxTriangle@2@_NAEBVPxCapsuleGeometry@2@AEBVPxTransform@2@AEBVPxVec3@2@MPEBIAEAV62@6AEAMAEAIMV?$PxFlags@W4Enum@PxHitFlag@physx@@G@2@@Z 00000001801380f0 f   GuSweepSharedTests.obj
 0001:00137340       ?sweepCapsule_SphereGeom@@YA_NAEBVPxGeometry@physx@@AEBVPxTransform@2@AEBVCapsule@Gu@2@AEBVPxVec3@2@MAEAUPxSweepHit@2@V?$PxFlags@W4Enum@PxHitFlag@physx@@G@2@M@Z 0000000180138340 f   GuSweepSharedTests.obj
 0001:001374d0       ?sweepCapsule_PlaneGeom@@YA_NAEBVPxGeometry@physx@@AEBVPxTransform@2@AEBVCapsule@Gu@2@AEBVPxVec3@2@MAEAUPxSweepHit@2@V?$PxFlags@W4Enum@PxHitFlag@physx@@G@2@M@Z 00000001801384d0 f   GuSweepSharedTests.obj
 0001:001377d0       ?sweepCapsule_CapsuleGeom@@YA_NAEBVPxGeometry@physx@@AEBVPxTransform@2@AEBVCapsule@Gu@2@AEBVPxVec3@2@MAEAUPxSweepHit@2@V?$PxFlags@W4Enum@PxHitFlag@physx@@G@2@M@Z 00000001801387d0 f   GuSweepSharedTests.obj
 0001:001379b0       ?sweepCapsule_ConvexGeom@@YA_NAEBVPxGeometry@physx@@AEBVPxTransform@2@AEBVCapsule@Gu@2@AEBVPxVec3@2@MAEAUPxSweepHit@2@V?$PxFlags@W4Enum@PxHitFlag@physx@@G@2@M@Z 00000001801389b0 f   GuSweepSharedTests.obj
 0001:001387b0       ?sweepBox_PlaneGeom@@YA_NAEBVPxGeometry@physx@@AEBVPxTransform@2@AEBVBox@Gu@2@AEBVPxVec3@2@MAEAUPxSweepHit@2@V?$PxFlags@W4Enum@PxHitFlag@physx@@G@2@M@Z 00000001801397b0 f   GuSweepSharedTests.obj
 0001:00138bb0       ?sweepBox_ConvexGeom@@YA_NAEBVPxGeometry@physx@@AEBVPxTransform@2@AEBVBox@Gu@2@AEBVPxVec3@2@MAEAUPxSweepHit@2@V?$PxFlags@W4Enum@PxHitFlag@physx@@G@2@M@Z 0000000180139bb0 f   GuSweepSharedTests.obj
 0001:00139940       ?sweepConvex_SphereGeom@@YA_NAEBVPxGeometry@physx@@AEBVPxTransform@2@AEBVPxConvexMeshGeometry@2@1AEBVPxVec3@2@MAEAUPxSweepHit@2@V?$PxFlags@W4Enum@PxHitFlag@physx@@G@2@M@Z 000000018013a940 f   GuSweepSharedTests.obj
 0001:0013a560       ?sweepConvex_PlaneGeom@@YA_NAEBVPxGeometry@physx@@AEBVPxTransform@2@AEBVPxConvexMeshGeometry@2@1AEBVPxVec3@2@MAEAUPxSweepHit@2@V?$PxFlags@W4Enum@PxHitFlag@physx@@G@2@M@Z 000000018013b560 f   GuSweepSharedTests.obj
 0001:0013a9d0       ?sweepConvex_CapsuleGeom@@YA_NAEBVPxGeometry@physx@@AEBVPxTransform@2@AEBVPxConvexMeshGeometry@2@1AEBVPxVec3@2@MAEAUPxSweepHit@2@V?$PxFlags@W4Enum@PxHitFlag@physx@@G@2@M@Z 000000018013b9d0 f   GuSweepSharedTests.obj
 0001:0013abe0       ?sweepConvex_BoxGeom@@YA_NAEBVPxGeometry@physx@@AEBVPxTransform@2@AEBVPxConvexMeshGeometry@2@1AEBVPxVec3@2@MAEAUPxSweepHit@2@V?$PxFlags@W4Enum@PxHitFlag@physx@@G@2@M@Z 000000018013bbe0 f   GuSweepSharedTests.obj
 0001:0013aed0       ?sweepConvex_ConvexGeom@@YA_NAEBVPxGeometry@physx@@AEBVPxTransform@2@AEBVPxConvexMeshGeometry@2@1AEBVPxVec3@2@MAEAUPxSweepHit@2@V?$PxFlags@W4Enum@PxHitFlag@physx@@G@2@M@Z 000000018013bed0 f   GuSweepSharedTests.obj
 0001:0013caa0       ?GetGeomSweepFuncs@Gu@physx@@YAAEBUGeomSweepFuncs@12@XZ 000000018013daa0 f   GuSweepTests.obj
 0001:0013cab0       ?SweepBoxTriangles@Gu@physx@@YA_NIPEBVPxTriangle@2@_NAEBVPxBoxGeometry@2@AEBVPxTransform@2@AEBVPxVec3@2@MAEAV62@5AEAMAEAIPEBIMV?$PxFlags@W4Enum@PxHitFlag@physx@@G@2@@Z 000000018013dab0 f   GuSweepTests.obj
 0001:0013d650       ?sweepCapsule_BoxGeom@@YA_NAEBVPxGeometry@physx@@AEBVPxTransform@2@AEBVCapsule@Gu@2@AEBVPxVec3@2@MAEAUPxSweepHit@2@V?$PxFlags@W4Enum@PxHitFlag@physx@@G@2@M@Z 000000018013e650 f   GuSweepTests.obj
 0001:0013e000       ?sweepBox_SphereGeom@@YA_NAEBVPxGeometry@physx@@AEBVPxTransform@2@AEBVBox@Gu@2@AEBVPxVec3@2@MAEAUPxSweepHit@2@V?$PxFlags@W4Enum@PxHitFlag@physx@@G@2@M@Z 000000018013f000 f   GuSweepTests.obj
 0001:0013e730       ?sweepBox_CapsuleGeom@@YA_NAEBVPxGeometry@physx@@AEBVPxTransform@2@AEBVBox@Gu@2@AEBVPxVec3@2@MAEAUPxSweepHit@2@V?$PxFlags@W4Enum@PxHitFlag@physx@@G@2@M@Z 000000018013f730 f   GuSweepTests.obj
 0001:0013f030       ?sweepBox_BoxGeom@@YA_NAEBVPxGeometry@physx@@AEBVPxTransform@2@AEBVBox@Gu@2@AEBVPxVec3@2@MAEAUPxSweepHit@2@V?$PxFlags@W4Enum@PxHitFlag@physx@@G@2@M@Z 0000000180140030 f   GuSweepTests.obj
 0001:0013f940       CloseHandle                0000000180140940 f   kernel32:KERNEL32.dll
 0001:0013f946       MapViewOfFile              0000000180140946 f   kernel32:KERNEL32.dll
 0001:0013f94c       UnmapViewOfFile            000000018014094c f   kernel32:KERNEL32.dll
 0001:0013f952       CreateFileMappingA         0000000180140952 f   kernel32:KERNEL32.dll
 0001:0013f958       OpenFileMappingA           0000000180140958 f   kernel32:KERNEL32.dll
 0001:0013f95e       FreeLibrary                000000018014095e f   kernel32:KERNEL32.dll
 0001:0013f964       GetProcAddress             0000000180140964 f   kernel32:KERNEL32.dll
 0001:0013f96a       LoadLibraryA               000000018014096a f   kernel32:KERNEL32.dll
 0001:0013f970       InitializeCriticalSection  0000000180140970 f   kernel32:KERNEL32.dll
 0001:0013f976       EnterCriticalSection       0000000180140976 f   kernel32:KERNEL32.dll
 0001:0013f97c       LeaveCriticalSection       000000018014097c f   kernel32:KERNEL32.dll
 0001:0013f982       TryEnterCriticalSection    0000000180140982 f   kernel32:KERNEL32.dll
 0001:0013f988       DeleteCriticalSection      0000000180140988 f   kernel32:KERNEL32.dll
 0001:0013f98e       GetCurrentThread           000000018014098e f   kernel32:KERNEL32.dll
 0001:0013f994       GetCurrentThreadId         0000000180140994 f   kernel32:KERNEL32.dll
 0001:0013f99a       OutputDebugStringA         000000018014099a f   kernel32:KERNEL32.dll
 0001:0013f9a0       InitializeSListHead        00000001801409a0 f   kernel32:KERNEL32.dll
 0001:0013f9a6       InterlockedPopEntrySList   00000001801409a6 f   kernel32:KERNEL32.dll
 0001:0013f9ac       InterlockedPushEntrySList  00000001801409ac f   kernel32:KERNEL32.dll
 0001:0013f9b2       InterlockedFlushSList      00000001801409b2 f   kernel32:KERNEL32.dll
 0001:0013f9b8       SetEvent                   00000001801409b8 f   kernel32:KERNEL32.dll
 0001:0013f9be       ResetEvent                 00000001801409be f   kernel32:KERNEL32.dll
 0001:0013f9c4       WaitForSingleObject        00000001801409c4 f   kernel32:KERNEL32.dll
 0001:0013f9ca       CreateEventA               00000001801409ca f   kernel32:KERNEL32.dll
 0001:0013f9d0       RaiseException             00000001801409d0 f   kernel32:KERNEL32.dll
 0001:0013f9d6       GetLastError               00000001801409d6 f   kernel32:KERNEL32.dll
 0001:0013f9dc       Sleep                      00000001801409dc f   kernel32:KERNEL32.dll
 0001:0013f9e2       SwitchToThread             00000001801409e2 f   kernel32:KERNEL32.dll
 0001:0013f9e8       CreateThread               00000001801409e8 f   kernel32:KERNEL32.dll
 0001:0013f9ee       SetThreadPriority          00000001801409ee f   kernel32:KERNEL32.dll
 0001:0013f9f4       GetThreadPriority          00000001801409f4 f   kernel32:KERNEL32.dll
 0001:0013f9fa       ExitThread                 00000001801409fa f   kernel32:KERNEL32.dll
 0001:0013fa00       TerminateThread            0000000180140a00 f   kernel32:KERNEL32.dll
 0001:0013fa06       ResumeThread               0000000180140a06 f   kernel32:KERNEL32.dll
 0001:0013fa0c       TlsAlloc                   0000000180140a0c f   kernel32:KERNEL32.dll
 0001:0013fa12       TlsGetValue                0000000180140a12 f   kernel32:KERNEL32.dll
 0001:0013fa18       TlsSetValue                0000000180140a18 f   kernel32:KERNEL32.dll
 0001:0013fa1e       TlsFree                    0000000180140a1e f   kernel32:KERNEL32.dll
 0001:0013fa24       GetModuleHandleA           0000000180140a24 f   kernel32:KERNEL32.dll
 0001:0013fa2a       SetThreadAffinityMask      0000000180140a2a f   kernel32:KERNEL32.dll
 0001:0013fa30       QueryPerformanceCounter    0000000180140a30 f   kernel32:KERNEL32.dll
 0001:0013fa36       QueryPerformanceFrequency  0000000180140a36 f   kernel32:KERNEL32.dll
 0001:0013fa3c       ??3@YAXPEAX_K@Z            0000000180140a3c f   MSVCRT:delete_scalar_size.obj
 0001:0013fa44       ??_V@YAXPEAX_K@Z           0000000180140a44 f   MSVCRT:delete_array_size.obj
 0001:0013fa4c       ?__scrt_initialize_type_info@@YAXXZ 0000000180140a4c f   MSVCRT:tncleanup.obj
 0001:0013fa5c       ?__scrt_uninitialize_type_info@@YAXXZ 0000000180140a5c f   MSVCRT:tncleanup.obj
 0001:0013fa68       ??1type_info@@UEAA@XZ      0000000180140a68 f   MSVCRT:std_type_info_static.obj
 0001:0013fa74       ??_Gtype_info@@UEAAPEAXI@Z 0000000180140a74 f i MSVCRT:std_type_info_static.obj
 0001:0013fa74       ??_Etype_info@@UEAAPEAXI@Z 0000000180140a74 f i MSVCRT:std_type_info_static.obj
 0001:0013faa0       ??3@YAXPEAX@Z              0000000180140aa0 f   MSVCRT:delete_scalar.obj
 0001:0013faa8       ??_V@YAXPEAX@Z             0000000180140aa8 f   MSVCRT:delete_array.obj
 0001:0013fac0       __chkstk                   0000000180140ac0 f   MSVCRT:_chkstk_.obj
 0001:0013fac0       _alloca_probe              0000000180140ac0 f   MSVCRT:_chkstk_.obj
 0001:0013fb14       ??$__crt_fast_decode_pointer@PEAP6AXXZ@@YAPEAP6AXXZQEAP6AXXZ@Z 0000000180140b14 f i MSVCRT:utility.obj
 0001:0013fb2c       ??$__crt_fast_encode_pointer@PEAP6AXXZ@@YAPEAP6AXXZQEAP6AXXZ@Z 0000000180140b2c f i MSVCRT:utility.obj
 0001:0013fb4c       ?__crt_rotate_pointer_value@@YA_K_KH@Z 0000000180140b4c f i MSVCRT:utility.obj
 0001:0013fb58       ?configure_argv@__scrt_narrow_argv_policy@@SAHXZ 0000000180140b58 f i MSVCRT:utility.obj
 0001:0013fbe8       NtCurrentTeb               0000000180140be8 f i MSVCRT:utility.obj
 0001:0013fbf4       __scrt_acquire_startup_lock 0000000180140bf4 f   MSVCRT:utility.obj
 0001:0013fc30       __scrt_dllmain_after_initialize_c 0000000180140c30 f   MSVCRT:utility.obj
 0001:0013fc64       __scrt_dllmain_before_initialize_c 0000000180140c64 f   MSVCRT:utility.obj
 0001:0013fc7c       __scrt_dllmain_crt_thread_attach 0000000180140c7c f   MSVCRT:utility.obj
 0001:0013fca4       __scrt_dllmain_crt_thread_detach 0000000180140ca4 f   MSVCRT:utility.obj
 0001:0013fcbc       __scrt_dllmain_exception_filter 0000000180140cbc f   MSVCRT:utility.obj
 0001:0013fd20       __scrt_dllmain_uninitialize_c 0000000180140d20 f   MSVCRT:utility.obj
 0001:0013fd50       __scrt_dllmain_uninitialize_critical 0000000180140d50 f   MSVCRT:utility.obj
 0001:0013fd64       __scrt_initialize_crt      0000000180140d64 f   MSVCRT:utility.obj
 0001:0013fdb0       __scrt_initialize_onexit_tables 0000000180140db0 f   MSVCRT:utility.obj
 0001:0013fe7c       __scrt_is_nonwritable_in_current_image 0000000180140e7c f   MSVCRT:utility.obj
 0001:0013ff18       __scrt_release_startup_lock 0000000180140f18 f   MSVCRT:utility.obj
 0001:0013ff3c       __scrt_uninitialize_crt    0000000180140f3c f   MSVCRT:utility.obj
 0001:0013ff68       _onexit                    0000000180140f68 f   MSVCRT:utility.obj
 0001:0013ffb8       at_quick_exit              0000000180140fb8 f   MSVCRT:utility.obj
 0001:0013fff0       atexit                     0000000180140ff0 f   MSVCRT:utility.obj
 0001:00140008       ??_U@YAPEAX_K@Z            0000000180141008 f   MSVCRT:new_array.obj
 0001:0014035c       _CRT_INIT                  000000018014135c f   MSVCRT:dll_dllmain.obj
 0001:00140364       _DllMainCRTStartup         0000000180141364 f   MSVCRT:dll_dllmain.obj
 0001:001403a4       __isa_available_init       00000001801413a4 f   MSVCRT:_cpu_disp_.obj
 0001:0014056c       _get_startup_argv_mode     000000018014156c f   MSVCRT:argv_mode.obj
 0001:00140574       __scrt_is_ucrt_dll_in_use  0000000180141574 f   MSVCRT:ucrt_detection.obj
 0001:00140580       __crt_debugger_hook        0000000180141580 f   MSVCRT:utility_desktop.obj
 0001:00140588       __scrt_fastfail            0000000180141588 f   MSVCRT:utility_desktop.obj
 0001:001406d0       __scrt_get_show_window_mode 00000001801416d0 f   MSVCRT:utility_desktop.obj
 0001:0014070c       __scrt_initialize_winrt    000000018014170c f   MSVCRT:utility_desktop.obj
 0001:00140710       __scrt_is_managed_app      0000000180141710 f   MSVCRT:utility_desktop.obj
 0001:00140764       __scrt_set_unhandled_exception_filter 0000000180141764 f   MSVCRT:utility_desktop.obj
 0001:00140774       __scrt_unhandled_exception_filter 0000000180141774 f   MSVCRT:utility_desktop.obj
 0001:001407ac       _guard_check_icall         00000001801417ac f i MSVCRT:checkcfg.obj
 0001:001407b4       ??2@YAPEAX_K@Z             00000001801417b4 f   MSVCRT:new_scalar.obj
 0001:001407f0       __security_init_cookie     00000001801417f0 f   MSVCRT:gs_support.obj
 0001:0014089c       DllMain                    000000018014189c f   MSVCRT:dll_dllmain_stub.obj
 0001:001408c0       __local_stdio_scanf_options 00000001801418c0 f i MSVCRT:default_local_stdio_options.obj
 0001:001408c8       __scrt_initialize_default_local_stdio_options 00000001801418c8 f   MSVCRT:default_local_stdio_options.obj
 0001:001408e4       __scrt_get_dyn_tls_init_callback 00000001801418e4 f   MSVCRT:dyn_tls_init.obj
 0001:001408ec       _RTC_Initialize            00000001801418ec f   MSVCRT:_initsect_.obj
 0001:00140938       _RTC_Terminate             0000000180141938 f   MSVCRT:_initsect_.obj
 0001:00140984       _guard_check_icall_nop     0000000180141984 f i MSVCRT:guard_support.obj
 0001:00140988       _guard_icall_checks_enforced 0000000180141988 f i MSVCRT:guard_support.obj
 0001:001409a0       ??0bad_alloc@std@@AEAA@QEBD@Z 00000001801419a0 f i MSVCRT:throw_bad_alloc.obj
 0001:001409b8       ??0bad_alloc@std@@QEAA@AEBV01@@Z 00000001801419b8 f i MSVCRT:throw_bad_alloc.obj
 0001:001409f8       ??0bad_alloc@std@@QEAA@XZ  00000001801419f8 f i MSVCRT:throw_bad_alloc.obj
 0001:00140a18       ??0bad_array_new_length@std@@QEAA@AEBV01@@Z 0000000180141a18 f i MSVCRT:throw_bad_alloc.obj
 0001:00140a58       ??0bad_array_new_length@std@@QEAA@XZ 0000000180141a58 f i MSVCRT:throw_bad_alloc.obj
 0001:00140a78       ??0exception@std@@QEAA@AEBV01@@Z 0000000180141a78 f i MSVCRT:throw_bad_alloc.obj
 0001:00140ab0       ??0exception@std@@QEAA@QEBDH@Z 0000000180141ab0 f i MSVCRT:throw_bad_alloc.obj
 0001:00140ac8       ??1bad_alloc@std@@UEAA@XZ  0000000180141ac8 f i MSVCRT:throw_bad_alloc.obj
 0001:00140adc       ??1bad_array_new_length@std@@UEAA@XZ 0000000180141adc f i MSVCRT:throw_bad_alloc.obj
 0001:00140af0       ??1exception@std@@UEAA@XZ  0000000180141af0 f i MSVCRT:throw_bad_alloc.obj
 0001:00140b04       ??_Ebad_alloc@std@@UEAAPEAXI@Z 0000000180141b04 f i MSVCRT:throw_bad_alloc.obj
 0001:00140b04       ??_Gbad_alloc@std@@UEAAPEAXI@Z 0000000180141b04 f i MSVCRT:throw_bad_alloc.obj
 0001:00140b48       ??_Ebad_array_new_length@std@@UEAAPEAXI@Z 0000000180141b48 f i MSVCRT:throw_bad_alloc.obj
 0001:00140b48       ??_Gbad_array_new_length@std@@UEAAPEAXI@Z 0000000180141b48 f i MSVCRT:throw_bad_alloc.obj
 0001:00140b8c       ??_Gexception@std@@UEAAPEAXI@Z 0000000180141b8c f i MSVCRT:throw_bad_alloc.obj
 0001:00140b8c       ??_Eexception@std@@UEAAPEAXI@Z 0000000180141b8c f i MSVCRT:throw_bad_alloc.obj
 0001:00140bd0       ?__scrt_throw_std_bad_alloc@@YAXXZ 0000000180141bd0 f   MSVCRT:throw_bad_alloc.obj
 0001:00140bf0       ?__scrt_throw_std_bad_array_new_length@@YAXXZ 0000000180141bf0 f   MSVCRT:throw_bad_alloc.obj
 0001:00140c10       ?what@exception@std@@UEBAPEBDXZ 0000000180141c10 f i MSVCRT:throw_bad_alloc.obj
 0001:00140c30       __WSAFDIsSet               0000000180141c30 f   Ws2_32:WS2_32.dll
 0001:00140c36       accept                     0000000180141c36 f   Ws2_32:WS2_32.dll
 0001:00140c3c       bind                       0000000180141c3c f   Ws2_32:WS2_32.dll
 0001:00140c42       closesocket                0000000180141c42 f   Ws2_32:WS2_32.dll
 0001:00140c48       connect                    0000000180141c48 f   Ws2_32:WS2_32.dll
 0001:00140c4e       ioctlsocket                0000000180141c4e f   Ws2_32:WS2_32.dll
 0001:00140c54       getsockopt                 0000000180141c54 f   Ws2_32:WS2_32.dll
 0001:00140c5a       htonl                      0000000180141c5a f   Ws2_32:WS2_32.dll
 0001:00140c60       htons                      0000000180141c60 f   Ws2_32:WS2_32.dll
 0001:00140c66       inet_addr                  0000000180141c66 f   Ws2_32:WS2_32.dll
 0001:00140c6c       listen                     0000000180141c6c f   Ws2_32:WS2_32.dll
 0001:00140c72       recv                       0000000180141c72 f   Ws2_32:WS2_32.dll
 0001:00140c78       select                     0000000180141c78 f   Ws2_32:WS2_32.dll
 0001:00140c7e       send                       0000000180141c7e f   Ws2_32:WS2_32.dll
 0001:00140c84       setsockopt                 0000000180141c84 f   Ws2_32:WS2_32.dll
 0001:00140c8a       socket                     0000000180141c8a f   Ws2_32:WS2_32.dll
 0001:00140c90       gethostbyaddr              0000000180141c90 f   Ws2_32:WS2_32.dll
 0001:00140c96       gethostbyname              0000000180141c96 f   Ws2_32:WS2_32.dll
 0001:00140c9c       WSAStartup                 0000000180141c9c f   Ws2_32:WS2_32.dll
 0001:00140ca2       WSACleanup                 0000000180141ca2 f   Ws2_32:WS2_32.dll
 0001:00140ca8       WSAGetLastError            0000000180141ca8 f   Ws2_32:WS2_32.dll
 0001:00140cae       WSASendDisconnect          0000000180141cae f   Ws2_32:WS2_32.dll
 0001:00140cb4       _purecall                  0000000180141cb4 f   vcruntime:VCRUNTIME140.dll
 0001:00140cba       __std_type_info_name       0000000180141cba f   vcruntime:VCRUNTIME140.dll
 0001:00140cc0       memcpy                     0000000180141cc0 f   vcruntime:VCRUNTIME140.dll
 0001:00140cc6       memset                     0000000180141cc6 f   vcruntime:VCRUNTIME140.dll
 0001:00140ccc       __C_specific_handler       0000000180141ccc f   vcruntime:VCRUNTIME140.dll
 0001:00140cd2       memmove                    0000000180141cd2 f   vcruntime:VCRUNTIME140.dll
 0001:00140cd8       strchr                     0000000180141cd8 f   vcruntime:VCRUNTIME140.dll
 0001:00140cde       strstr                     0000000180141cde f   vcruntime:VCRUNTIME140.dll
 0001:00140ce4       __std_type_info_destroy_list 0000000180141ce4 f   vcruntime:VCRUNTIME140.dll
 0001:00140cea       __std_exception_copy       0000000180141cea f   vcruntime:VCRUNTIME140.dll
 0001:00140cf0       __std_exception_destroy    0000000180141cf0 f   vcruntime:VCRUNTIME140.dll
 0001:00140cf6       _CxxThrowException         0000000180141cf6 f   vcruntime:VCRUNTIME140.dll
 0001:00140cfc       _clearfp                   0000000180141cfc f   ucrt:api-ms-win-crt-runtime-l1-1-0.dll
 0001:00140d02       _controlfp_s               0000000180141d02 f   ucrt:api-ms-win-crt-runtime-l1-1-0.dll
 0001:00140d08       puts                       0000000180141d08 f   ucrt:api-ms-win-crt-stdio-l1-1-0.dll
 0001:00140d0e       __stdio_common_vsprintf_s  0000000180141d0e f   ucrt:api-ms-win-crt-stdio-l1-1-0.dll
 0001:00140d14       abort                      0000000180141d14 f   ucrt:api-ms-win-crt-runtime-l1-1-0.dll
 0001:00140d1a       __stdio_common_vsprintf    0000000180141d1a f   ucrt:api-ms-win-crt-stdio-l1-1-0.dll
 0001:00140d20       strncmp                    0000000180141d20 f   ucrt:api-ms-win-crt-string-l1-1-0.dll
 0001:00140d26       tolower                    0000000180141d26 f   ucrt:api-ms-win-crt-string-l1-1-0.dll
 0001:00140d2c       asinf                      0000000180141d2c f   ucrt:api-ms-win-crt-math-l1-1-0.dll
 0001:00140d32       atan2f                     0000000180141d32 f   ucrt:api-ms-win-crt-math-l1-1-0.dll
 0001:00140d38       cosf                       0000000180141d38 f   ucrt:api-ms-win-crt-math-l1-1-0.dll
 0001:00140d3e       sinf                       0000000180141d3e f   ucrt:api-ms-win-crt-math-l1-1-0.dll
 0001:00140d44       _fpclass                   0000000180141d44 f   ucrt:api-ms-win-crt-math-l1-1-0.dll
 0001:00140d4a       strnlen                    0000000180141d4a f   ucrt:api-ms-win-crt-string-l1-1-0.dll
 0001:00140d50       __acrt_iob_func            0000000180141d50 f   ucrt:api-ms-win-crt-stdio-l1-1-0.dll
 0001:00140d56       __stdio_common_vfprintf    0000000180141d56 f   ucrt:api-ms-win-crt-stdio-l1-1-0.dll
 0001:00140d5c       strcmp                     0000000180141d5c f   ucrt:api-ms-win-crt-string-l1-1-0.dll
 0001:00140d62       free                       0000000180141d62 f   ucrt:api-ms-win-crt-heap-l1-1-0.dll
 0001:00140d68       _seh_filter_dll            0000000180141d68 f   ucrt:api-ms-win-crt-runtime-l1-1-0.dll
 0001:00140d6e       _configure_narrow_argv     0000000180141d6e f   ucrt:api-ms-win-crt-runtime-l1-1-0.dll
 0001:00140d74       _initialize_narrow_environment 0000000180141d74 f   ucrt:api-ms-win-crt-runtime-l1-1-0.dll
 0001:00140d7a       _initialize_onexit_table   0000000180141d7a f   ucrt:api-ms-win-crt-runtime-l1-1-0.dll
 0001:00140d80       _register_onexit_function  0000000180141d80 f   ucrt:api-ms-win-crt-runtime-l1-1-0.dll
 0001:00140d86       _execute_onexit_table      0000000180141d86 f   ucrt:api-ms-win-crt-runtime-l1-1-0.dll
 0001:00140d8c       _crt_atexit                0000000180141d8c f   ucrt:api-ms-win-crt-runtime-l1-1-0.dll
 0001:00140d92       _crt_at_quick_exit         0000000180141d92 f   ucrt:api-ms-win-crt-runtime-l1-1-0.dll
 0001:00140d98       _cexit                     0000000180141d98 f   ucrt:api-ms-win-crt-runtime-l1-1-0.dll
 0001:00140d9e       _initterm                  0000000180141d9e f   ucrt:api-ms-win-crt-runtime-l1-1-0.dll
 0001:00140da4       _initterm_e                0000000180141da4 f   ucrt:api-ms-win-crt-runtime-l1-1-0.dll
 0001:00140daa       terminate                  0000000180141daa f   ucrt:api-ms-win-crt-runtime-l1-1-0.dll
 0001:00140db0       _callnewh                  0000000180141db0 f   ucrt:api-ms-win-crt-heap-l1-1-0.dll
 0001:00140db6       malloc                     0000000180141db6 f   ucrt:api-ms-win-crt-heap-l1-1-0.dll
 0001:00140dbc       RtlCaptureContext          0000000180141dbc f   kernel32:KERNEL32.dll
 0001:00140dc2       RtlLookupFunctionEntry     0000000180141dc2 f   kernel32:KERNEL32.dll
 0001:00140dc8       RtlVirtualUnwind           0000000180141dc8 f   kernel32:KERNEL32.dll
 0001:00140dce       IsDebuggerPresent          0000000180141dce f   kernel32:KERNEL32.dll
 0001:00140dd4       UnhandledExceptionFilter   0000000180141dd4 f   kernel32:KERNEL32.dll
 0001:00140dda       SetUnhandledExceptionFilter 0000000180141dda f   kernel32:KERNEL32.dll
 0001:00140de0       GetStartupInfoW            0000000180141de0 f   kernel32:KERNEL32.dll
 0001:00140de6       IsProcessorFeaturePresent  0000000180141de6 f   kernel32:KERNEL32.dll
 0001:00140dec       GetModuleHandleW           0000000180141dec f   kernel32:KERNEL32.dll
 0001:00140df2       GetCurrentProcessId        0000000180141df2 f   kernel32:KERNEL32.dll
 0001:00140df8       GetSystemTimeAsFileTime    0000000180141df8 f   kernel32:KERNEL32.dll
 0001:00140dfe       DisableThreadLibraryCalls  0000000180141dfe f   kernel32:KERNEL32.dll
 0001:00140e04       __scrt_stub_for_acrt_initialize 0000000180141e04 f   MSVCRT:ucrt_stubs.obj
 0001:00140e04       __acrt_initialize          0000000180141e04 f   MSVCRT:ucrt_stubs.obj
 0001:00140e04       __vcrt_initialize          0000000180141e04 f   MSVCRT:ucrt_stubs.obj
 0001:00140e08       __scrt_stub_for_acrt_thread_attach 0000000180141e08 f   MSVCRT:ucrt_stubs.obj
 0001:00140e08       __vcrt_thread_attach       0000000180141e08 f   MSVCRT:ucrt_stubs.obj
 0001:00140e08       __acrt_thread_attach       0000000180141e08 f   MSVCRT:ucrt_stubs.obj
 0001:00140e0c       __vcrt_thread_detach       0000000180141e0c f   MSVCRT:ucrt_stubs.obj
 0001:00140e0c       __acrt_thread_detach       0000000180141e0c f   MSVCRT:ucrt_stubs.obj
 0001:00140e0c       __scrt_stub_for_acrt_thread_detach 0000000180141e0c f   MSVCRT:ucrt_stubs.obj
 0001:00140e10       __scrt_stub_for_acrt_uninitialize 0000000180141e10 f   MSVCRT:ucrt_stubs.obj
 0001:00140e10       __vcrt_uninitialize        0000000180141e10 f   MSVCRT:ucrt_stubs.obj
 0001:00140e10       __acrt_uninitialize        0000000180141e10 f   MSVCRT:ucrt_stubs.obj
 0001:00140e14       __vcrt_uninitialize_critical 0000000180141e14 f   MSVCRT:ucrt_stubs.obj
 0001:00140e14       __acrt_uninitialize_critical 0000000180141e14 f   MSVCRT:ucrt_stubs.obj
 0001:00140e14       __scrt_stub_for_acrt_uninitialize_critical 0000000180141e14 f   MSVCRT:ucrt_stubs.obj
 0001:00140e18       _is_c_termination_complete 0000000180141e18 f   MSVCRT:ucrt_stubs.obj
 0001:00140e18       __scrt_stub_for_is_c_termination_complete 0000000180141e18 f   MSVCRT:ucrt_stubs.obj
 0001:00140e30       _guard_dispatch_icall_nop  0000000180141e30 f   MSVCRT:_guard_dispatch_.obj
 0002:00000000       __imp_CloseHandle          0000000180142000     kernel32:KERNEL32.dll
 0002:00000008       __imp_MapViewOfFile        0000000180142008     kernel32:KERNEL32.dll
 0002:00000010       __imp_UnmapViewOfFile      0000000180142010     kernel32:KERNEL32.dll
 0002:00000018       __imp_CreateFileMappingA   0000000180142018     kernel32:KERNEL32.dll
 0002:00000020       __imp_OpenFileMappingA     0000000180142020     kernel32:KERNEL32.dll
 0002:00000028       __imp_FreeLibrary          0000000180142028     kernel32:KERNEL32.dll
 0002:00000030       __imp_GetProcAddress       0000000180142030     kernel32:KERNEL32.dll
 0002:00000038       __imp_LoadLibraryA         0000000180142038     kernel32:KERNEL32.dll
 0002:00000040       __imp_InitializeCriticalSection 0000000180142040     kernel32:KERNEL32.dll
 0002:00000048       __imp_EnterCriticalSection 0000000180142048     kernel32:KERNEL32.dll
 0002:00000050       __imp_LeaveCriticalSection 0000000180142050     kernel32:KERNEL32.dll
 0002:00000058       __imp_TryEnterCriticalSection 0000000180142058     kernel32:KERNEL32.dll
 0002:00000060       __imp_DeleteCriticalSection 0000000180142060     kernel32:KERNEL32.dll
 0002:00000068       __imp_GetCurrentThread     0000000180142068     kernel32:KERNEL32.dll
 0002:00000070       __imp_GetCurrentThreadId   0000000180142070     kernel32:KERNEL32.dll
 0002:00000078       __imp_OutputDebugStringA   0000000180142078     kernel32:KERNEL32.dll
 0002:00000080       __imp_InitializeSListHead  0000000180142080     kernel32:KERNEL32.dll
 0002:00000088       __imp_InterlockedPopEntrySList 0000000180142088     kernel32:KERNEL32.dll
 0002:00000090       __imp_InterlockedPushEntrySList 0000000180142090     kernel32:KERNEL32.dll
 0002:00000098       __imp_InterlockedFlushSList 0000000180142098     kernel32:KERNEL32.dll
 0002:000000a0       __imp_SetEvent             00000001801420a0     kernel32:KERNEL32.dll
 0002:000000a8       __imp_ResetEvent           00000001801420a8     kernel32:KERNEL32.dll
 0002:000000b0       __imp_WaitForSingleObject  00000001801420b0     kernel32:KERNEL32.dll
 0002:000000b8       __imp_CreateEventA         00000001801420b8     kernel32:KERNEL32.dll
 0002:000000c0       __imp_RaiseException       00000001801420c0     kernel32:KERNEL32.dll
 0002:000000c8       __imp_GetLastError         00000001801420c8     kernel32:KERNEL32.dll
 0002:000000d0       __imp_Sleep                00000001801420d0     kernel32:KERNEL32.dll
 0002:000000d8       __imp_SwitchToThread       00000001801420d8     kernel32:KERNEL32.dll
 0002:000000e0       __imp_CreateThread         00000001801420e0     kernel32:KERNEL32.dll
 0002:000000e8       __imp_SetThreadPriority    00000001801420e8     kernel32:KERNEL32.dll
 0002:000000f0       __imp_GetThreadPriority    00000001801420f0     kernel32:KERNEL32.dll
 0002:000000f8       __imp_ExitThread           00000001801420f8     kernel32:KERNEL32.dll
 0002:00000100       __imp_TerminateThread      0000000180142100     kernel32:KERNEL32.dll
 0002:00000108       __imp_ResumeThread         0000000180142108     kernel32:KERNEL32.dll
 0002:00000110       __imp_TlsAlloc             0000000180142110     kernel32:KERNEL32.dll
 0002:00000118       __imp_TlsGetValue          0000000180142118     kernel32:KERNEL32.dll
 0002:00000120       __imp_TlsSetValue          0000000180142120     kernel32:KERNEL32.dll
 0002:00000128       __imp_TlsFree              0000000180142128     kernel32:KERNEL32.dll
 0002:00000130       __imp_GetModuleHandleA     0000000180142130     kernel32:KERNEL32.dll
 0002:00000138       __imp_SetThreadAffinityMask 0000000180142138     kernel32:KERNEL32.dll
 0002:00000140       __imp_QueryPerformanceCounter 0000000180142140     kernel32:KERNEL32.dll
 0002:00000148       __imp_QueryPerformanceFrequency 0000000180142148     kernel32:KERNEL32.dll
 0002:00000150       __imp_GetSystemTimeAsFileTime 0000000180142150     kernel32:KERNEL32.dll
 0002:00000158       __imp_GetCurrentProcessId  0000000180142158     kernel32:KERNEL32.dll
 0002:00000160       __imp_GetModuleHandleW     0000000180142160     kernel32:KERNEL32.dll
 0002:00000168       __imp_IsProcessorFeaturePresent 0000000180142168     kernel32:KERNEL32.dll
 0002:00000170       __imp_GetStartupInfoW      0000000180142170     kernel32:KERNEL32.dll
 0002:00000178       __imp_SetUnhandledExceptionFilter 0000000180142178     kernel32:KERNEL32.dll
 0002:00000180       __imp_UnhandledExceptionFilter 0000000180142180     kernel32:KERNEL32.dll
 0002:00000188       __imp_IsDebuggerPresent    0000000180142188     kernel32:KERNEL32.dll
 0002:00000190       __imp_RtlVirtualUnwind     0000000180142190     kernel32:KERNEL32.dll
 0002:00000198       __imp_RtlLookupFunctionEntry 0000000180142198     kernel32:KERNEL32.dll
 0002:000001a0       __imp_RtlCaptureContext    00000001801421a0     kernel32:KERNEL32.dll
 0002:000001a8       __imp_DisableThreadLibraryCalls 00000001801421a8     kernel32:KERNEL32.dll
 0002:000001b0       \177KERNEL32_NULL_THUNK_DATA 00000001801421b0     kernel32:KERNEL32.dll
 0002:000001b8       __imp___std_type_info_name 00000001801421b8     vcruntime:VCRUNTIME140.dll
 0002:000001c0       __imp__CxxThrowException   00000001801421c0     vcruntime:VCRUNTIME140.dll
 0002:000001c8       __imp___std_exception_destroy 00000001801421c8     vcruntime:VCRUNTIME140.dll
 0002:000001d0       __imp___std_exception_copy 00000001801421d0     vcruntime:VCRUNTIME140.dll
 0002:000001d8       __imp___std_type_info_destroy_list 00000001801421d8     vcruntime:VCRUNTIME140.dll
 0002:000001e0       __imp_strstr               00000001801421e0     vcruntime:VCRUNTIME140.dll
 0002:000001e8       __imp_strchr               00000001801421e8     vcruntime:VCRUNTIME140.dll
 0002:000001f0       __imp_memmove              00000001801421f0     vcruntime:VCRUNTIME140.dll
 0002:000001f8       __imp___C_specific_handler 00000001801421f8     vcruntime:VCRUNTIME140.dll
 0002:00000200       __imp_memset               0000000180142200     vcruntime:VCRUNTIME140.dll
 0002:00000208       __imp_memcpy               0000000180142208     vcruntime:VCRUNTIME140.dll
 0002:00000210       __imp__purecall            0000000180142210     vcruntime:VCRUNTIME140.dll
 0002:00000218       \177VCRUNTIME140_NULL_THUNK_DATA 0000000180142218     vcruntime:VCRUNTIME140.dll
 0002:00000220       __imp_recv                 0000000180142220     Ws2_32:WS2_32.dll
 0002:00000228       __imp_WSAGetLastError      0000000180142228     Ws2_32:WS2_32.dll
 0002:00000230       __imp_WSACleanup           0000000180142230     Ws2_32:WS2_32.dll
 0002:00000238       __imp_WSAStartup           0000000180142238     Ws2_32:WS2_32.dll
 0002:00000240       __imp_gethostbyname        0000000180142240     Ws2_32:WS2_32.dll
 0002:00000248       __imp_gethostbyaddr        0000000180142248     Ws2_32:WS2_32.dll
 0002:00000250       __imp_socket               0000000180142250     Ws2_32:WS2_32.dll
 0002:00000258       __imp_setsockopt           0000000180142258     Ws2_32:WS2_32.dll
 0002:00000260       __imp_send                 0000000180142260     Ws2_32:WS2_32.dll
 0002:00000268       __imp_select               0000000180142268     Ws2_32:WS2_32.dll
 0002:00000270       __imp___WSAFDIsSet         0000000180142270     Ws2_32:WS2_32.dll
 0002:00000278       __imp_accept               0000000180142278     Ws2_32:WS2_32.dll
 0002:00000280       __imp_bind                 0000000180142280     Ws2_32:WS2_32.dll
 0002:00000288       __imp_closesocket          0000000180142288     Ws2_32:WS2_32.dll
 0002:00000290       __imp_connect              0000000180142290     Ws2_32:WS2_32.dll
 0002:00000298       __imp_ioctlsocket          0000000180142298     Ws2_32:WS2_32.dll
 0002:000002a0       __imp_getsockopt           00000001801422a0     Ws2_32:WS2_32.dll
 0002:000002a8       __imp_htonl                00000001801422a8     Ws2_32:WS2_32.dll
 0002:000002b0       __imp_htons                00000001801422b0     Ws2_32:WS2_32.dll
 0002:000002b8       __imp_inet_addr            00000001801422b8     Ws2_32:WS2_32.dll
 0002:000002c0       __imp_listen               00000001801422c0     Ws2_32:WS2_32.dll
 0002:000002c8       __imp_WSASendDisconnect    00000001801422c8     Ws2_32:WS2_32.dll
 0002:000002d0       \177WS2_32_NULL_THUNK_DATA 00000001801422d0     Ws2_32:WS2_32.dll
 0002:000002d8       __imp_malloc               00000001801422d8     ucrt:api-ms-win-crt-heap-l1-1-0.dll
 0002:000002e0       __imp_free                 00000001801422e0     ucrt:api-ms-win-crt-heap-l1-1-0.dll
 0002:000002e8       __imp__callnewh            00000001801422e8     ucrt:api-ms-win-crt-heap-l1-1-0.dll
 0002:000002f0       \177api-ms-win-crt-heap-l1-1-0_NULL_THUNK_DATA 00000001801422f0     ucrt:api-ms-win-crt-heap-l1-1-0.dll
 0002:000002f8       __imp_cosf                 00000001801422f8     ucrt:api-ms-win-crt-math-l1-1-0.dll
 0002:00000300       __imp_atan2f               0000000180142300     ucrt:api-ms-win-crt-math-l1-1-0.dll
 0002:00000308       __imp_asinf                0000000180142308     ucrt:api-ms-win-crt-math-l1-1-0.dll
 0002:00000310       __imp_sinf                 0000000180142310     ucrt:api-ms-win-crt-math-l1-1-0.dll
 0002:00000318       __imp__fpclass             0000000180142318     ucrt:api-ms-win-crt-math-l1-1-0.dll
 0002:00000320       \177api-ms-win-crt-math-l1-1-0_NULL_THUNK_DATA 0000000180142320     ucrt:api-ms-win-crt-math-l1-1-0.dll
 0002:00000328       __imp__register_onexit_function 0000000180142328     ucrt:api-ms-win-crt-runtime-l1-1-0.dll
 0002:00000330       __imp__execute_onexit_table 0000000180142330     ucrt:api-ms-win-crt-runtime-l1-1-0.dll
 0002:00000338       __imp__crt_atexit          0000000180142338     ucrt:api-ms-win-crt-runtime-l1-1-0.dll
 0002:00000340       __imp__crt_at_quick_exit   0000000180142340     ucrt:api-ms-win-crt-runtime-l1-1-0.dll
 0002:00000348       __imp__cexit               0000000180142348     ucrt:api-ms-win-crt-runtime-l1-1-0.dll
 0002:00000350       __imp__initterm            0000000180142350     ucrt:api-ms-win-crt-runtime-l1-1-0.dll
 0002:00000358       __imp__initterm_e          0000000180142358     ucrt:api-ms-win-crt-runtime-l1-1-0.dll
 0002:00000360       __imp_terminate            0000000180142360     ucrt:api-ms-win-crt-runtime-l1-1-0.dll
 0002:00000368       __imp__initialize_narrow_environment 0000000180142368     ucrt:api-ms-win-crt-runtime-l1-1-0.dll
 0002:00000370       __imp__configure_narrow_argv 0000000180142370     ucrt:api-ms-win-crt-runtime-l1-1-0.dll
 0002:00000378       __imp__clearfp             0000000180142378     ucrt:api-ms-win-crt-runtime-l1-1-0.dll
 0002:00000380       __imp__controlfp_s         0000000180142380     ucrt:api-ms-win-crt-runtime-l1-1-0.dll
 0002:00000388       __imp__seh_filter_dll      0000000180142388     ucrt:api-ms-win-crt-runtime-l1-1-0.dll
 0002:00000390       __imp_abort                0000000180142390     ucrt:api-ms-win-crt-runtime-l1-1-0.dll
 0002:00000398       __imp__initialize_onexit_table 0000000180142398     ucrt:api-ms-win-crt-runtime-l1-1-0.dll
 0002:000003a0       \177api-ms-win-crt-runtime-l1-1-0_NULL_THUNK_DATA 00000001801423a0     ucrt:api-ms-win-crt-runtime-l1-1-0.dll
 0002:000003a8       __imp___acrt_iob_func      00000001801423a8     ucrt:api-ms-win-crt-stdio-l1-1-0.dll
 0002:000003b0       __imp_puts                 00000001801423b0     ucrt:api-ms-win-crt-stdio-l1-1-0.dll
 0002:000003b8       __imp___stdio_common_vsprintf_s 00000001801423b8     ucrt:api-ms-win-crt-stdio-l1-1-0.dll
 0002:000003c0       __imp___stdio_common_vsprintf 00000001801423c0     ucrt:api-ms-win-crt-stdio-l1-1-0.dll
 0002:000003c8       __imp___stdio_common_vfprintf 00000001801423c8     ucrt:api-ms-win-crt-stdio-l1-1-0.dll
 0002:000003d0       \177api-ms-win-crt-stdio-l1-1-0_NULL_THUNK_DATA 00000001801423d0     ucrt:api-ms-win-crt-stdio-l1-1-0.dll
 0002:000003d8       __imp_tolower              00000001801423d8     ucrt:api-ms-win-crt-string-l1-1-0.dll
 0002:000003e0       __imp_strnlen              00000001801423e0     ucrt:api-ms-win-crt-string-l1-1-0.dll
 0002:000003e8       __imp_strcmp               00000001801423e8     ucrt:api-ms-win-crt-string-l1-1-0.dll
 0002:000003f0       __imp_strncmp              00000001801423f0     ucrt:api-ms-win-crt-string-l1-1-0.dll
 0002:000003f8       \177api-ms-win-crt-string-l1-1-0_NULL_THUNK_DATA 00000001801423f8     ucrt:api-ms-win-crt-string-l1-1-0.dll
 0002:00000400       __guard_check_icall_fptr   0000000180142400     MSVCRT:guard_support.obj
 0002:00000408       __guard_dispatch_icall_fptr 0000000180142408     MSVCRT:guard_support.obj
 0002:00000410       __xc_a                     0000000180142410     MSVCRT:initializers.obj
 0002:000017b0       __xc_z                     00000001801437b0     MSVCRT:initializers.obj
 0002:000017b8       __xi_a                     00000001801437b8     MSVCRT:initializers.obj
 0002:000017c0       __xi_z                     00000001801437c0     MSVCRT:initializers.obj
 0002:000017c8       __xp_a                     00000001801437c8     MSVCRT:initializers.obj
 0002:000017d0       __xp_z                     00000001801437d0     MSVCRT:initializers.obj
 0002:000017d8       __xt_a                     00000001801437d8     MSVCRT:initializers.obj
 0002:000017e0       __xt_z                     00000001801437e0     MSVCRT:initializers.obj
 0002:000017f0       ?MAX_LISTENER_COUNT@ErrorHandler@shdfnd@physx@@2IB 00000001801437f0     PsWindowsMemoryMappedFile.obj
 0002:000017f8       ??_7PxFoundation@physx@@6B@ 00000001801437f8     PsWindowsMemoryMappedFile.obj
 0002:00001840       ??_C@_0DL@HJOKOCAB@?4?4?2?4?4?2foundation?2src?2windows?2PsW@ 0000000180143840     PsWindowsMemoryMappedFile.obj
 0002:00001880       ??_C@_0BB@CPDDPFKD@GetUpdatedModule?$AA@ 0000000180143880     PsWindowsModuleUpdateLoader.obj
 0002:00001898       ??_C@_0DA@FAMEPBEB@?4?4?2?4?4?2foundation?2src?2windows?2PsW@ 0000000180143898     PsWindowsMutex.obj
 0002:000018d0       ??_C@_0FG@LCNIPLLL@c?3?2cpsc585g3?2middleware?2physx?93?4@ 00000001801438d0     PsWindowsMutex.obj
 0002:00001928       ??_C@_0BM@OIFKLHDN@?$DMallocation?5names?5disabled?$DO?$AA@ 0000000180143928     PsWindowsMutex.obj
 0002:00001948       ??_C@_0DF@KNPIDOCL@?4?4?2?4?4?2foundation?2src?2windows?2PsW@ 0000000180143948     PsWindowsPAEventSrc.obj
 0002:00001980       ??_C@_0EM@NPLJPKIB@The?5AGPerfMON?5DLL?5does?5not?5conta@ 0000000180143980     PsWindowsPAEventSrc.obj
 0002:000019d0       ??_C@_09KKJFIDEP@NTDLL?4DLL?$AA@ 00000001801439d0     PsWindowsPAEventSrc.obj
 0002:000019e0       ??_C@_0BJ@HKKELGGC@NtQueryInformationThread?$AA@ 00000001801439e0     PsWindowsPAEventSrc.obj
 0002:00001a00       ??_C@_0BC@OEEDEKLN@AgPerfMon_x64?4dll?$AA@ 0000000180143a00     PsWindowsPAEventSrc.obj
 0002:00001a18       ??_C@_0BL@DDAKOMJB@AgPmCreateSourceConnection?$AA@ 0000000180143a18     PsWindowsPAEventSrc.obj
 0002:00001a38       ??_C@_0BM@OHHNIHIM@AgPmDestroySourceConnection?$AA@ 0000000180143a38     PsWindowsPAEventSrc.obj
 0002:00001a58       ??_C@_0BC@DFOHHJHM@AgPmRegisterEvent?$AA@ 0000000180143a58     PsWindowsPAEventSrc.obj
 0002:00001a70       ??_C@_0BA@GDHBLAIH@AgPmSubmitEvent?$AA@ 0000000180143a70     PsWindowsPAEventSrc.obj
 0002:00001a80       ??_C@_0BN@BFGBHLJA@AgPmSubmitEventWithTimestamp?$AA@ 0000000180143a80     PsWindowsPAEventSrc.obj
 0002:00001aa0       ??_C@_0CD@CADILMFD@AgPmSubmitEventWithTimestampUnsa@ 0000000180143aa0     PsWindowsPAEventSrc.obj
 0002:00001ac8       ??_C@_0BE@GFJBJNMP@AgPmSubmitEventLock?$AA@ 0000000180143ac8     PsWindowsPAEventSrc.obj
 0002:00001ae0       ??_C@_0BG@DKGMIMMC@AgPmSubmitEventUnlock?$AA@ 0000000180143ae0     PsWindowsPAEventSrc.obj
 0002:00001af8       ??_C@_0BB@BBBCLILL@AgPmEventEnabled?$AA@ 0000000180143af8     PsWindowsPAEventSrc.obj
 0002:00001b10       ??_C@_0BI@OBLMKHMO@AgPmEventLoggingEnabled?$AA@ 0000000180143b10     PsWindowsPAEventSrc.obj
 0002:00001b30       ??_C@_0HF@GCOFMDCL@The?5AGPerfMON?5DLL?5does?5not?5conta@ 0000000180143b30     PsWindowsPAEventSrc.obj
 0002:00001bb0       ??_C@_0EG@BIIDHCKE@The?5AGPerfMON?5DLL?5was?5not?5able?5t@ 0000000180143bb0     PsWindowsPAEventSrc.obj
 0002:00001bf8       ??_C@_01EEMJAFIK@?6?$AA@   0000000180143bf8     PsWindowsPrintString.obj
 0002:00001c00       ?DEFAULT_BUFFER_SIZE@Socket@shdfnd@physx@@2IB 0000000180143c00     PsWindowsSocket.obj
 0002:00001c08       ??_7Socket@shdfnd@physx@@6B@ 0000000180143c08     PsWindowsSocket.obj
 0002:00001c10       ??_7Runnable@shdfnd@physx@@6B@ 0000000180143c10     PsWindowsSocket.obj
 0002:00001c20       ??_7?$ThreadT@V?$ReflectionAllocator@VThreadImpl@shdfnd@physx@@@shdfnd@physx@@@shdfnd@physx@@6B@ 0000000180143c20     PsWindowsSocket.obj
 0002:00001c30       ??_7SocketImpl@shdfnd@physx@@6B@ 0000000180143c30     PsWindowsSocket.obj
 0002:00001c50       ??_7BufferedSocketImpl@shdfnd@physx@@6B@ 0000000180143c50     PsWindowsSocket.obj
 0002:00001c70       ??_C@_0DB@HGEALNHB@?4?4?2?4?4?2foundation?2src?2windows?2PsW@ 0000000180143c70     PsWindowsSocket.obj
 0002:00001cb0       ??_C@_0FH@BPIOAJJB@C?3?2CPSC585G3?2middleware?2PhysX?93?4@ 0000000180143cb0     PsWindowsSocket.obj
 0002:00001d08       ?waitForever@SyncImpl@shdfnd@physx@@2IB 0000000180143d08     PsWindowsSync.obj
 0002:00001d18       ??_C@_0BP@KHGALBC@GetLogicalProcessorInformation?$AA@ 0000000180143d18     PsWindowsThread.obj
 0002:00001d38       ??_C@_08PNLNEKOB@kernel32?$AA@ 0000000180143d38     PsWindowsThread.obj
 0002:00001d48       ??_C@_0DN@IFPBEEGJ@Error?5querying?5buffer?5size?5for?5n@ 0000000180143d48     PsWindowsThread.obj
 0002:00001d88       ??_C@_0DB@OEAPNBAD@?4?4?2?4?4?2foundation?2src?2windows?2PsW@ 0000000180143d88     PsWindowsThread.obj
 0002:00001dc0       ??_C@_0CN@ELPPFLE@Error?5querying?5number?5of?5physica@ 0000000180143dc0     PsWindowsThread.obj
 0002:00001df0       ?sNumTensOfNanoSecondsInASecond@Time@shdfnd@physx@@2_KB 0000000180143df0     PsWindowsTime.obj
 0002:00001df8       __real@3ff0000000000000    0000000180143df8     PsWindowsTime.obj
 0002:00001e00       ??_C@_00CNPNBAHC@?$AA@     0000000180143e00     PsAllocator.obj
 0002:00001e08       ??_7PxAssertHandler@physx@@6B@ 0000000180143e08     PsAssert.obj
 0002:00001e18       ??_7DefaultAssertHandler@?A0x2e8fa11f@@6B@ 0000000180143e18     PsAssert.obj
 0002:00001e28       ??_C@_0BP@EFIHDDDE@?$CFs?$CI?$CFd?$CJ?5?3?5Assertion?5failed?3?5?$CFs?6?$AA@ 0000000180143e28     PsAssert.obj
 0002:00001e48       ??_7PxIPC@shdfnd@physx@@6B@ 0000000180143e48     PsFastIPC.obj
 0002:00001e90       ??_C@_0FL@PAOMNPCP@C?3?2CPSC585G3?2middleware?2PhysX?93?4@ 0000000180143e90     PsFastIPC.obj
 0002:00001ef0       ??_7FastIPC@shdfnd@physx@@6B@ 0000000180143ef0     PsFastIPC.obj
 0002:00001f38       ??_C@_0CD@BHELJLFF@?4?4?2?4?4?2foundation?2src?2PsFastIPC?4c@ 0000000180143f38     PsFastIPC.obj
 0002:00001fb0       ??_C@_04GJOGLFEJ@?$CGlt?$DL?$AA@ 0000000180143fb0     PsFastXml.obj
 0002:00001fb8       ??_C@_05JKJFEODM@?$CGamp?$DL?$AA@ 0000000180143fb8     PsFastXml.obj
 0002:00001fc0       ??_C@_04LOOHDCEI@?$CGgt?$DL?$AA@ 0000000180143fc0     PsFastXml.obj
 0002:00001fc8       ??_C@_06DDLNFFBN@?$CGquot?$DL?$AA@ 0000000180143fc8     PsFastXml.obj
 0002:00001fd0       ??_C@_06PNMEMOHD@?$CGapos?$DL?$AA@ 0000000180143fd0     PsFastXml.obj
 0002:00001fd8       ??_7FastXml@shdfnd@physx@@6B@ 0000000180143fd8     PsFastXml.obj
 0002:00001ff8       ??_7MyFastXml@?A0x5879332e@@6B@ 0000000180143ff8     PsFastXml.obj
 0002:00002018       ??_C@_03PJHHNEEI@xml?$AA@  0000000180144018     PsFastXml.obj
 0002:00002020       ??_C@_0CB@OICNKAFC@User?5aborted?5the?5parsing?5process@ 0000000180144020     PsFastXml.obj
 0002:00002044       ??_C@_03PNLDJJMO@?9?9?$DO?$AA@ 0000000180144044     PsFastXml.obj
 0002:00002048       ??_C@_0DG@FBEFPMIN@Data?5portion?5of?5an?5element?5wasn?8@ 0000000180144048     PsFastXml.obj
 0002:00002080       ??_C@_0CD@DGNEBNCH@Open?5and?5closing?5tags?5do?5not?5mat@ 0000000180144080     PsFastXml.obj
 0002:000020a8       ??_C@_07JGKBCNAA@DOCTYPE?$AA@ 00000001801440a8     PsFastXml.obj
 0002:000020b0       ??_C@_0BA@NOIEEIDL@Invalid?5DOCTYPE?$AA@ 00000001801440b0     PsFastXml.obj
 0002:000020c0       ??_C@_0CA@DFOKEHEE@encountered?5too?5many?5attributes?$AA@ 00000001801440c0     PsFastXml.obj
 0002:000020e0       ??_C@_0CL@IMALDHHH@Failed?5to?5find?5closing?5quote?5for@ 00000001801440e0     PsFastXml.obj
 0002:00002110       ??_C@_0BE@OMJLDAGM@Invalid?5file?5format?$AA@ 0000000180144110     PsFastXml.obj
 0002:00002128       ??_7PxAllocatorCallback@physx@@6B@ 0000000180144128     PsFoundation.obj
 0002:00002140       ??_C@_0BA@DLCJDKDM@NonTrackedAlloc?$AA@ 0000000180144140     PsFoundation.obj
 0002:00002150       ??_7PxBroadcastingAllocator@physx@@6B@ 0000000180144150     PsFoundation.obj
 0002:00002178       ??_7AlignCheckAllocator@Foundation@shdfnd@physx@@6B@ 0000000180144178     PsFoundation.obj
 0002:000021a0       ??_7Foundation@shdfnd@physx@@6B@ 00000001801441a0     PsFoundation.obj
 0002:000021f0       ??_C@_0EE@HLMNBHHJ@Wrong?5version?3?5foundation?5versio@ 00000001801441f0     PsFoundation.obj
 0002:00002238       ??_C@_0CG@BMKONEAC@?4?4?2?4?4?2foundation?2src?2PsFoundatio@ 0000000180144238     PsFoundation.obj
 0002:00002260       ??_C@_0L@LLOEHGOK@Foundation?$AA@ 0000000180144260     PsFoundation.obj
 0002:00002270       ??_C@_0DA@CNIIACOI@Memory?5allocation?5for?5foundation@ 0000000180144270     PsFoundation.obj
 0002:000022a0       ??_C@_0FA@BDOLCCKE@Foundation?5object?5exists?5already@ 00000001801442a0     PsFoundation.obj
 0002:000022f0       ??_C@_0GL@CPBKAIEN@Foundation?5destruction?5failed?5du@ 00000001801442f0     PsFoundation.obj
 0002:00002360       ??_C@_0CL@BGGAJOAL@Foundation?3?5Invalid?5registration@ 0000000180144360     PsFoundation.obj
 0002:00002390       ??_C@_0CN@HIKEAJOE@Foundation?3?5Invalid?5deregistrati@ 0000000180144390     PsFoundation.obj
 0002:000023c0       ??_C@_0BO@FEGALDIG@User?5allocator?5returned?5NULL?4?$AA@ 00000001801443c0     PsFoundation.obj
 0002:000023e0       ??_C@_0CP@BEECKDMG@Allocations?5for?5PhysX?5must?5be?516@ 00000001801443e0     PsFoundation.obj
 0002:00002410       ??_C@_0FO@NBGACILI@c?3?2cpsc585g3?2middleware?2physx?93?4@ 0000000180144410     PsFoundation.obj
 0002:00002470       ??_C@_0FG@LLLFPCMC@c?3?2cpsc585g3?2middleware?2physx?93?4@ 0000000180144470     PsFoundation.obj
 0002:000024c8       __real@24e69595            00000001801444c8     PsMathUtils.obj
 0002:000024cc       __real@3f000000            00000001801444cc     PsMathUtils.obj
 0002:000024d0       __real@3f7ff972            00000001801444d0     PsMathUtils.obj
 0002:000024d4       __real@3f800000            00000001801444d4     PsMathUtils.obj
 0002:000024d8       __real@40490fdb            00000001801444d8     PsMathUtils.obj
 0002:000024dc       __real@bf7ff972            00000001801444dc     PsMathUtils.obj
 0002:000024e0       __real@bf800000            00000001801444e0     PsMathUtils.obj
 0002:000024f0       __xmm@7fffffff7fffffff7fffffff7fffffff 00000001801444f0     PsMathUtils.obj
 0002:00002500       __xmm@80000000800000008000000080000000 0000000180144500     PsMathUtils.obj
 0002:00002510       ??_C@_0FG@FLBFNDFD@C?3?2CPSC585G3?2middleware?2PhysX?93?4@ 0000000180144510     PsTempAllocator.obj
 0002:00002568       ??_7PxCollection@physx@@6B@ 0000000180144568     CmCollection.obj
 0002:000025e8       ??_7Collection@Cm@physx@@6B@ 00000001801445e8     CmCollection.obj
 0002:00002670       ??_C@_0GE@GBACBMOC@PxCollection?3?3add?5called?5for?5an?5@ 0000000180144670     CmCollection.obj
 0002:000026d8       ??_C@_0CC@IADNGPGM@?4?4?2?4?4?2Common?2src?2CmCollection?4cp@ 00000001801446d8     CmCollection.obj
 0002:00002700       ??_C@_0EM@OMMGDOMK@PxCollection?3?3add?5called?5with?5an@ 0000000180144700     CmCollection.obj
 0002:00002750       ??_C@_0BA@MIBLHBGK@Basic?4collision?$AA@ 0000000180144750     CmEventProfiler.obj
 0002:00002760       ??_C@_0BB@CNNNIIKB@Basic?4broadPhase?$AA@ 0000000180144760     CmEventProfiler.obj
 0002:00002778       ??_C@_0BC@JMIHPGJA@Basic?4narrowPhase?$AA@ 0000000180144778     CmEventProfiler.obj
 0002:00002790       ??_C@_0BG@GJLJHLKK@Basic?4rigidBodySolver?$AA@ 0000000180144790     CmEventProfiler.obj
 0002:000027a8       ??_C@_0BA@HGKFBHPH@Basic?4islandGen?$AA@ 00000001801447a8     CmEventProfiler.obj
 0002:000027b8       ??_C@_0P@LCFKDIEP@Basic?4dynamics?$AA@ 00000001801447b8     CmEventProfiler.obj
 0002:000027c8       ??_C@_0BE@CABHADLK@Basic?4pvdFrameStart?$AA@ 00000001801447c8     CmEventProfiler.obj
 0002:000027e0       ??_C@_0P@FCMKHNLB@Basic?4simulate?$AA@ 00000001801447e0     CmEventProfiler.obj
 0002:000027f0       ??_C@_0BD@JOGLKFKJ@Basic?4checkResults?$AA@ 00000001801447f0     CmEventProfiler.obj
 0002:00002808       ??_C@_0BF@LGFKGEBC@Basic?4checkCollision?$AA@ 0000000180144808     CmEventProfiler.obj
 0002:00002820       ??_C@_0BD@ELBODAJK@Basic?4fetchResults?$AA@ 0000000180144820     CmEventProfiler.obj
 0002:00002838       ??_C@_0BF@LJCIBDL@?4API?4flushSimulation?$AA@ 0000000180144838     CmEventProfiler.obj
 0002:00002850       ??_C@_0BH@PCMHPPAG@?4API?4flushQueryUpdates?$AA@ 0000000180144850     CmEventProfiler.obj
 0002:00002868       ??_C@_0O@EIEDIKON@?4API?4addActor?$AA@ 0000000180144868     CmEventProfiler.obj
 0002:00002878       ??_C@_0P@NKOBPHHK@?4API?4addActors?$AA@ 0000000180144878     CmEventProfiler.obj
 0002:00002888       ??_C@_0BB@KMKGGDIE@?4API?4removeActor?$AA@ 0000000180144888     CmEventProfiler.obj
 0002:000028a0       ??_C@_0BC@OOGLMLGP@?4API?4removeActors?$AA@ 00000001801448a0     CmEventProfiler.obj
 0002:000028b8       ??_C@_0BC@DPBMBOGL@?4API?4addAggregate?$AA@ 00000001801448b8     CmEventProfiler.obj
 0002:000028d0       ??_C@_0BF@FLGPGMAF@?4API?4removeAggregate?$AA@ 00000001801448d0     CmEventProfiler.obj
 0002:000028e8       ??_C@_0BF@CEDAHEOM@?4API?4addArticulation?$AA@ 00000001801448e8     CmEventProfiler.obj
 0002:00002900       ??_C@_0BI@LCHMKJFA@?4API?4removeArticulation?$AA@ 0000000180144900     CmEventProfiler.obj
 0002:00002918       ??_C@_0BD@BNILPGGG@?4API?4addCollection?$AA@ 0000000180144918     CmEventProfiler.obj
 0002:00002930       ??_C@_0BH@DBNJDACL@?4API?4addParticleSystem?$AA@ 0000000180144930     CmEventProfiler.obj
 0002:00002948       ??_C@_0BK@IBMLOJLK@?4API?4removeParticleSystem?$AA@ 0000000180144948     CmEventProfiler.obj
 0002:00002968       ??_C@_0BG@FHCIAMCP@?4API?4addParticleFluid?$AA@ 0000000180144968     CmEventProfiler.obj
 0002:00002980       ??_C@_0BJ@JFGJLPFF@?4API?4removeParticleFluid?$AA@ 0000000180144980     CmEventProfiler.obj
 0002:000029a0       ??_C@_0O@KAJNNKOD@?4API?4addCloth?$AA@ 00000001801449a0     CmEventProfiler.obj
 0002:000029b0       ??_C@_0BB@EEHIDDIK@?4API?4removeCloth?$AA@ 00000001801449b0     CmEventProfiler.obj
 0002:000029c8       ??_C@_0BG@HFDIJLP@?4API?4createBatchQuery?$AA@ 00000001801449c8     CmEventProfiler.obj
 0002:000029e0       ??_C@_0BH@NFMEGCFI@?4API?4releaseBatchQuery?$AA@ 00000001801449e0     CmEventProfiler.obj
 0002:000029f8       ??_C@_0BN@NHLFGIND@?4API?4forceDynamicTreeRebuild?$AA@ 00000001801449f8     CmEventProfiler.obj
 0002:00002a18       ??_C@_0BB@BIDPKBFO@?4API?4shiftOrigin?$AA@ 0000000180144a18     CmEventProfiler.obj
 0002:00002a30       ??_C@_0BD@NKEMEMNB@?4API?4addActorToSim?$AA@ 0000000180144a30     CmEventProfiler.obj
 0002:00002a48       ??_C@_0BI@EIALDOIM@?4API?4removeActorFromSim?$AA@ 0000000180144a48     CmEventProfiler.obj
 0002:00002a60       ??_C@_0BE@LODGKFBP@?4API?4addShapesToSim?$AA@ 0000000180144a60     CmEventProfiler.obj
 0002:00002a78       ??_C@_0BJ@JAKJJECM@?4API?4removeShapesFromSim?$AA@ 0000000180144a78     CmEventProfiler.obj
 0002:00002a98       ??_C@_0BD@BJCJKOGM@?4API?4addShapesToSQ?$AA@ 0000000180144a98     CmEventProfiler.obj
 0002:00002ab0       ??_C@_0BI@DCBFBMBB@?4API?4removeShapesFromSQ?$AA@ 0000000180144ab0     CmEventProfiler.obj
 0002:00002ac8       ??_C@_0BN@ECHOGGPB@?4API?4simAddShapeToBroadPhase?$AA@ 0000000180144ac8     CmEventProfiler.obj
 0002:00002ae8       ??_C@_0BM@NFHNBMHI@?4API?4findAndReplaceWithLast?$AA@ 0000000180144ae8     CmEventProfiler.obj
 0002:00002b08       ??_C@_0BH@BJKEIFKF@Sim?4updateDirtyShaders?$AA@ 0000000180144b08     CmEventProfiler.obj
 0002:00002b20       ??_C@_0BH@DMPCGCE@Sim?4taskFrameworkSetup?$AA@ 0000000180144b20     CmEventProfiler.obj
 0002:00002b38       ??_C@_0BG@DNHCGIKJ@Sim?4resetDependencies?$AA@ 0000000180144b38     CmEventProfiler.obj
 0002:00002b50       ??_C@_0BE@CAIIKOJC@Sim?4solveQueueTasks?$AA@ 0000000180144b50     CmEventProfiler.obj
 0002:00002b68       ??_C@_0BG@KMFIHMN@Sim?4collideQueueTasks?$AA@ 0000000180144b68     CmEventProfiler.obj
 0002:00002b80       ??_C@_0BG@DJLFLABI@Sim?4stepSetupSimulate?$AA@ 0000000180144b80     CmEventProfiler.obj
 0002:00002b98       ??_C@_0BD@JJMKFKDH@Sim?4stepSetupSolve?$AA@ 0000000180144b98     CmEventProfiler.obj
 0002:00002bb0       ??_C@_0BF@FANAHMLK@Sim?4stepSetupCollide?$AA@ 0000000180144bb0     CmEventProfiler.obj
 0002:00002bc8       ??_C@_0BL@LELOEGFN@?4Sim?4projectionTreeUpdates?$AA@ 0000000180144bc8     CmEventProfiler.obj
 0002:00002be8       ??_C@_0BH@LNNOBOLE@Sim?4processNewOverlaps?$AA@ 0000000180144be8     CmEventProfiler.obj
 0002:00002c00       ??_C@_0BI@JLHCBPCB@Sim?4processLostOverlaps?$AA@ 0000000180144c00     CmEventProfiler.obj
 0002:00002c18       ??_C@_0BE@CIIPCGID@Sim?4processTriggers?$AA@ 0000000180144c18     CmEventProfiler.obj
 0002:00002c30       ??_C@_0BF@NDJOFMEP@Sim?4queueNarrowPhase?$AA@ 0000000180144c30     CmEventProfiler.obj
 0002:00002c48       ??_C@_0BA@IAJJNLNL@Sim?4narrowPhase?$AA@ 0000000180144c48     CmEventProfiler.obj
 0002:00002c58       ??_C@_0BK@PBHILHAF@Sim?4finishModifiablePairs?$AA@ 0000000180144c58     CmEventProfiler.obj
 0002:00002c78       ??_C@_0BF@LAABKADL@Sim?4narrowPhaseMerge?$AA@ 0000000180144c78     CmEventProfiler.obj
 0002:00002c90       ??_C@_0BB@MMIHNICK@Sim?4preIslandGen?$AA@ 0000000180144c90     CmEventProfiler.obj
 0002:00002ca8       ??_C@_0BC@IGMBOODB@Sim?4updateIslands?$AA@ 0000000180144ca8     CmEventProfiler.obj
 0002:00002cc0       ??_C@_0BL@LOJEKLAG@Sim?4preIslandGenSecondPass?$AA@ 0000000180144cc0     CmEventProfiler.obj
 0002:00002ce0       ??_C@_0BM@DDHIIJBM@Sim?4updateIslandsSecondPass?$AA@ 0000000180144ce0     CmEventProfiler.obj
 0002:00002d00       ??_C@_0BM@IGNAPKHI@Sim?4postIslandGenSecondPass?$AA@ 0000000180144d00     CmEventProfiler.obj
 0002:00002d20       ??_C@_0BB@CFGDPNEA@Sim?4updateForces?$AA@ 0000000180144d20     CmEventProfiler.obj
 0002:00002d38       ??_C@_0BH@OOBNLNPN@Sim?4updateCCDMultiPass?$AA@ 0000000180144d38     CmEventProfiler.obj
 0002:00002d50       ??_C@_0BC@DNOCCOIA@Sim?4ccdBroadPhase?$AA@ 0000000180144d50     CmEventProfiler.obj
 0002:00002d68       ??_C@_0BI@LKPOJOFH@Sim?4updateCCDSinglePass?$AA@ 0000000180144d68     CmEventProfiler.obj
 0002:00002d80       ??_C@_0BK@NKFLGOIH@Sim?4ccdBroadPhaseComplete?$AA@ 0000000180144d80     CmEventProfiler.obj
 0002:00002da0       ??_C@_0BF@CILKBHIA@?4Sim?4projectContacts?$AA@ 0000000180144da0     CmEventProfiler.obj
 0002:00002db8       ??_C@_0O@LJEANFP@?4Sim?4ccdSweep?$AA@ 0000000180144db8     CmEventProfiler.obj
 0002:00002dc8       ??_C@_0BD@CHPHICPP@?4Sim?4ccdSweepMerge?$AA@ 0000000180144dc8     CmEventProfiler.obj
 0002:00002de0       ??_C@_0N@CBJMAAJC@?4Sim?4ccdPair?$AA@ 0000000180144de0     CmEventProfiler.obj
 0002:00002df0       ??_C@_0P@DGLLIMAB@?4Sim?4ccdIsland?$AA@ 0000000180144df0     CmEventProfiler.obj
 0002:00002e00       ??_C@_0BC@OLPJNLOP@?4Sim?4getSimEvents?$AA@ 0000000180144e00     CmEventProfiler.obj
 0002:00002e18       ??_C@_0BL@OIBOHMDC@?4Sim?4syncBodiesAfterSolver?$AA@ 0000000180144e18     CmEventProfiler.obj
 0002:00002e38       ??_C@_0CA@IPIGIJJJ@?4Sim?4syncBodiesAfterIntegration?$AA@ 0000000180144e38     CmEventProfiler.obj
 0002:00002e58       ??_C@_0BI@KLMJHGNC@?4Sim?4projectConstraints?$AA@ 0000000180144e58     CmEventProfiler.obj
 0002:00002e70       ??_C@_0BN@GPOBOIBN@?4Sim?4checkConstraintBreakage?$AA@ 0000000180144e70     CmEventProfiler.obj
 0002:00002e90       ??_C@_0BI@DHNJPMGB@?4Sim?4visualizeStartStep?$AA@ 0000000180144e90     CmEventProfiler.obj
 0002:00002ea8       ??_C@_0BG@LAKEEIOL@?4Sim?4visualizeEndStep?$AA@ 0000000180144ea8     CmEventProfiler.obj
 0002:00002ec0       ??_C@_0CB@EIGHFGHM@Sim?4fireCustomFilteringCallbacks@ 0000000180144ec0     CmEventProfiler.obj
 0002:00002ee8       ??_C@_0BJ@LFGMCHDM@Sim?4fireCallBacksPreSync?$AA@ 0000000180144ee8     CmEventProfiler.obj
 0002:00002f08       ??_C@_0BH@OPBJDBEE@Sim?4updatePruningTrees?$AA@ 0000000180144f08     CmEventProfiler.obj
 0002:00002f20       ??_C@_0BK@NGHEFLJE@Sim?4fireCallBacksPostSync?$AA@ 0000000180144f20     CmEventProfiler.obj
 0002:00002f40       ??_C@_0O@OOLOCNEF@Sim?4syncState?$AA@ 0000000180144f40     CmEventProfiler.obj
 0002:00002f50       ??_C@_0BK@NNOIFFML@Sim?4buildActiveTransforms?$AA@ 0000000180144f50     CmEventProfiler.obj
 0002:00002f70       ??_C@_0BB@KKAMLGKP@Sim?4fetchResults?$AA@ 0000000180144f70     CmEventProfiler.obj
 0002:00002f88       ??_C@_0BG@IANODDFO@Sim?4sceneFinalization?$AA@ 0000000180144f88     CmEventProfiler.obj
 0002:00002fa0       ??_C@_0BG@IBLJLDMG@ParticleSim?4startStep?$AA@ 0000000180144fa0     CmEventProfiler.obj
 0002:00002fb8       ??_C@_0BE@GEILGIKO@ParticleSim?4endStep?$AA@ 0000000180144fb8     CmEventProfiler.obj
 0002:00002fd0       ??_C@_0CD@DPGIIPPG@ParticleSim?4shapesUpdateProcessi@ 0000000180144fd0     CmEventProfiler.obj
 0002:00002ff8       ??_C@_0BM@JDFGHBHB@ParticleSim?4updateCollision?$AA@ 0000000180144ff8     CmEventProfiler.obj
 0002:00003018       ??_C@_0BK@PCGIBKAM@Dynamics?4solverQueueTasks?$AA@ 0000000180145018     CmEventProfiler.obj
 0002:00003038       ??_C@_0BE@OEBHCFMH@Dynamics?4solveGroup?$AA@ 0000000180145038     CmEventProfiler.obj
 0002:00003050       ??_C@_0BM@GFIEJPFJ@Dynamics?4solverMergeResults?$AA@ 0000000180145050     CmEventProfiler.obj
 0002:00003070       ??_C@_0BA@OKMBOPLA@Dynamics?4solver?$AA@ 0000000180145070     CmEventProfiler.obj
 0002:00003080       ??_C@_0BJ@MHAGEBNG@?4Dynamics?4createFinalize?$AA@ 0000000180145080     CmEventProfiler.obj
 0002:000030a0       ??_C@_0BI@HACBLIBB@?4Dynamics?4setupFinalize?$AA@ 00000001801450a0     CmEventProfiler.obj
 0002:000030b8       ??_C@_0BL@LGAKCCJL@?4Dynamics?4getFrictionPatch?$AA@ 00000001801450b8     CmEventProfiler.obj
 0002:000030d8       ??_C@_0BP@EBKEJMEP@?4Dynamics?4createContactPatches?$AA@ 00000001801450d8     CmEventProfiler.obj
 0002:000030f8       ??_C@_0BL@LFJCEHBF@?4Dynamics?4correlatePatches?$AA@ 00000001801450f8     CmEventProfiler.obj
 0002:00003118       ??_C@_0BG@PHLBLBFO@?4Dynamics?4growPatches?$AA@ 0000000180145118     CmEventProfiler.obj
 0002:00003130       ??_C@_0BI@OHEAFNOI@?4Dynamics?4parallelSolve?$AA@ 0000000180145130     CmEventProfiler.obj
 0002:00003148       ??_C@_0BL@OGBIJANG@?4Dynamics?4updateKinematics?$AA@ 0000000180145148     CmEventProfiler.obj
 0002:00003168       ??_C@_0BL@JOJBEIFI@?4Dynamics?4updateVelocities?$AA@ 0000000180145168     CmEventProfiler.obj
 0002:00003188       ??_C@_0BK@OCLGHGAK@?4Dynamics?4updatePositions?$AA@ 0000000180145188     CmEventProfiler.obj
 0002:000031a8       ??_C@_0BH@KPBAFFPF@?4SceneQuery?4raycastAny?$AA@ 00000001801451a8     CmEventProfiler.obj
 0002:000031c0       ??_C@_0BK@KJEGJMDA@?4SceneQuery?4raycastSingle?$AA@ 00000001801451c0     CmEventProfiler.obj
 0002:000031e0       ??_C@_0BM@INFEBJDK@?4SceneQuery?4raycastMultiple?$AA@ 00000001801451e0     CmEventProfiler.obj
 0002:00003200       ??_C@_0BM@PJFCPLCI@?4SceneQuery?4overlapMultiple?$AA@ 0000000180145200     CmEventProfiler.obj
 0002:00003220       ??_C@_0BF@OEGDLFDP@?4SceneQuery?4sweepAny?$AA@ 0000000180145220     CmEventProfiler.obj
 0002:00003238       ??_C@_0BJ@EEKDKNDD@?4SceneQuery?4sweepAnyList?$AA@ 0000000180145238     CmEventProfiler.obj
 0002:00003258       ??_C@_0BI@KCAMFMIH@?4SceneQuery?4sweepSingle?$AA@ 0000000180145258     CmEventProfiler.obj
 0002:00003270       ??_C@_0BM@EHIMLDKE@?4SceneQuery?4sweepSingleList?$AA@ 0000000180145270     CmEventProfiler.obj
 0002:00003290       ??_C@_0BK@LNLEOILP@?4SceneQuery?4sweepMultiple?$AA@ 0000000180145290     CmEventProfiler.obj
 0002:000032b0       ??_C@_0BO@BBFABMGD@?4SceneQuery?4sweepMultipleList?$AA@ 00000001801452b0     CmEventProfiler.obj
 0002:000032d0       ??_C@_0BJ@LPMPMAPA@?4SceneQuery?4flushUpdates?$AA@ 00000001801452d0     CmEventProfiler.obj
 0002:000032f0       ??_C@_0BL@BBKIICNF@?4BatchedSceneQuery?4execute?$AA@ 00000001801452f0     CmEventProfiler.obj
 0002:00003310       ??_C@_0BO@HAMBEM@?4BatchedSceneQuery?4raycastAny?$AA@ 0000000180145310     CmEventProfiler.obj
 0002:00003330       ??_C@_0CB@DLFGHHEG@?4BatchedSceneQuery?4raycastSingle@ 0000000180145330     CmEventProfiler.obj
 0002:00003358       ??_C@_0CD@MDOJGOKK@?4BatchedSceneQuery?4raycastMultip@ 0000000180145358     CmEventProfiler.obj
 0002:00003380       ??_C@_0CD@LHOPIMLI@?4BatchedSceneQuery?4overlapMultip@ 0000000180145380     CmEventProfiler.obj
 0002:000033a8       ??_C@_0BP@BABODHDL@?4BatchedSceneQuery?4sweepSingle?$AA@ 00000001801453a8     CmEventProfiler.obj
 0002:000033c8       ??_C@_0CB@CPKEADMJ@?4BatchedSceneQuery?4sweepMultiple@ 00000001801453c8     CmEventProfiler.obj
 0002:000033f0       ??_C@_0CA@DNMMBAMP@?4Articulations?4prepareDataBlock?$AA@ 00000001801453f0     CmEventProfiler.obj
 0002:00003410       ??_C@_0BM@LGJMKGKM@?4Articulations?4setupProject?$AA@ 0000000180145410     CmEventProfiler.obj
 0002:00003430       ??_C@_0BN@MKIODIOJ@?4Articulations?4prepareFsData?$AA@ 0000000180145430     CmEventProfiler.obj
 0002:00003450       ??_C@_0BL@OBDPJDBB@?4Articulations?4setupDrives?$AA@ 0000000180145450     CmEventProfiler.obj
 0002:00003470       ??_C@_0BK@CCNEHK@?4Articulations?4jointLoads?$AA@ 0000000180145470     CmEventProfiler.obj
 0002:00003490       ??_C@_0CG@JGLFNGPF@?4Articulations?4propagateDrivenIn@ 0000000180145490     CmEventProfiler.obj
 0002:000034b8       ??_C@_0CC@PINOIDLF@?4Articulations?4computeJointDrive@ 00000001801454b8     CmEventProfiler.obj
 0002:000034e0       ??_C@_0CA@JADFKDHH@?4Articulations?4applyJointDrives?$AA@ 00000001801454e0     CmEventProfiler.obj
 0002:00003500       ??_C@_0CF@MJDHKFJG@?4Articulations?4applyExternalImpu@ 0000000180145500     CmEventProfiler.obj
 0002:00003528       ??_C@_0CA@OOGJDHEG@?4Articulations?4setupConstraints?$AA@ 0000000180145528     CmEventProfiler.obj
 0002:00003548       ??_C@_0BJ@IKFHNEPN@?4Articulations?4integrate?$AA@ 0000000180145548     CmEventProfiler.obj
 0002:00003568       ??_C@_0CD@DHMKIDHC@?4BroadPhase?4computeAABBUpdateLis@ 0000000180145568     CmEventProfiler.obj
 0002:00003590       ??_C@_0CG@IGODGJJL@?4BroadPhase?4updateAggLocalSpaceB@ 0000000180145590     CmEventProfiler.obj
 0002:000035b8       ??_C@_0BN@ODAGPJLA@?4BroadPhase?4updateShapeAABBs?$AA@ 00000001801455b8     CmEventProfiler.obj
 0002:000035d8       ??_C@_0BL@MPKGGIDP@?4BroadPhase?4updateAggAABBs?$AA@ 00000001801455d8     CmEventProfiler.obj
 0002:000035f8       ??_C@_0BN@OKBHLBNE@?4BroadPhase?4updateBroadphase?$AA@ 00000001801455f8     CmEventProfiler.obj
 0002:00003618       ??_C@_0BG@HNFCKPFC@?4BroadPhase?4SapUpdate?$AA@ 0000000180145618     CmEventProfiler.obj
 0002:00003630       ??_C@_0BK@NAJKDGHG@?4BroadPhase?4SapPostUpdate?$AA@ 0000000180145630     CmEventProfiler.obj
 0002:00003650       ??_C@_0BJ@LBAKENLA@?4BroadPhase?4SapUpdateSPU?$AA@ 0000000180145650     CmEventProfiler.obj
 0002:00003670       ??_C@_0BN@LLHCNIPA@?4BroadPhase?4SapPostUpdateSPU?$AA@ 0000000180145670     CmEventProfiler.obj
 0002:00003690       ??_C@_0BG@GDPMCDJ@?4BroadPhase?4MBPUpdate?$AA@ 0000000180145690     CmEventProfiler.obj
 0002:000036a8       ??_C@_0BK@GLDGKDFJ@?4BroadPhase?4MBPPostUpdate?$AA@ 00000001801456a8     CmEventProfiler.obj
 0002:000036c8       ??_C@_0BJ@BGNIGBAF@?4BroadPhase?4MBPUpdateSPU?$AA@ 00000001801456c8     CmEventProfiler.obj
 0002:000036e8       ??_C@_0BN@FLDFEIAK@?4BroadPhase?4MBPPostUpdateSPU?$AA@ 00000001801456e8     CmEventProfiler.obj
 0002:00003708       ??_C@_0BN@EMEDBPE@?4BroadPhase?4processBPResults?$AA@ 0000000180145708     CmEventProfiler.obj
 0002:00003728       ??_C@_0CE@DNLACEDP@?4BroadPhase?4updateLazyAggShapeAA@ 0000000180145728     CmEventProfiler.obj
 0002:00003750       ??_C@_0CE@MJIPFNHP@?4BroadPhase?4computeAggAggShapePa@ 0000000180145750     CmEventProfiler.obj
 0002:00003778       ??_C@_0BD@EMBKOIOE@?4BroadPhase?4finish?$AA@ 0000000180145778     CmEventProfiler.obj
 0002:00003790       ??_C@_0BI@DAOKOBAA@?4IslandGen?4resizeArrays?$AA@ 0000000180145790     CmEventProfiler.obj
 0002:000037a8       ??_C@_0BP@HCJOIOMO@?4IslandGen?4resizeForKinematics?$AA@ 00000001801457a8     CmEventProfiler.obj
 0002:000037c8       ??_C@_0BN@DDPLMBBJ@?4IslandGen?4cleanupEdgeEvents?$AA@ 00000001801457c8     CmEventProfiler.obj
 0002:000037e8       ??_C@_0BI@EOIJAKEO@?4IslandGen?4emptyIslands?$AA@ 00000001801457e8     CmEventProfiler.obj
 0002:00003800       ??_C@_0BH@MHLIJJPL@?4IslandGen?4joinedEdges?$AA@ 0000000180145800     CmEventProfiler.obj
 0002:00003818       ??_C@_0BI@OIACCHDK@?4IslandGen?4createdNodes?$AA@ 0000000180145818     CmEventProfiler.obj
 0002:00003830       ??_C@_0CD@NMJNDKBO@?4IslandGen?4duplicateKinematicNod@ 0000000180145830     CmEventProfiler.obj
 0002:00003858       ??_C@_0BN@CFEOLCAH@?4IslandGen?4brokenEdgeIslands?$AA@ 0000000180145858     CmEventProfiler.obj
 0002:00003878       ??_C@_0CC@CMMPHDOH@?4IslandGen?4processSleepingIsland@ 0000000180145878     CmEventProfiler.obj
 0002:000038a0       ??_C@_0BH@EFDLIGFG@?4IslandGen?4freeBuffers?$AA@ 00000001801458a0     CmEventProfiler.obj
 0002:000038b8       ??_C@_0BN@BNGFLIND@?4IslandGen?4deletedNodesEdges?$AA@ 00000001801458b8     CmEventProfiler.obj
 0002:000038d8       ??_C@_0BE@IKDMEHLH@?4PVD?4updateContacts?$AA@ 00000001801458d8     CmEventProfiler.obj
 0002:000038f0       ??_C@_0BJ@IIPPGIEK@?4PVD?4updateDynamicBodies?$AA@ 00000001801458f0     CmEventProfiler.obj
 0002:00003910       ??_C@_0BC@CCDNOENI@?4PVD?4updateJoints?$AA@ 0000000180145910     CmEventProfiler.obj
 0002:00003928       ??_C@_0BC@JEOJMLOK@?4PVD?4updateCloths?$AA@ 0000000180145928     CmEventProfiler.obj
 0002:00003940       ??_C@_0BE@GPNMCIEE@?4PVD?4updateSleeping?$AA@ 0000000180145940     CmEventProfiler.obj
 0002:00003958       ??_C@_0BN@CHDLNOLO@?4PVD?4updatePariclesAndFluids?$AA@ 0000000180145958     CmEventProfiler.obj
 0002:00003978       ??_C@_0BB@FDDDEOJB@?4PVD?4sceneUpdate?$AA@ 0000000180145978     CmEventProfiler.obj
 0002:00003990       ??_C@_0BH@IIFBHCLD@?4PVD?4createPVDInstance?$AA@ 0000000180145990     CmEventProfiler.obj
 0002:000039a8       ??_C@_0BI@IHPAHCC@?4PVD?4releasePVDInstance?$AA@ 00000001801459a8     CmEventProfiler.obj
 0002:000039c0       ??_C@_0BJ@PKDEPGEK@?4PVD?4updatePVDProperties?$AA@ 00000001801459c0     CmEventProfiler.obj
 0002:000039e0       ??_C@_0BD@DLOBPCIF@?4PVD?4sendPVDArrays?$AA@ 00000001801459e0     CmEventProfiler.obj
 0002:000039f8       ??_C@_0BA@PJNJNBCJ@PVD?4originShift?$AA@ 00000001801459f8     CmEventProfiler.obj
 0002:00003a08       ??_7FreeListAllocator@Cm@physx@@6B@ 0000000180145a08     CmFreeListAllocator.obj
 0002:00003a20       ??_C@_0BH@DIEJOAKE@FreeListAllocatorMutex?$AA@ 0000000180145a20     CmFreeListAllocator.obj
 0002:00003a38       ??_C@_0CJ@KFICLIBG@?4?4?2?4?4?2Common?2src?2CmFreeListAlloc@ 0000000180145a38     CmFreeListAllocator.obj
 0002:00003a68       ??_C@_0CD@HOICFALD@?$DN?$DN?$DN?$DN?$DN?$DN?$DN?$DN?$DN?$DN?$DN?$DN?$DN?$DN?$DN?$DN?$DN?$DN?$DN?$DN?$DN?$DN?$DN?$DN?$DN?$DN?$DN?$DN?$DN?$DN?$DN?$DN@ 0000000180145a68     CmFreeListAllocator.obj
 0002:00003a8c       ??_C@_05HKAKDGKI@EMPTY?$AA@ 0000000180145a8c     CmFreeListAllocator.obj
 0002:00003a98       ??_C@_0L@NIFKCPOI@Block?3?5?$CFp?6?$AA@ 0000000180145a98     CmFreeListAllocator.obj
 0002:00003aa4       ??_C@_04DHFLIKEL@LAST?$AA@ 0000000180145aa4     CmFreeListAllocator.obj
 0002:00003aac       ??_C@_05BDPGECIF@FIRST?$AA@ 0000000180145aac     CmFreeListAllocator.obj
 0002:00003ab4       ??_C@_04PCNCCNDP@USED?$AA@ 0000000180145ab4     CmFreeListAllocator.obj
 0002:00003ac0       ??_C@_0CK@DEKKEMKF@Chunk?5?$CFp?0?5size?5?$CFu?0?5prevSize?5?$CFu?0?5@ 0000000180145ac0     CmFreeListAllocator.obj
 0002:00003af0       ??_C@_0BC@PAEBNJHI@FreeListAllocator?$AA@ 0000000180145af0     CmFreeListAllocator.obj
 0002:00003b10       ??_C@_0FG@FCHINKCK@C?3?2CPSC585G3?2middleware?2PhysX?93?4@ 0000000180145b10     CmFreeListAllocator.obj
 0002:00003b68       __real@358637bd            0000000180145b68     CmMathUtils.obj
 0002:00003b6c       __real@3dcccccd            0000000180145b6c     CmMathUtils.obj
 0002:00003b70       __real@3e800000            0000000180145b70     CmMathUtils.obj
 0002:00003b74       __real@3f3504f3            0000000180145b74     CmMathUtils.obj
 0002:00003b78       __real@413e848000000000    0000000180145b78     CmMathUtils.obj
 0002:00003b80       __real@447a0000            0000000180145b80     CmMathUtils.obj
 0002:00003b90       __xmm@000000003f8000000000000000000000 0000000180145b90     CmMathUtils.obj
 0002:00003ba0       __xmm@3f800000000000000000000000000000 0000000180145ba0     CmMathUtils.obj
 0002:00003bb0       ??_C@_08MDGMHCHN@PtrTable?$AA@ 0000000180145bb0     CmPtrTable.obj
 0002:00003bbc       ??_C@_04GKJNKENE@void?$AA@ 0000000180145bbc     CmPtrTable.obj
 0002:00003bc8       ??_C@_07DFEBJDHE@mSingle?$AA@ 0000000180145bc8     CmPtrTable.obj
 0002:00003bd0       ??_C@_05NLHHBMOH@PxU16?$AA@ 0000000180145bd0     CmPtrTable.obj
 0002:00003bd8       ??_C@_06EPKHJPIM@mCount?$AA@ 0000000180145bd8     CmPtrTable.obj
 0002:00003be0       ??_C@_04DDKJGDCM@bool?$AA@ 0000000180145be0     CmPtrTable.obj
 0002:00003be8       ??_C@_0M@DAGELID@mOwnsMemory?$AA@ 0000000180145be8     CmPtrTable.obj
 0002:00003bf8       ??_C@_0M@MMPOMMLP@mBufferUsed?$AA@ 0000000180145bf8     CmPtrTable.obj
 0002:00003c04       ?sBufferSize@DebugText@Cm@physx@@2HB 0000000180145c04     CmRenderOutput.obj
 0002:00003c08       __real@3e19999a            0000000180145c08     CmRenderOutput.obj
 0002:00003c0c       __real@3eddb3d7            0000000180145c0c     CmRenderOutput.obj
 0002:00003c10       __real@40c90fdb            0000000180145c10     CmRenderOutput.obj
 0002:00003c14       __real@3d4ccccd            0000000180145c14     CmVisualization.obj
 0002:00003c18       __real@3e490fdb            0000000180145c18     CmVisualization.obj
 0002:00003c1c       __real@3e99999a            0000000180145c1c     CmVisualization.obj
 0002:00003c20       __real@3fc00000            0000000180145c20     CmVisualization.obj
 0002:00003c24       __real@40000000            0000000180145c24     CmVisualization.obj
 0002:00003c30       ?g_PXSinCoefficients0@aos@shdfnd@physx@@3UPX_VECTORF32@123@B 0000000180145c30     GuContactCapsuleMesh.obj
 0002:00003c40       ?g_PXSinCoefficients1@aos@shdfnd@physx@@3UPX_VECTORF32@123@B 0000000180145c40     GuContactCapsuleMesh.obj
 0002:00003c50       ?g_PXSinCoefficients2@aos@shdfnd@physx@@3UPX_VECTORF32@123@B 0000000180145c50     GuContactCapsuleMesh.obj
 0002:00003c60       ?g_PXCosCoefficients0@aos@shdfnd@physx@@3UPX_VECTORF32@123@B 0000000180145c60     GuContactCapsuleMesh.obj
 0002:00003c70       ?g_PXCosCoefficients1@aos@shdfnd@physx@@3UPX_VECTORF32@123@B 0000000180145c70     GuContactCapsuleMesh.obj
 0002:00003c80       ?g_PXCosCoefficients2@aos@shdfnd@physx@@3UPX_VECTORF32@123@B 0000000180145c80     GuContactCapsuleMesh.obj
 0002:00003c90       ?g_PXTanCoefficients0@aos@shdfnd@physx@@3UPX_VECTORF32@123@B 0000000180145c90     GuContactCapsuleMesh.obj
 0002:00003ca0       ?g_PXTanCoefficients1@aos@shdfnd@physx@@3UPX_VECTORF32@123@B 0000000180145ca0     GuContactCapsuleMesh.obj
 0002:00003cb0       ?g_PXTanCoefficients2@aos@shdfnd@physx@@3UPX_VECTORF32@123@B 0000000180145cb0     GuContactCapsuleMesh.obj
 0002:00003cc0       ?g_PXASinCoefficients0@aos@shdfnd@physx@@3UPX_VECTORF32@123@B 0000000180145cc0     GuContactCapsuleMesh.obj
 0002:00003cd0       ?g_PXASinCoefficients1@aos@shdfnd@physx@@3UPX_VECTORF32@123@B 0000000180145cd0     GuContactCapsuleMesh.obj
 0002:00003ce0       ?g_PXASinCoefficients2@aos@shdfnd@physx@@3UPX_VECTORF32@123@B 0000000180145ce0     GuContactCapsuleMesh.obj
 0002:00003cf0       ?g_PXATanCoefficients0@aos@shdfnd@physx@@3UPX_VECTORF32@123@B 0000000180145cf0     GuContactCapsuleMesh.obj
 0002:00003d00       ?g_PXATanCoefficients1@aos@shdfnd@physx@@3UPX_VECTORF32@123@B 0000000180145d00     GuContactCapsuleMesh.obj
 0002:00003d10       ?g_PXATanCoefficients2@aos@shdfnd@physx@@3UPX_VECTORF32@123@B 0000000180145d10     GuContactCapsuleMesh.obj
 0002:00003d20       ?g_PXSinEstCoefficients@aos@shdfnd@physx@@3UPX_VECTORF32@123@B 0000000180145d20     GuContactCapsuleMesh.obj
 0002:00003d30       ?g_PXCosEstCoefficients@aos@shdfnd@physx@@3UPX_VECTORF32@123@B 0000000180145d30     GuContactCapsuleMesh.obj
 0002:00003d40       ?g_PXTanEstCoefficients@aos@shdfnd@physx@@3UPX_VECTORF32@123@B 0000000180145d40     GuContactCapsuleMesh.obj
 0002:00003d50       ?g_PXATanEstCoefficients@aos@shdfnd@physx@@3UPX_VECTORF32@123@B 0000000180145d50     GuContactCapsuleMesh.obj
 0002:00003d60       ?g_PXASinEstCoefficients@aos@shdfnd@physx@@3UPX_VECTORF32@123@B 0000000180145d60     GuContactCapsuleMesh.obj
 0002:00003d70       ?g_PXASinEstConstants@aos@shdfnd@physx@@3UPX_VECTORF32@123@B 0000000180145d70     GuContactCapsuleMesh.obj
 0002:00003d80       ?g_PXPiConstants0@aos@shdfnd@physx@@3UPX_VECTORF32@123@B 0000000180145d80     GuContactCapsuleMesh.obj
 0002:00003d90       ?g_PXReciprocalTwoPi@aos@shdfnd@physx@@3UPX_VECTORF32@123@B 0000000180145d90     GuContactCapsuleMesh.obj
 0002:00003da0       ?g_PXTwoPi@aos@shdfnd@physx@@3UPX_VECTORF32@123@B 0000000180145da0     GuContactCapsuleMesh.obj
 0002:00003dc0       ??_C@_06EJKDJEDO@PxBase?$AA@ 0000000180145dc0     GuContactCapsuleMesh.obj
 0002:00003dc8       ??_C@_0P@GGNFNHKF@PxTriangleMesh?$AA@ 0000000180145dc8     GuContactCapsuleMesh.obj
 0002:00003dd8       ??_C@_0O@PBAKPCEC@PxHeightField?$AA@ 0000000180145dd8     GuContactCapsuleMesh.obj
 0002:00003de8       ??_7PxBase@physx@@6B@      0000000180145de8     GuContactCapsuleMesh.obj
 0002:00003e10       ??_C@_0FJ@FBPBGKIM@C?3?2CPSC585G3?2middleware?2PhysX?93?4@ 0000000180145e10     GuContactCapsuleMesh.obj
 0002:00003e70       ??_7?$MeshHitCallback@UPxRaycastHit@physx@@@Gu@physx@@6B@ 0000000180145e70     GuContactCapsuleMesh.obj
 0002:00003e80       ??_7CapsuleMeshContactGenerationCallback@?A0x00b53478@@6B@ 0000000180145e80     GuContactCapsuleMesh.obj
 0002:00003e90       ??_7?$EntityReport@I@Gu@physx@@6B@ 0000000180145e90     GuContactCapsuleMesh.obj
 0002:00003ea0       ??_7CapsuleHeightfieldContactGenerationCallback@?A0x00b53478@@6B@ 0000000180145ea0     GuContactCapsuleMesh.obj
 0002:00003eb0       __real@358637be            0000000180145eb0     GuContactCapsuleMesh.obj
 0002:00003eb4       __real@3a83126f            0000000180145eb4     GuContactCapsuleMesh.obj
 0002:00003eb8       __real@3c23d70a            0000000180145eb8     GuContactCapsuleMesh.obj
 0002:00003ebc       __real@3eaaaaab            0000000180145ebc     GuContactCapsuleMesh.obj
 0002:00003ec0       __real@3eb0c6f7a0b5ed8d    0000000180145ec0     GuContactCapsuleMesh.obj
 0002:00003ec8       __real@3f7fbe77            0000000180145ec8     GuContactCapsuleMesh.obj
 0002:00003ecc       __real@7f7fffff            0000000180145ecc     GuContactCapsuleMesh.obj
 0002:00003ed0       __real@ba83126f            0000000180145ed0     GuContactCapsuleMesh.obj
 0002:00003ee0       __xmm@0000000000000000000000003f800000 0000000180145ee0     GuContactCapsuleMesh.obj
 0002:00003ef0       __xmm@00000000000000003f80000000000000 0000000180145ef0     GuContactCapsuleMesh.obj
 0002:00003f00       __xmm@00000000000000003f8000003f800000 0000000180145f00     GuContactCapsuleMesh.obj
 0002:00003f10       __xmm@000000003a83126f3a83126f3a83126f 0000000180145f10     GuContactCapsuleMesh.obj
 0002:00003f20       __xmm@00000000ba83126fba83126fba83126f 0000000180145f20     GuContactCapsuleMesh.obj
 0002:00003f40       ??_7ConvexMeshContactGenerationCallback@@6B@ 0000000180145f40     GuContactConvexMesh.obj
 0002:00003f50       ??_7ConvexVsHeightfieldContactGenerationCallback@?A0xddd4b6be@@6B@ 0000000180145f50     GuContactConvexMesh.obj
 0002:00003f60       __real@38d1b717            0000000180145f60     GuContactConvexMesh.obj
 0002:00003f80       __real@3c8efa35            0000000180145f80     GuContactPolygonPolygon.obj
 0002:00003f88       __real@3e7ad7f29abcaf48    0000000180145f88     GuContactPolygonPolygon.obj
 0002:00003f90       __real@3ec90fdb            0000000180145f90     GuContactPolygonPolygon.obj
 0002:00003f94       __real@b58637bd            0000000180145f94     GuContactPolygonPolygon.obj
 0002:00003f98       __real@ff7fffff            0000000180145f98     GuContactPolygonPolygon.obj
 0002:00003fb0       ??_7SphereMeshContactGenerationCallback_NoScale@?A0x276e9aaa@@6B@ 0000000180145fb0     GuContactSphereMesh.obj
 0002:00003fc0       ??_7SphereMeshContactGenerationCallback_Scale@?A0x276e9aaa@@6B@ 0000000180145fc0     GuContactSphereMesh.obj
 0002:00003fd0       ??_7SphereHeightfieldContactGenerationCallback@?A0x276e9aaa@@6B@ 0000000180145fd0     GuContactSphereMesh.obj
 0002:00003fe0       ??_C@_0FF@GPAKEMGM@C?3?2CPSC585G3?2middleware?2PhysX?93?4@ 0000000180145fe0     GuContactSphereMesh.obj
 0002:00004050       ??_C@_0CP@JIINMLKM@?4?4?2?4?4?2GeomUtils?2src?2convex?2GuBig@ 0000000180146050     GuBigConvexData.obj
 0002:00004090       ??_C@_0N@CDGINLLF@PxConvexMesh?$AA@ 0000000180146090     GuConvexMesh.obj
 0002:000040a0       ??_7PxConvexMesh@physx@@6B@ 00000001801460a0     GuConvexMesh.obj
 0002:00004108       ??_7RefCountable@Cm@physx@@6B@ 0000000180146108     GuConvexMesh.obj
 0002:00004118       ??_7ConvexMesh@Gu@physx@@6BPxConvexMesh@2@@ 0000000180146118     GuConvexMesh.obj
 0002:00004190       ??_7ConvexMesh@Gu@physx@@6BRefCountable@Cm@2@@ 0000000180146190     GuConvexMesh.obj
 0002:000041a0       ??_7GuMeshFactory@physx@@6B@ 00000001801461a0     GuConvexMesh.obj
 0002:000041a8       ??_C@_0CM@DABFPBIC@?4?4?2?4?4?2GeomUtils?2src?2convex?2GuCon@ 00000001801461a8     GuConvexMesh.obj
 0002:000041e0       ??_C@_0JL@ECHHLPCO@Loading?5convex?5mesh?5failed?3?5Depr@ 00000001801461e0     GuConvexMesh.obj
 0002:00004280       ??_C@_0DD@GDAMDLJL@Gu?3?3ConvexMesh?3?3release?3?5double?5@ 0000000180146280     GuConvexMesh.obj
 0002:000042d0       __xmm@000000000000000000000000ffffffff 00000001801462d0     GuConvexSupportTable.obj
 0002:000042e0       __xmm@0000000000000000ffffffff00000000 00000001801462e0     GuConvexSupportTable.obj
 0002:000042f0       __xmm@0000000000000000ffffffffffffffff 00000001801462f0     GuConvexSupportTable.obj
 0002:00004300       __xmm@00000000ffffffff0000000000000000 0000000180146300     GuConvexSupportTable.obj
 0002:00004310       __xmm@00000000ffffffff00000000ffffffff 0000000180146310     GuConvexSupportTable.obj
 0002:00004320       __xmm@00000000ffffffffffffffff00000000 0000000180146320     GuConvexSupportTable.obj
 0002:00004330       __xmm@00000000ffffffffffffffffffffffff 0000000180146330     GuConvexSupportTable.obj
 0002:00004390       __xmm@ffffffffffffffffffffffffffffffff 0000000180146390     GuDistancePointTriangle.obj
 0002:000043c0       __real@34000000            00000001801463c0     GuDistanceSegmentSegment.obj
 0002:000043e0       __real@2b8cbccc            00000001801463e0     GuDistanceSegmentTriangle.obj
 0002:00004400       ??_7PxTriangleMesh@physx@@6B@ 0000000180146400     GuSweepBoxBox.obj
 0002:00004470       ??_7TriangleMesh@Gu@physx@@6BPxTriangleMesh@2@@ 0000000180146470     GuSweepBoxBox.obj
 0002:000044f0       ??_7TriangleMesh@Gu@physx@@6BRefCountable@Cm@2@@ 00000001801464f0     GuSweepBoxBox.obj
 0002:00004510       __real@b727c5ac            0000000180146510     GuSweepBoxSphere.obj
 0002:00004530       __real@3727c5ac            0000000180146530     GuSweepBoxTriangle_FeatureBased.obj
 0002:00004534       __real@3ca3d70a            0000000180146534     GuSweepBoxTriangle_FeatureBased.obj
 0002:00004560       ??_C@_0DA@IFKKGIIO@?4?4?2?4?4?2GeomUtils?2src?2sweep?2GuSwee@ 0000000180146560     GuSweepCapsuleBox.obj
 0002:000045b0       __real@3f7fff58            00000001801465b0     GuSweepCapsuleTriangle.obj
 0002:000045d0       __real@40800000            00000001801465d0     GuSweepSphereSphere.obj
 0002:000045f0       __real@41200000            00000001801465f0     GuSweepSphereTriangle.obj
 0002:00004610       __real@3eaaaa9f            0000000180146610     GuSweepTriangleUtils.obj
 0002:00004640       ?absMask@?1??FAbs@aos@shdfnd@physx@@YA?AT__m128@@T5@@Z@4QBIB 0000000180146640     GuEPA.obj
 0002:00004650       __real@3f5db3d7            0000000180146650     GuEPA.obj
 0002:00004654       __real@bf000000            0000000180146654     GuEPA.obj
 0002:00004670       ??_7EPASupportMapPair@Gu@physx@@6B@ 0000000180146670     GuEPAPenetrationWrapper.obj
 0002:00004690       ??_7?$EPASupportMapPairLocalImpl@VCapsuleV@Gu@physx@@VBoxV@23@@Gu@physx@@6B@ 0000000180146690     GuEPAPenetrationWrapper.obj
 0002:000046b0       ??_7?$EPASupportMapPairLocalImpl@VCapsuleV@Gu@physx@@VConvexHullV@23@@Gu@physx@@6B@ 00000001801466b0     GuEPAPenetrationWrapper.obj
 0002:000046d0       ??_7?$EPASupportMapPairLocalImpl@VTriangleV@Gu@physx@@VBoxV@23@@Gu@physx@@6B@ 00000001801466d0     GuEPAPenetrationWrapper.obj
 0002:000046f0       ??_7?$EPASupportMapPairLocalImpl@VTriangleV@Gu@physx@@VConvexHullV@23@@Gu@physx@@6B@ 00000001801466f0     GuEPAPenetrationWrapper.obj
 0002:00004710       ??_7?$EPASupportMapPairRelativeImpl@VBoxV@Gu@physx@@V123@@Gu@physx@@6B@ 0000000180146710     GuEPAPenetrationWrapper.obj
 0002:00004730       ??_7?$EPASupportMapPairRelativeImpl@VBoxV@Gu@physx@@VConvexHullV@23@@Gu@physx@@6B@ 0000000180146730     GuEPAPenetrationWrapper.obj
 0002:00004750       ??_7?$EPASupportMapPairRelativeImpl@VConvexHullV@Gu@physx@@V123@@Gu@physx@@6B@ 0000000180146750     GuEPAPenetrationWrapper.obj
 0002:00004770       ??_7?$EPASupportMapPairRelativeImpl@VConvexHullNoScaleV@Gu@physx@@V123@@Gu@physx@@6B@ 0000000180146770     GuEPAPenetrationWrapper.obj
 0002:00004790       ??_7?$EPASupportMapPairRelativeImpl@VConvexHullNoScaleV@Gu@physx@@VConvexHullV@23@@Gu@physx@@6B@ 0000000180146790     GuEPAPenetrationWrapper.obj
 0002:000047b0       ??_7?$EPASupportMapPairRelativeImpl@VConvexHullV@Gu@physx@@VConvexHullNoScaleV@23@@Gu@physx@@6B@ 00000001801467b0     GuEPAPenetrationWrapper.obj
 0002:000047e0       __real@396bedfa            00000001801467e0     GuGJKFallBack.obj
 0002:00004800       __real@39d1b717            0000000180146800     GuGJKPenetrationWrapper.obj
 0002:00004830       __real@42c80000            0000000180146830     GuGJKSimplexTesselation.obj
 0002:00004834       __real@461c4000            0000000180146834     GuGJKSimplexTesselation.obj
 0002:00004850       ??_7SupportMap@Gu@physx@@6B@ 0000000180146850     GuGJKWrapper.obj
 0002:00004870       ??_7?$SupportMapRelativeImpl@VBoxV@Gu@physx@@@Gu@physx@@6B@ 0000000180146870     GuGJKWrapper.obj
 0002:00004890       ??_7?$SupportMapLocalImpl@VConvexHullV@Gu@physx@@@Gu@physx@@6B@ 0000000180146890     GuGJKWrapper.obj
 0002:000048b0       ??_7?$SupportMapRelativeImpl@VConvexHullV@Gu@physx@@@Gu@physx@@6B@ 00000001801468b0     GuGJKWrapper.obj
 0002:000048d0       ??_7?$EPASupportMapPairLocalImpl@VTriangleV@Gu@physx@@VCapsuleV@23@@Gu@physx@@6B@ 00000001801468d0     GuGJKWrapper.obj
 0002:000048f0       ??_7?$EPASupportMapPairRelativeImpl@VTriangleV@Gu@physx@@VBoxV@23@@Gu@physx@@6B@ 00000001801468f0     GuGJKWrapper.obj
 0002:00004910       ??_7?$EPASupportMapPairRelativeImpl@VTriangleV@Gu@physx@@VCapsuleV@23@@Gu@physx@@6B@ 0000000180146910     GuGJKWrapper.obj
 0002:00004930       ??_7?$EPASupportMapPairRelativeImpl@VTriangleV@Gu@physx@@VConvexHullV@23@@Gu@physx@@6B@ 0000000180146930     GuGJKWrapper.obj
 0002:00004950       ??_7?$EPASupportMapPairRelativeImpl@VCapsuleV@Gu@physx@@V123@@Gu@physx@@6B@ 0000000180146950     GuGJKWrapper.obj
 0002:00004970       ??_7?$EPASupportMapPairRelativeImpl@VCapsuleV@Gu@physx@@VBoxV@23@@Gu@physx@@6B@ 0000000180146970     GuGJKWrapper.obj
 0002:00004990       ??_7?$EPASupportMapPairRelativeImpl@VCapsuleV@Gu@physx@@VConvexHullV@23@@Gu@physx@@6B@ 0000000180146990     GuGJKWrapper.obj
 0002:000049c0       __xmm@ffffffffffffffffffffffff00000000 00000001801469c0     GuVecBox.obj
 0002:000049e0       __real@3089705f            00000001801469e0     GuIntersectionRayBox.obj
 0002:000049e4       __real@b4000000            00000001801469e4     GuIntersectionRayBox.obj
 0002:000049f0       __xmm@000000003089705f3089705f3089705f 00000001801469f0     GuIntersectionRayBox.obj
 0002:00004a00       __xmm@000000003f8000003f8000003f800000 0000000180146a00     GuIntersectionRayBox.obj
 0002:00004a10       __xmm@00000000400000003f80000000000000 0000000180146a10     GuIntersectionRayBox.obj
 0002:00004a20       __xmm@0000000040a000004080000040400000 0000000180146a20     GuIntersectionRayBox.obj
 0002:00004a40       __real@3f7ffffe            0000000180146a40     GuIntersectionRayCapsule.obj
 0002:00004a60       __xmm@ffffffffffffffff00000000ffffffff 0000000180146a60     GuIntersectionTriangleBox.obj
 0002:00004a70       ??_C@_0DE@DHOAGBNA@?4?4?2?4?4?2GeomUtils?2src?2mesh?2GuInter@ 0000000180146a70     GuInternalTriangleMesh.obj
 0002:00004ab0       ??_C@_0FG@PKANIOEJ@Obsolete?5cooked?5mesh?5found?4?5Mesh@ 0000000180146ab0     GuInternalTriangleMesh.obj
 0002:00004b08       ??_C@_0BP@CDOKDACA@RTree?5binary?5image?5load?5error?4?$AA@ 0000000180146b08     GuInternalTriangleMesh.obj
 0002:00004b28       ??_C@_0CM@PCALKPID@MeshInterface?3?3SetPointers?3?5poin@ 0000000180146b28     GuMeshInterface.obj
 0002:00004b58       ??_C@_0CN@EAJLGEFM@?4?4?2?4?4?2GeomUtils?2src?2mesh?2GuMeshI@ 0000000180146b58     GuMeshInterface.obj
 0002:00004ba0       ??_7HfTrianglesEntityReport2@?A0x177607fb@@6B@ 0000000180146ba0     GuMeshQuery.obj
 0002:00004bb0       ??_C@_0FD@EHCCILIF@Adjacency?5information?5not?5create@ 0000000180146bb0     GuMeshQuery.obj
 0002:00004c08       ??_C@_0CJ@EBMNMENK@?4?4?2?4?4?2GeomUtils?2src?2mesh?2GuMeshQ@ 0000000180146c08     GuMeshQuery.obj
 0002:00004c34       __real@4cbebc20            0000000180146c34     GuMeshQuery.obj
 0002:00004c50       ??_7Callback@RTree@Gu@physx@@6B@ 0000000180146c50     GuMidphase.obj
 0002:00004c68       ??_7CallbackRaycast@RTree@Gu@physx@@6B@ 0000000180146c68     GuMidphase.obj
 0002:00004c78       ??_7?$RayRTreeCallback@$0A@$0A@@@6BCallbackRaycast@RTree@Gu@physx@@@ 0000000180146c78     GuMidphase.obj
 0002:00004c88       ??_7?$RayRTreeCallback@$0A@$0A@@@6BCallback@RTree@Gu@physx@@@ 0000000180146c88     GuMidphase.obj
 0002:00004ca0       ??_7?$RayRTreeCallback@$00$0A@@@6BCallbackRaycast@RTree@Gu@physx@@@ 0000000180146ca0     GuMidphase.obj
 0002:00004cb0       ??_7?$RayRTreeCallback@$00$0A@@@6BCallback@RTree@Gu@physx@@@ 0000000180146cb0     GuMidphase.obj
 0002:00004cc8       ??_7?$RayRTreeCallback@$0A@$00@@6BCallbackRaycast@RTree@Gu@physx@@@ 0000000180146cc8     GuMidphase.obj
 0002:00004cd8       ??_7?$RayRTreeCallback@$0A@$00@@6BCallback@RTree@Gu@physx@@@ 0000000180146cd8     GuMidphase.obj
 0002:00004cf0       ??_7?$RayRTreeCallback@$00$00@@6BCallbackRaycast@RTree@Gu@physx@@@ 0000000180146cf0     GuMidphase.obj
 0002:00004d00       ??_7?$RayRTreeCallback@$00$00@@6BCallback@RTree@Gu@physx@@@ 0000000180146d00     GuMidphase.obj
 0002:00004d20       __xmm@00000000000000007f7fffff00000000 0000000180146d20     GuMidphase.obj
 0002:00004d30       __xmm@7f7fffff000000000000000000000000 0000000180146d30     GuMidphase.obj
 0002:00004d50       ??_7ConvexVsMeshOverlapCallback@@6B@ 0000000180146d50     GuOverlapTestsMesh.obj
 0002:00004d60       ??_7?$IntersectAnyVsMeshCallback@$0A@$00@@6B@ 0000000180146d60     GuOverlapTestsMesh.obj
 0002:00004d70       ??_7?$IntersectAnyVsMeshCallback@$0A@$0A@@@6B@ 0000000180146d70     GuOverlapTestsMesh.obj
 0002:00004d80       ??_7?$IntersectAnyVsMeshCallback@$00$00@@6B@ 0000000180146d80     GuOverlapTestsMesh.obj
 0002:00004d90       ??_7?$IntersectAnyVsMeshCallback@$00$0A@@@6B@ 0000000180146d90     GuOverlapTestsMesh.obj
 0002:00004da0       ??_7?$IntersectAnyVsMeshCallback@$01$00@@6B@ 0000000180146da0     GuOverlapTestsMesh.obj
 0002:00004db0       ??_7?$IntersectAnyVsMeshCallback@$01$0A@@@6B@ 0000000180146db0     GuOverlapTestsMesh.obj
 0002:00004dc0       __real@3e4ccccd            0000000180146dc0     GuOverlapTestsMesh.obj
 0002:00004dc4       ?MN@RTreePage@Gu@physx@@2MB 0000000180146dc4     GuRTree.obj
 0002:00004dc8       ?MX@RTreePage@Gu@physx@@2MB 0000000180146dc8     GuRTree.obj
 0002:00004dd0       ??_C@_0CF@JNCLIKON@?4?4?2?4?4?2GeomUtils?2src?2mesh?2GuRTree@ 0000000180146dd0     GuRTree.obj
 0002:00004e10       __xmm@33d6bf9533d6bf9533d6bf9533d6bf95 0000000180146e10     GuRTreeQueries.obj
 0002:00004e20       __xmm@358637bd358637bd358637bd358637bd 0000000180146e20     GuRTreeQueries.obj
 0002:00004e30       __xmm@3f0000003f0000003f0000003f000000 0000000180146e30     GuRTreeQueries.obj
 0002:00004e50       ??_7SweepCapsuleCallback@@6B@ 0000000180146e50     GuSweepsMesh.obj
 0002:00004e60       ??_7SweepBoxMeshHitCallback@@6B@ 0000000180146e60     GuSweepsMesh.obj
 0002:00004e70       ??_7ConvexVsMeshSweepCallback@@6B@ 0000000180146e70     GuSweepsMesh.obj
 0002:00004e80       __real@1e3ce508            0000000180146e80     GuSweepsMesh.obj
 0002:00004e84       __real@3f8147ae            0000000180146e84     GuSweepsMesh.obj
 0002:00004e88       ??_C@_0DF@DNLKAHAL@Gu?3?3TriangleMesh?3?3release?3?5doubl@ 0000000180146e88     GuTriangleMesh.obj
 0002:00004ec0       ??_C@_0CM@OEFFOGD@?4?4?2?4?4?2GeomUtils?2src?2mesh?2GuTrian@ 0000000180146ec0     GuTriangleMesh.obj
 0002:00004ef0       ??_C@_0GP@NHELMDAL@Loading?5triangle?5mesh?5failed?3?5De@ 0000000180146ef0     GuTriangleMesh.obj
 0002:00004f60       __xmm@880000888800880088880000ff808080 0000000180146f60     GuTriangleMesh.obj
 0002:00004f70       __xmm@ff0000ffff00ff00ffff0000ff000000 0000000180146f70     GuTriangleMesh.obj
 0002:00004f80       __xmm@ffffffffff00ffffffff00ffffffff00 0000000180146f80     GuTriangleMesh.obj
 0002:00004f90       ??_7PxHeightField@physx@@6B@ 0000000180146f90     GuHeightField.obj
 0002:00005020       ??_7HeightField@Gu@physx@@6BPxHeightField@2@@ 0000000180147020     GuHeightField.obj
 0002:000050c0       ??_7HeightField@Gu@physx@@6BRefCountable@Cm@2@@ 00000001801470c0     GuHeightField.obj
 0002:000050d0       ??_C@_0DL@DNGFPCEG@Gu?3?3HeightField?3?3onRefCountZero?3@ 00000001801470d0     GuHeightField.obj
 0002:00005110       ??_C@_0CJ@ECCFDMLB@?4?4?2?4?4?2GeomUtils?2src?2hf?2GuHeightF@ 0000000180147110     GuHeightField.obj
 0002:00005140       ??_C@_0CI@DMKEKGNK@Gu?3?3HeightField?3?3load?3?5PX_ALLOC?5@ 0000000180147140     GuHeightField.obj
 0002:00005170       ??_C@_0EP@JNKBOBHE@C?3?2CPSC585G3?2middleware?2PhysX?93?4@ 0000000180147170     GuHeightField.obj
 0002:000051f8       __real@2edbe6ff            00000001801471f8     GuOverlapTestsHF.obj
 0002:000051fc       __real@33d6bf95            00000001801471fc     GuOverlapTestsHF.obj
 0002:00005200       __real@80000000            0000000180147200     GuOverlapTestsHF.obj
 0002:00005204       __real@b8d1b717            0000000180147204     GuOverlapTestsHF.obj
 0002:00005220       ??_7CapsuleTraceSegmentReport@@6B@ 0000000180147220     GuSweepsHF.obj
 0002:00005230       ??_7ConvexVsHeightfieldSweep@@6B@ 0000000180147230     GuSweepsHF.obj
 0002:00005240       ??_7BoxTraceSegmentReport@@6B@ 0000000180147240     GuSweepsHF.obj
 0002:00005250       __real@3f800347            0000000180147250     GuSweepsHF.obj
 0002:00005270       __real@3f4ccccd            0000000180147270     GuPCMContactBoxBox.obj
 0002:00005280       __xmm@00000000358637bd358637bd358637bd 0000000180147280     GuPCMContactBoxBox.obj
 0002:00005290       __xmm@ffffffff00000000ffffffffffffffff 0000000180147290     GuPCMContactBoxBox.obj
 0002:000052b0       ??_7SupportLocal@Gu@physx@@6B@ 00000001801472b0     GuPCMContactBoxConvex.obj
 0002:000052d0       ??_7?$SupportLocalImpl@VBoxV@Gu@physx@@@Gu@physx@@6B@ 00000001801472d0     GuPCMContactBoxConvex.obj
 0002:000052f0       ??_7?$SupportLocalImpl@VConvexHullV@Gu@physx@@@Gu@physx@@6B@ 00000001801472f0     GuPCMContactBoxConvex.obj
 0002:00005310       ??_7?$SupportLocalImpl@VConvexHullNoScaleV@Gu@physx@@@Gu@physx@@6B@ 0000000180147310     GuPCMContactBoxConvex.obj
 0002:00005350       __real@3fa00000            0000000180147350     GuPCMContactCapsuleConvex.obj
 0002:00005370       ??_7?$PCMHeightfieldContactGenerationCallback@UPCMCapsuleVsHeightfieldContactGenerationCallback@physx@@@Gu@physx@@6B@ 0000000180147370     GuPCMContactCapsuleHeightField.obj
 0002:00005380       ??_7PCMCapsuleVsHeightfieldContactGenerationCallback@physx@@6B@ 0000000180147380     GuPCMContactCapsuleHeightField.obj
 0002:00005390       __real@3f7ef9db            0000000180147390     GuPCMContactCapsuleHeightField.obj
 0002:00005394       __real@3f7f3b64            0000000180147394     GuPCMContactCapsuleHeightField.obj
 0002:00005398       __real@3f7ff2e5            0000000180147398     GuPCMContactCapsuleHeightField.obj
 0002:000053b0       ??_7?$PCMMeshContactGenerationCallback@UPCMCapsuleVsMeshContactGenerationCallback@physx@@@Gu@physx@@6B@ 00000001801473b0     GuPCMContactCapsuleMesh.obj
 0002:000053c0       ??_7PCMCapsuleVsMeshContactGenerationCallback@physx@@6B@ 00000001801473c0     GuPCMContactCapsuleMesh.obj
 0002:000053e0       ??_7?$SupportLocalImpl@VTriangleV@Gu@physx@@@Gu@physx@@6B@ 00000001801473e0     GuPCMContactConvexCommon.obj
 0002:00005420       ??_7?$PCMHeightfieldContactGenerationCallback@UPCMConvexVsHeightfieldContactGenerationCallback@physx@@@Gu@physx@@6B@ 0000000180147420     GuPCMContactConvexHeightField.obj
 0002:00005430       ??_7PCMConvexVsHeightfieldContactGenerationCallback@physx@@6B@ 0000000180147430     GuPCMContactConvexHeightField.obj
 0002:00005440       ??_7?$SupportLocalShrunkImpl@VConvexHullNoScaleV@Gu@physx@@VShrunkConvexHullNoScaleV@23@@Gu@physx@@6B@ 0000000180147440     GuPCMContactConvexHeightField.obj
 0002:00005460       ??_7?$SupportLocalShrunkImpl@VConvexHullV@Gu@physx@@VShrunkConvexHullV@23@@Gu@physx@@6B@ 0000000180147460     GuPCMContactConvexHeightField.obj
 0002:00005480       ??_7?$SupportLocalShrunkImpl@VBoxV@Gu@physx@@VShrunkBoxV@23@@Gu@physx@@6B@ 0000000180147480     GuPCMContactConvexHeightField.obj
 0002:000054a0       __real@3f19999a            00000001801474a0     GuPCMContactConvexHeightField.obj
 0002:000054c0       ??_7?$PCMMeshContactGenerationCallback@UPCMConvexVsMeshContactGenerationCallback@physx@@@Gu@physx@@6B@ 00000001801474c0     GuPCMContactConvexMesh.obj
 0002:000054d0       ??_7PCMConvexVsMeshContactGenerationCallback@physx@@6B@ 00000001801474d0     GuPCMContactConvexMesh.obj
 0002:00005500       __real@3ba3d70a            0000000180147500     GuPCMContactGenSphereCapsule.obj
 0002:00005550       ??_7?$EPASupportMapPairLocalImpl@VCapsuleV@Gu@physx@@VConvexHullNoScaleV@23@@Gu@physx@@6B@ 0000000180147550     GuPCMContactSphereConvex.obj
 0002:00005580       ??_7?$PCMHeightfieldContactGenerationCallback@UPCMSphereVsHeightfieldContactGenerationCallback@physx@@@Gu@physx@@6B@ 0000000180147580     GuPCMContactSphereHeightField.obj
 0002:00005590       ??_7PCMSphereVsHeightfieldContactGenerationCallback@physx@@6B@ 0000000180147590     GuPCMContactSphereHeightField.obj
 0002:000055b0       ??_7?$PCMMeshContactGenerationCallback@UPCMSphereVsMeshContactGenerationCallback@physx@@@Gu@physx@@6B@ 00000001801475b0     GuPCMContactSphereMesh.obj
 0002:000055c0       ??_7PCMSphereVsMeshContactGenerationCallback@physx@@6B@ 00000001801475c0     GuPCMContactSphereMesh.obj
 0002:000055e0       ?gPCMBoxPolygonData@Gu@physx@@3QBEB 00000001801475e0     GuPCMShapeConvex.obj
 0002:00005610       __real@3f350481            0000000180147610     GuPCMTriangleContactGen.obj
 0002:00005620       ?invalidateThresholds@Gu@physx@@3QBMB 0000000180147620     GuPersistentContactManifold.obj
 0002:00005638       ?invalidateQuatThresholds@Gu@physx@@3QBMB 0000000180147638     GuPersistentContactManifold.obj
 0002:00005650       ?invalidateThresholds2@Gu@physx@@3QBMB 0000000180147650     GuPersistentContactManifold.obj
 0002:00005660       ?invalidateQuatThresholds2@Gu@physx@@3QBMB 0000000180147660     GuPersistentContactManifold.obj
 0002:00005680       __xmm@000000003f8000003f80000000000000 0000000180147680     GuPersistentContactManifold.obj
 0002:00005690       __xmm@00000000bf8000003f80000000000000 0000000180147690     GuPersistentContactManifold.obj
 0002:000056b0       ??_C@_0CF@CNOODDND@?4?4?2?4?4?2GeomUtils?2src?2GuBoxPruning@ 00000001801476b0     GuBoxPruning.obj
 0002:00005700       ??_7LocalReport@?1??sweepCCTBox_HeightFieldGeom@@YA_NAEBVPxGeometry@physx@@AEBVPxTransform@3@AEBVBox@Gu@3@AEBVPxVec3@3@MAEAUPxSweepHit@3@V?$PxFlags@W4Enum@PxHitFlag@physx@@G@3@M@Z@6B@ 0000000180147700     GuCCTSweepTests.obj
 0002:00005710       ??_C@_0CO@ONBCOPNE@?4?4?2?4?4?2GeomUtils?2src?2GuContainerM@ 0000000180147710     GuContainerMemoryMgmt.obj
 0002:00005740       ??_C@_0CA@DBEAEKMC@?4?4?2?4?4?2GeomUtils?2src?2GuDebug?4cpp?$AA@ 0000000180147740     GuDebug.obj
 0002:00005760       __real@41a00000            0000000180147760     GuDebug.obj
 0002:00005780       ??_C@_0FJ@PLGEHANC@c?3?2cpsc585g3?2middleware?2physx?93?4@ 0000000180147780     GuGeometryQuery.obj
 0002:000057f0       ??_C@_0CG@GABGHALN@?4?4?2?4?4?2GeomUtils?2src?2GuMeshFactor@ 00000001801477f0     GuMeshFactory.obj
 0002:00005818       ??_C@_07GFCEJNGM@Valency?$AA@ 0000000180147818     GuMetaData.obj
 0002:00005820       ??_C@_07NHGKEEIN@mOffset?$AA@ 0000000180147820     GuMetaData.obj
 0002:00005828       ??_C@_0BB@BAGHBMNJ@BigConvexRawData?$AA@ 0000000180147828     GuMetaData.obj
 0002:00005840       ??_C@_07PBDEJAAC@mSubdiv?$AA@ 0000000180147840     GuMetaData.obj
 0002:00005848       ??_C@_0L@HNPACPGH@mNbSamples?$AA@ 0000000180147848     GuMetaData.obj
 0002:00005854       ??_C@_04NCKNBPPK@PxU8?$AA@ 0000000180147854     GuMetaData.obj
 0002:00005860       ??_C@_08DEPEKJNI@mSamples?$AA@ 0000000180147860     GuMetaData.obj
 0002:0000586c       ??_C@_05LMJPANIN@PxU32?$AA@ 000000018014786c     GuMetaData.obj
 0002:00005878       ??_C@_08IJDNJBMI@mNbVerts?$AA@ 0000000180147878     GuMetaData.obj
 0002:00005888       ??_C@_0M@MMKMIJAF@mNbAdjVerts?$AA@ 0000000180147888     GuMetaData.obj
 0002:00005898       ??_C@_0L@EOKMNILC@mValencies?$AA@ 0000000180147898     GuMetaData.obj
 0002:000058a8       ??_C@_0P@DLGEAMHJ@mAdjacentVerts?$AA@ 00000001801478a8     GuMetaData.obj
 0002:000058b8       ??_C@_0O@PFOPBKAM@BigConvexData?$AA@ 00000001801478b8     GuMetaData.obj
 0002:000058c8       ??_C@_05PLKALGFN@mData?$AA@ 00000001801478c8     GuMetaData.obj
 0002:000058d0       ??_C@_08PEMCLHEM@mVBuffer?$AA@ 00000001801478d0     GuMetaData.obj
 0002:000058e0       ??_C@_09FBMAGD@Alignment?$AA@ 00000001801478e0     GuMetaData.obj
 0002:000058f0       ??_C@_0BE@KFHIBEEA@InternalObjectsData?$AA@ 00000001801478f0     GuMetaData.obj
 0002:00005904       ??_C@_06GIEBFILM@PxReal?$AA@ 0000000180147904     GuMetaData.obj
 0002:00005910       ??_C@_07NKGFFIBH@mRadius?$AA@ 0000000180147910     GuMetaData.obj
 0002:00005918       ??_C@_08EHFCACAE@mExtents?$AA@ 0000000180147918     GuMetaData.obj
 0002:00005928       ??_C@_0BA@LFMGGCBK@HullPolygonData?$AA@ 0000000180147928     GuMetaData.obj
 0002:00005938       ??_C@_06BOHHGLB@mPlane?$AA@ 0000000180147938     GuMetaData.obj
 0002:00005940       ??_C@_06EHMLHGLN@mVRef8?$AA@ 0000000180147940     GuMetaData.obj
 0002:00005948       ??_C@_09BAHHHINI@mMinIndex?$AA@ 0000000180147948     GuMetaData.obj
 0002:00005958       ??_C@_0P@GBLBPIPB@ConvexHullData?$AA@ 0000000180147958     GuMetaData.obj
 0002:00005968       ??_C@_09JDCJAPKD@PxBounds3?$AA@ 0000000180147968     GuMetaData.obj
 0002:00005974       ??_C@_05NDNHIFA@mAABB?$AA@ 0000000180147974     GuMetaData.obj
 0002:0000597c       ??_C@_06KDGGGLIJ@PxVec3?$AA@ 000000018014797c     GuMetaData.obj
 0002:00005988       ??_C@_0O@LNOGEMJI@mCenterOfMass?$AA@ 0000000180147988     GuMetaData.obj
 0002:00005998       ??_C@_09CNMCBBKH@mPolygons?$AA@ 0000000180147998     GuMetaData.obj
 0002:000059a8       ??_C@_0BC@KKPDCFJC@mBigConvexRawData?$AA@ 00000001801479a8     GuMetaData.obj
 0002:000059c0       ??_C@_08ELDMKGKH@mNbEdges?$AA@ 00000001801479c0     GuMetaData.obj
 0002:000059d0       ??_C@_0BA@CGLOHBAC@mNbHullVertices?$AA@ 00000001801479d0     GuMetaData.obj
 0002:000059e0       ??_C@_0M@HGFFLLDM@mNbPolygons?$AA@ 00000001801479e0     GuMetaData.obj
 0002:000059f0       ??_C@_09BHJEMDGO@mInternal?$AA@ 00000001801479f0     GuMetaData.obj
 0002:00005a00       ??_C@_0L@GMFHOMKA@ConvexMesh?$AA@ 0000000180147a00     GuMetaData.obj
 0002:00005a10       ??_C@_0N@KECKKFLK@RefCountable?$AA@ 0000000180147a10     GuMetaData.obj
 0002:00005a20       ??_C@_09ILEBDLJH@mHullData?$AA@ 0000000180147a20     GuMetaData.obj
 0002:00005a2c       ??_C@_03DKDIKGNC@mNb?$AA@  0000000180147a2c     GuMetaData.obj
 0002:00005a30       ??_C@_0P@ENLHFHMD@mBigConvexData?$AA@ 0000000180147a30     GuMetaData.obj
 0002:00005a40       ??_C@_05ILALLCHK@mMass?$AA@ 0000000180147a40     GuMetaData.obj
 0002:00005a48       ??_C@_07DBPDADGB@PxMat33?$AA@ 0000000180147a48     GuMetaData.obj
 0002:00005a50       ??_C@_08FNBHNDBI@mInertia?$AA@ 0000000180147a50     GuMetaData.obj
 0002:00005a60       ??_C@_0O@FCKNKLMJ@GuMeshFactory?$AA@ 0000000180147a60     GuMetaData.obj
 0002:00005a70       ??_C@_0N@EGBCLMAK@mMeshFactory?$AA@ 0000000180147a70     GuMetaData.obj
 0002:00005a80       ??_C@_0BE@CJJAMAMK@PxHeightFieldSample?$AA@ 0000000180147a80     GuMetaData.obj
 0002:00005a94       ??_C@_05MBLIPEMA@PxI16?$AA@ 0000000180147a94     GuMetaData.obj
 0002:00005a9c       ??_C@_06LNLHEAAG@height?$AA@ 0000000180147a9c     GuMetaData.obj
 0002:00005aa8       ??_C@_0N@HHDGHJN@PxBitAndByte?$AA@ 0000000180147aa8     GuMetaData.obj
 0002:00005ab8       ??_C@_0P@MBBMLBO@materialIndex0?$AA@ 0000000180147ab8     GuMetaData.obj
 0002:00005ac8       ??_C@_0P@BFAKPKFP@materialIndex1?$AA@ 0000000180147ac8     GuMetaData.obj
 0002:00005ad8       ??_C@_0BD@EBLPJEOE@PxHeightFieldFlags?$AA@ 0000000180147ad8     GuMetaData.obj
 0002:00005af0       ??_C@_0BK@FNNCFFCN@PxHeightFieldFormat?3?3Enum?$AA@ 0000000180147af0     GuMetaData.obj
 0002:00005b10       ??_C@_0BA@CLNFMAAA@HeightFieldData?$AA@ 0000000180147b10     GuMetaData.obj
 0002:00005b20       ??_C@_04IMCGAIPI@rows?$AA@ 0000000180147b20     GuMetaData.obj
 0002:00005b28       ??_C@_07HIFEPIJN@columns?$AA@ 0000000180147b28     GuMetaData.obj
 0002:00005b30       ??_C@_08MOAGOABI@rowLimit?$AA@ 0000000180147b30     GuMetaData.obj
 0002:00005b40       ??_C@_08BAGEHOBO@colLimit?$AA@ 0000000180147b40     GuMetaData.obj
 0002:00005b50       ??_C@_09LKDBLADF@nbColumns?$AA@ 0000000180147b50     GuMetaData.obj
 0002:00005b60       ??_C@_07ODIFGGLK@samples?$AA@ 0000000180147b60     GuMetaData.obj
 0002:00005b68       ??_C@_09GLPKLBIH@thickness?$AA@ 0000000180147b68     GuMetaData.obj
 0002:00005b78       ??_C@_0BE@POHEGOJG@convexEdgeThreshold?$AA@ 0000000180147b78     GuMetaData.obj
 0002:00005b8c       ??_C@_05GECEPKB@flags?$AA@ 0000000180147b8c     GuMetaData.obj
 0002:00005b94       ??_C@_06DLEPGFEF@format?$AA@ 0000000180147b94     GuMetaData.obj
 0002:00005ba0       ??_C@_0L@NDMBOBEK@rowsPadded?$AA@ 0000000180147ba0     GuMetaData.obj
 0002:00005bb0       ??_C@_0O@LADHJMOF@columnsPadded?$AA@ 0000000180147bb0     GuMetaData.obj
 0002:00005bc0       ??_C@_06JEAOGIEO@tilesU?$AA@ 0000000180147bc0     GuMetaData.obj
 0002:00005bc8       ??_C@_06LPCDDLIN@tilesV?$AA@ 0000000180147bc8     GuMetaData.obj
 0002:00005bd0       ??_C@_0BF@MOGDNMPL@PxMaterialTableIndex?$AA@ 0000000180147bd0     GuMetaData.obj
 0002:00005be8       ??_C@_0M@JMJICJJO@HeightField?$AA@ 0000000180147be8     GuMetaData.obj
 0002:00005bf8       ??_C@_0O@ENGHMLJP@mSampleStride?$AA@ 0000000180147bf8     GuMetaData.obj
 0002:00005c08       ??_C@_0L@EBEEMFFB@mMinHeight?$AA@ 0000000180147c08     GuMetaData.obj
 0002:00005c18       ??_C@_0L@EAEIFPOF@mMaxHeight?$AA@ 0000000180147c18     GuMetaData.obj
 0002:00005c28       ??_C@_0O@PDJPGKCH@LeafTriangles?$AA@ 0000000180147c28     GuMetaData.obj
 0002:00005c38       ??_C@_04DICKPMGH@Data?$AA@ 0000000180147c38     GuMetaData.obj
 0002:00005c40       ??_C@_0O@PEJLJCAI@MeshInterface?$AA@ 0000000180147c40     GuMetaData.obj
 0002:00005c50       ??_C@_07MPIKOOAP@mNbTris?$AA@ 0000000180147c50     GuMetaData.obj
 0002:00005c58       ??_C@_05LFOGJJFO@mTris?$AA@ 0000000180147c58     GuMetaData.obj
 0002:00005c60       ??_C@_06JFCLJMNN@mVerts?$AA@ 0000000180147c60     GuMetaData.obj
 0002:00005c68       ??_C@_0BB@MBAOOMGA@mHas16BitIndices?$AA@ 0000000180147c68     GuMetaData.obj
 0002:00005c80       ??_C@_0O@PGJOBDM@RTreeMidphase?$AA@ 0000000180147c80     GuMetaData.obj
 0002:00005c90       ??_C@_06PHKNPKGP@mIMesh?$AA@ 0000000180147c90     GuMetaData.obj
 0002:00005c98       ??_C@_0N@MGIKKCI@mGeomEpsilon?$AA@ 0000000180147c98     GuMetaData.obj
 0002:00005ca8       ??_C@_05FFEIGAJF@RTree?$AA@ 0000000180147ca8     GuMetaData.obj
 0002:00005cb0       ??_C@_06JDIHDDGN@mRTree?$AA@ 0000000180147cb0     GuMetaData.obj
 0002:00005cb8       ??_C@_09PHDKHCK@RTreePage?$AA@ 0000000180147cb8     GuMetaData.obj
 0002:00005cc4       ??_C@_04LLPOBGED@minx?$AA@ 0000000180147cc4     GuMetaData.obj
 0002:00005ccc       ??_C@_04KCOFCHAC@miny?$AA@ 0000000180147ccc     GuMetaData.obj
 0002:00005cd4       ??_C@_04IJMIHEMB@minz?$AA@ 0000000180147cd4     GuMetaData.obj
 0002:00005cdc       ??_C@_04GGOBOBGO@maxx?$AA@ 0000000180147cdc     GuMetaData.obj
 0002:00005ce4       ??_C@_04HPPKNACP@maxy?$AA@ 0000000180147ce4     GuMetaData.obj
 0002:00005cec       ??_C@_04FENHIDOM@maxz?$AA@ 0000000180147cec     GuMetaData.obj
 0002:00005cf4       ??_C@_04HHDFEJON@ptrs?$AA@ 0000000180147cf4     GuMetaData.obj
 0002:00005cfc       ??_C@_06OMCHPNEO@PxVec4?$AA@ 0000000180147cfc     GuMetaData.obj
 0002:00005d08       ??_C@_0L@NBIFEFLN@mBoundsMin?$AA@ 0000000180147d08     GuMetaData.obj
 0002:00005d18       ??_C@_0L@MDAOKBNC@mBoundsMax?$AA@ 0000000180147d18     GuMetaData.obj
 0002:00005d28       ??_C@_0N@NJEHLCOF@mInvDiagonal?$AA@ 0000000180147d28     GuMetaData.obj
 0002:00005d38       ??_C@_0BA@BEFIGPFG@mDiagonalScaler?$AA@ 0000000180147d38     GuMetaData.obj
 0002:00005d48       ??_C@_09DICGGKGO@mPageSize?$AA@ 0000000180147d48     GuMetaData.obj
 0002:00005d58       ??_C@_0O@BOFFCNOL@mNumRootPages?$AA@ 0000000180147d58     GuMetaData.obj
 0002:00005d68       ??_C@_0L@JKLGBKAE@mNumLevels?$AA@ 0000000180147d68     GuMetaData.obj
 0002:00005d78       ??_C@_0M@PHDOHJGK@mTotalNodes?$AA@ 0000000180147d78     GuMetaData.obj
 0002:00005d88       ??_C@_0M@GDGHALAO@mTotalPages?$AA@ 0000000180147d88     GuMetaData.obj
 0002:00005d98       ??_C@_07JFBFPKGD@mUnused?$AA@ 0000000180147d98     GuMetaData.obj
 0002:00005da0       ??_C@_06MHCBBJGP@mFlags?$AA@ 0000000180147da0     GuMetaData.obj
 0002:00005da8       ??_C@_06MMNBLHOK@mPages?$AA@ 0000000180147da8     GuMetaData.obj
 0002:00005db0       ??_C@_0BJ@CCMJAMJI@InternalTriangleMeshData?$AA@ 0000000180147db0     GuMetaData.obj
 0002:00005dd0       ??_C@_0N@EONCGABL@mNumVertices?$AA@ 0000000180147dd0     GuMetaData.obj
 0002:00005de0       ??_C@_0O@NLHMFGBI@mNumTriangles?$AA@ 0000000180147de0     GuMetaData.obj
 0002:00005df0       ??_C@_09LNNEGOJA@mVertices?$AA@ 0000000180147df0     GuMetaData.obj
 0002:00005e00       ??_C@_0L@KBOFAKLO@mTriangles?$AA@ 0000000180147e00     GuMetaData.obj
 0002:00005e10       ??_C@_0P@MHDFIHLD@mExtraTrigData?$AA@ 0000000180147e10     GuMetaData.obj
 0002:00005e20       ??_C@_0BA@BEEAIDOP@mCollisionModel?$AA@ 0000000180147e20     GuMetaData.obj
 0002:00005e30       ??_C@_0BF@LJKJIEBP@InternalTriangleMesh?$AA@ 0000000180147e30     GuMetaData.obj
 0002:00005e48       ??_C@_0BB@IFLOOCNA@mMaterialIndices?$AA@ 0000000180147e48     GuMetaData.obj
 0002:00005e60       ??_C@_0L@OPJMBFMI@mFaceRemap?$AA@ 0000000180147e60     GuMetaData.obj
 0002:00005e70       ??_C@_0N@BIOECAPM@mAdjacencies?$AA@ 0000000180147e70     GuMetaData.obj
 0002:00005e80       ??_C@_0BA@ICGEFMNF@mNumAdjacencies?$AA@ 0000000180147e80     GuMetaData.obj
 0002:00005e90       ??_C@_0BF@GBKBIGOB@mConvexEdgeThreshold?$AA@ 0000000180147e90     GuMetaData.obj
 0002:00005ea8       ??_C@_0P@EMMDNPMH@mMeshInterface?$AA@ 0000000180147ea8     GuMetaData.obj
 0002:00005eb8       ??_C@_0N@OJNNNLIB@TriangleMesh?$AA@ 0000000180147eb8     GuMetaData.obj
 0002:00005ec8       ??_C@_05KNFPOOLH@mMesh?$AA@ 0000000180147ec8     GuMetaData.obj
 0002:00005ed0       ??_C@_0BG@EAPGHGEI@MaterialIndicesStruct?$AA@ 0000000180147ed0     GuMetaData.obj
 0002:00005ee8       ??_C@_07OKCKIPNN@indices?$AA@ 0000000180147ee8     GuMetaData.obj
 0002:00005ef0       ??_C@_0L@KCBHBGBP@numIndices?$AA@ 0000000180147ef0     GuMetaData.obj
 0002:00005efc       ??_C@_03PNAAIPML@pad?$AA@  0000000180147efc     GuMetaData.obj
 0002:00005f00       ??_C@_05MOMFAHOB@pad64?$AA@ 0000000180147f00     GuMetaData.obj
 0002:00005f08       ??_C@_0BJ@LIOOOKID@ShadowConvexMeshGeometry?$AA@ 0000000180147f08     GuMetaData.obj
 0002:00005f28       ??_C@_0BF@PJFPGDNP@PxGeometryType?3?3Enum?$AA@ 0000000180147f28     GuMetaData.obj
 0002:00005f40       ??_C@_05GNIIDDHH@mType?$AA@ 0000000180147f40     GuMetaData.obj
 0002:00005f48       ??_C@_0M@JFNDEGCE@PxMeshScale?$AA@ 0000000180147f48     GuMetaData.obj
 0002:00005f54       ??_C@_05MHMEBBGO@scale?$AA@ 0000000180147f54     GuMetaData.obj
 0002:00005f60       ??_C@_0L@OKMLGDHH@convexMesh?$AA@ 0000000180147f60     GuMetaData.obj
 0002:00005f70       ??_C@_08CICKEKCM@hullData?$AA@ 0000000180147f70     GuMetaData.obj
 0002:00005f80       ??_C@_0BE@FFPGAPHN@PxMeshGeometryFlags?$AA@ 0000000180147f80     GuMetaData.obj
 0002:00005f98       ??_C@_0BL@KABFLNEB@ShadowTriangleMeshGeometry?$AA@ 0000000180147f98     GuMetaData.obj
 0002:00005fb8       ??_C@_09PLMNFMJI@meshFlags?$AA@ 0000000180147fb8     GuMetaData.obj
 0002:00005fc8       ??_C@_0BB@EINMAHMD@paddingFromFlags?$AA@ 0000000180147fc8     GuMetaData.obj
 0002:00005fe0       ??_C@_0N@FKKDJAHE@triangleMesh?$AA@ 0000000180147fe0     GuMetaData.obj
 0002:00005ff0       ??_C@_08BEABJAHJ@meshData?$AA@ 0000000180147ff0     GuMetaData.obj
 0002:00006000       ??_C@_0BA@NGIONHFJ@materialIndices?$AA@ 0000000180148000     GuMetaData.obj
 0002:00006010       ??_C@_09JGGNEAGH@materials?$AA@ 0000000180148010     GuMetaData.obj
 0002:00006020       ??_C@_0BK@OIFEOHNJ@ShadowHeightFieldGeometry?$AA@ 0000000180148020     GuMetaData.obj
 0002:00006040       ??_C@_0M@IEKJPCGG@heightField?$AA@ 0000000180148040     GuMetaData.obj
 0002:00006050       ??_C@_0M@LHLNPPJ@heightScale?$AA@ 0000000180148050     GuMetaData.obj
 0002:00006060       ??_C@_08GJPCBGLE@rowScale?$AA@ 0000000180148060     GuMetaData.obj
 0002:00006070       ??_C@_0M@HHBHEPCE@columnScale?$AA@ 0000000180148070     GuMetaData.obj
 0002:00006080       ??_C@_0BB@PMIIHDKK@heightFieldFlags?$AA@ 0000000180148080     GuMetaData.obj
 0002:00006098       ??_C@_0BA@DMOKLLHN@heightFieldData?$AA@ 0000000180148098     GuMetaData.obj
 0002:000060a8       ??_C@_0BE@IKADPPC@ShadowPlaneGeometry?$AA@ 00000001801480a8     GuMetaData.obj
 0002:000060c0       ??_C@_0BF@PIKLLBGN@ShadowSphereGeometry?$AA@ 00000001801480c0     GuMetaData.obj
 0002:000060d8       ??_C@_06KGHINEPG@radius?$AA@ 00000001801480d8     GuMetaData.obj
 0002:000060e0       ??_C@_0BG@OBHJHKMO@ShadowCapsuleGeometry?$AA@ 00000001801480e0     GuMetaData.obj
 0002:000060f8       ??_C@_0L@PMAANELH@halfHeight?$AA@ 00000001801480f8     GuMetaData.obj
 0002:00006108       ??_C@_0BC@DMJNHLLO@ShadowBoxGeometry?$AA@ 0000000180148108     GuMetaData.obj
 0002:00006120       ??_C@_0M@CMAEPJOI@halfExtents?$AA@ 0000000180148120     GuMetaData.obj
 0002:00006130       ??_C@_0BH@PKALDLFA@PxConvexMeshGeometryLL?$AA@ 0000000180148130     GuMetaData.obj
 0002:00006148       ??_C@_0BJ@GAFBNAAE@PxTriangleMeshGeometryLL?$AA@ 0000000180148148     GuMetaData.obj
 0002:00006168       ??_C@_0BI@IIFLCNOC@PxHeightFieldGeometryLL?$AA@ 0000000180148168     GuMetaData.obj
 0002:00006180       ??_C@_0BA@NAHKMBFO@PxPlaneGeometry?$AA@ 0000000180148180     GuMetaData.obj
 0002:00006190       ??_C@_0BB@CHBDIEFA@PxSphereGeometry?$AA@ 0000000180148190     GuMetaData.obj
 0002:000061a8       ??_C@_0BC@LJMOIOOK@PxCapsuleGeometry?$AA@ 00000001801481a8     GuMetaData.obj
 0002:000061c0       ??_C@_0O@OEDJDNFP@PxBoxGeometry?$AA@ 00000001801481c0     GuMetaData.obj
 0002:000061d0       ??_C@_0BC@ICOOCLFG@Gu?3?3GeometryUnion?$AA@ 00000001801481d0     GuMetaData.obj
 0002:00006200       ??_C@_0DG@DFOCGHP@Gu?3?3GeometryUnion?3?3computeBounds@ 0000000180148200     GuObjectBounds.obj
 0002:00006238       ??_C@_0CH@NCDKBGFJ@?4?4?2?4?4?2GeomUtils?2src?2GuObjectBoun@ 0000000180148238     GuObjectBounds.obj
 0002:00006260       __real@3f400000            0000000180148260     GuObjectBounds.obj
 0002:00006264       __real@3f7fffef            0000000180148264     GuObjectBounds.obj
 0002:00006268       __real@7e7fffff            0000000180148268     GuObjectBounds.obj
 0002:0000626c       __real@fe7fffff            000000018014826c     GuObjectBounds.obj
 0002:00006280       ??_C@_0EC@MLIJOGHA@Height?5Field?5Overlap?5test?5called@ 0000000180148280     GuOverlapTests.obj
 0002:000062c8       ??_C@_0CH@MIKFAPPP@?4?4?2?4?4?2GeomUtils?2src?2GuOverlapTes@ 00000001801482c8     GuOverlapTests.obj
 0002:00006300       ??_7RayMeshColliderCallback@@6B@ 0000000180148300     GuRaycastTests.obj
 0002:00006310       __real@3f1a36e2eb1c432d    0000000180148310     GuRaycastTests.obj
 0002:00006318       __real@501502f9            0000000180148318     GuRaycastTests.obj
 0002:0000631c       __real@b3d6bf95            000000018014831c     GuRaycastTests.obj
 0002:00006320       __real@be7ad7f29abcaf48    0000000180148320     GuRaycastTests.obj
 0002:00006328       ??_7RadixSort@Gu@physx@@6B@ 0000000180148328     GuRevisitedRadix.obj
 0002:00006330       __xmm@00000001000000010000000100000001 0000000180148330     GuRevisitedRadix.obj
 0002:00006340       __xmm@00000003000000020000000100000000 0000000180148340     GuRevisitedRadix.obj
 0002:00006350       ??_7RadixSortBuffered@Gu@physx@@6B@ 0000000180148350     GuRevisitedRadixBuffered.obj
 0002:00006358       ??_C@_0DB@NDPHLCHA@?4?4?2?4?4?2GeomUtils?2src?2GuRevisitedR@ 0000000180148358     GuRevisitedRadixBuffered.obj
 0002:000063a0       ??_7MeshMTDGenerationCallback@@6B@ 00000001801483a0     GuSweepMTD.obj
 0002:000063b0       ??_7MidPhaseQueryLocalReport@@6B@ 00000001801483b0     GuSweepMTD.obj
 0002:000063c0       __real@3f933333            00000001801483c0     GuSweepMTD.obj
 0002:000063f0       __real@00000000            00000001801483f0     GuSweepTests.obj
 0002:00006400       ??_7type_info@@6B@         0000000180148400     MSVCRT:std_type_info_static.obj
 0002:00006408       _pDefaultRawDllMain        0000000180148408     MSVCRT:dll_dllmain.obj
 0002:00006408       _pRawDllMain               0000000180148408     MSVCRT:dll_dllmain.obj
 0002:00006418       ??_7exception@std@@6B@     0000000180148418     MSVCRT:throw_bad_alloc.obj
 0002:00006428       ??_C@_0BC@EOODALEL@Unknown?5exception?$AA@ 0000000180148428     MSVCRT:throw_bad_alloc.obj
 0002:00006448       ??_7bad_alloc@std@@6B@     0000000180148448     MSVCRT:throw_bad_alloc.obj
 0002:00006458       ??_C@_0P@GHFPNOJB@bad?5allocation?$AA@ 0000000180148458     MSVCRT:throw_bad_alloc.obj
 0002:00006470       ??_7bad_array_new_length@std@@6B@ 0000000180148470     MSVCRT:throw_bad_alloc.obj
 0002:00006480       ??_C@_0BF@KINCDENJ@bad?5array?5new?5length?$AA@ 0000000180148480     MSVCRT:throw_bad_alloc.obj
 0002:00006500       _load_config_used          0000000180148500     MSVCRT:loadcfg.obj
 0002:00006598       ??_R4type_info@@6B@        0000000180148598     MSVCRT:std_type_info_static.obj
 0002:000065c0       ??_R3type_info@@8          00000001801485c0     MSVCRT:std_type_info_static.obj
 0002:000065d8       ??_R2type_info@@8          00000001801485d8     MSVCRT:std_type_info_static.obj
 0002:000065e8       ??_R1A@?0A@EA@type_info@@8 00000001801485e8     MSVCRT:std_type_info_static.obj
 0002:00006610       ??_R4exception@std@@6B@    0000000180148610     MSVCRT:throw_bad_alloc.obj
 0002:00006638       ??_R3exception@std@@8      0000000180148638     MSVCRT:throw_bad_alloc.obj
 0002:00006650       ??_R2exception@std@@8      0000000180148650     MSVCRT:throw_bad_alloc.obj
 0002:00006660       ??_R1A@?0A@EA@exception@std@@8 0000000180148660     MSVCRT:throw_bad_alloc.obj
 0002:00006688       ??_R4bad_alloc@std@@6B@    0000000180148688     MSVCRT:throw_bad_alloc.obj
 0002:000066b0       ??_R3bad_alloc@std@@8      00000001801486b0     MSVCRT:throw_bad_alloc.obj
 0002:000066c8       ??_R2bad_alloc@std@@8      00000001801486c8     MSVCRT:throw_bad_alloc.obj
 0002:000066e0       ??_R1A@?0A@EA@bad_alloc@std@@8 00000001801486e0     MSVCRT:throw_bad_alloc.obj
 0002:00006708       ??_R4bad_array_new_length@std@@6B@ 0000000180148708     MSVCRT:throw_bad_alloc.obj
 0002:00006730       ??_R3bad_array_new_length@std@@8 0000000180148730     MSVCRT:throw_bad_alloc.obj
 0002:00006748       ??_R2bad_array_new_length@std@@8 0000000180148748     MSVCRT:throw_bad_alloc.obj
 0002:00006768       ??_R1A@?0A@EA@bad_array_new_length@std@@8 0000000180148768     MSVCRT:throw_bad_alloc.obj
 0002:00006ad8       __rtc_iaa                  0000000180148ad8     MSVCRT:_initsect_.obj
 0002:00006ae0       __rtc_izz                  0000000180148ae0     MSVCRT:_initsect_.obj
 0002:00006ae8       __rtc_taa                  0000000180148ae8     MSVCRT:_initsect_.obj
 0002:00006af0       __rtc_tzz                  0000000180148af0     MSVCRT:_initsect_.obj
 0002:000133c0       _TI2?AVbad_alloc@std@@     00000001801553c0     MSVCRT:throw_bad_alloc.obj
 0002:000133e0       _CTA2?AVbad_alloc@std@@    00000001801553e0     MSVCRT:throw_bad_alloc.obj
 0002:000133f8       _CT??_R0?AVbad_alloc@std@@@8??0bad_alloc@std@@QEAA@AEBV01@@Z24 00000001801553f8     MSVCRT:throw_bad_alloc.obj
 0002:00013420       _CT??_R0?AVexception@std@@@8??0exception@std@@QEAA@AEBV01@@Z24 0000000180155420     MSVCRT:throw_bad_alloc.obj
 0002:00013448       _TI3?AVbad_array_new_length@std@@ 0000000180155448     MSVCRT:throw_bad_alloc.obj
 0002:00013468       _CTA3?AVbad_array_new_length@std@@ 0000000180155468     MSVCRT:throw_bad_alloc.obj
 0002:00013488       _CT??_R0?AVbad_array_new_length@std@@@8??0bad_array_new_length@std@@QEAA@AEBV01@@Z24 0000000180155488     MSVCRT:throw_bad_alloc.obj
 0002:0002685c       __IMPORT_DESCRIPTOR_KERNEL32 000000018016885c     kernel32:KERNEL32.dll
 0002:00026870       __IMPORT_DESCRIPTOR_WS2_32 0000000180168870     Ws2_32:WS2_32.dll
 0002:00026884       __IMPORT_DESCRIPTOR_VCRUNTIME140 0000000180168884     vcruntime:VCRUNTIME140.dll
 0002:00026898       __IMPORT_DESCRIPTOR_api-ms-win-crt-runtime-l1-1-0 0000000180168898     ucrt:api-ms-win-crt-runtime-l1-1-0.dll
 0002:000268ac       __IMPORT_DESCRIPTOR_api-ms-win-crt-stdio-l1-1-0 00000001801688ac     ucrt:api-ms-win-crt-stdio-l1-1-0.dll
 0002:000268c0       __IMPORT_DESCRIPTOR_api-ms-win-crt-string-l1-1-0 00000001801688c0     ucrt:api-ms-win-crt-string-l1-1-0.dll
 0002:000268d4       __IMPORT_DESCRIPTOR_api-ms-win-crt-math-l1-1-0 00000001801688d4     ucrt:api-ms-win-crt-math-l1-1-0.dll
 0002:000268e8       __IMPORT_DESCRIPTOR_api-ms-win-crt-heap-l1-1-0 00000001801688e8     ucrt:api-ms-win-crt-heap-l1-1-0.dll
 0002:000268fc       __NULL_IMPORT_DESCRIPTOR   00000001801688fc     kernel32:KERNEL32.dll
 0003:00000000       ?sAssertHandlerPtr@?A0x2e8fa11f@@3PEAVPxAssertHandler@physx@@EA 000000018016a000     PsAssert.obj
 0003:00000008       ?sAssertHandler@?A0x2e8fa11f@@3VDefaultAssertHandler@1@A 000000018016a008     PsAssert.obj
 0003:00000ea4       ?mVersion@RTree@Gu@physx@@2IA 000000018016aea4     GuRTree.obj
 0003:00000ee0       ?gGeomMTDMethodTable@Gu@physx@@3PAY06P6A_NAEAVPxVec3@2@AEAMAEBVPxGeometry@2@AEBVPxTransform@2@23@ZA 000000018016aee0     GuMTD.obj
 0003:00001070       ?gGeomOverlapMethodTable@@3PAY06P6A_NAEBVPxGeometry@physx@@AEBVPxTransform@2@01PEAUTriggerCache@Gu@2@@ZA 000000018016b070     GuOverlapTests.obj
 0003:000011f8       ?gRaycastMap@@3PAP6AIAEBVPxGeometry@physx@@AEBVPxTransform@2@AEBVPxVec3@2@2MV?$PxFlags@W4Enum@PxHitFlag@physx@@G@2@IPEIAUPxRaycastHit@2@_NP6A_NAEAU62@PEAX@Z7@ZA 000000018016b1f8     GuRaycastTests.obj
 0003:00001250       ?gGeomSweepFuncs@@3UGeomSweepFuncs@Gu@physx@@A 000000018016b250     GuSweepTests.obj
 0003:00001370       _fltused                   000000018016b370     MSVCRT:dllsupp.obj
 0003:00001374       __scrt_native_dllmain_reason 000000018016b374     MSVCRT:utility.obj
 0003:00001378       __isa_available            000000018016b378     MSVCRT:_cpu_disp_.obj
 0003:0000137c       __isa_enabled              000000018016b37c     MSVCRT:_cpu_disp_.obj
 0003:00001380       __memcpy_nt_iters          000000018016b380     MSVCRT:_cpu_disp_.obj
 0003:00001388       __security_cookie          000000018016b388     MSVCRT:gs_cookie.obj
 0003:00001390       __security_cookie_complement 000000018016b390     MSVCRT:gs_cookie.obj
 0003:000013a0       __scrt_ucrt_dll_is_in_use  000000018016b3a0     MSVCRT:ucrt_stubs.obj
 0003:000013b0       ??_R0?AVMutexImpl@shdfnd@physx@@@8 000000018016b3b0     PsWindowsMutex.obj
 0003:000013e0       ??_R0?AVConnImpl@shdfnd@physx@@@8 000000018016b3e0     PsWindowsPAEventSrc.obj
 0003:00001410       ??_R0?AVThreadImpl@shdfnd@physx@@@8 000000018016b410     PsWindowsSocket.obj
 0003:00001440       ??_R0?AVFastIPC@shdfnd@physx@@@8 000000018016b440     PsFastIPC.obj
 0003:00001470       ??_R0?AVMemoryMappedFile@shdfnd@physx@@@8 000000018016b470     PsFastIPC.obj
 0003:000014a8       ??_R0?AVMultiPartData@PxRingBuffer@shdfnd@physx@@@8 000000018016b4a8     PsFastIPC.obj
 0003:000014f0       ??_R0?AVMultiPartPacket@PxRingBuffer@shdfnd@physx@@@8 000000018016b4f0     PsFastIPC.obj
 0003:00001530       ??_R0?AVCollection@Cm@physx@@@8 000000018016b530     CmCollection.obj
 0003:00001560       ??_R0D@8                   000000018016b560     CmRenderOutput.obj
 0003:00001578       ??_R0?AUPxDebugText@physx@@@8 000000018016b578     CmRenderOutput.obj
 0003:000015a0       ??_R0?AUPxDebugTriangle@physx@@@8 000000018016b5a0     CmRenderOutput.obj
 0003:000015d0       ??_R0?AUPxDebugLine@physx@@@8 000000018016b5d0     CmRenderOutput.obj
 0003:000015f8       ??_R0?AUPxDebugPoint@physx@@@8 000000018016b5f8     CmRenderOutput.obj
 0003:00001628       ??_R0?AVBigConvexData@physx@@@8 000000018016b628     GuConvexMesh.obj
 0003:00001658       ??_R0I@8                   000000018016b658     GuInternalTriangleMesh.obj
 0003:00001670       ??_R0G@8                   000000018016b670     GuInternalTriangleMesh.obj
 0003:00001688       ??_R0E@8                   000000018016b688     GuTriangleMesh.obj
 0003:000016a0       ??_R0?AVHeightField@Gu@physx@@@8 000000018016b6a0     GuMeshFactory.obj
 0003:000016d0       ??_R0?AVConvexMesh@Gu@physx@@@8 000000018016b6d0     GuMeshFactory.obj
 0003:00001700       ??_R0?AVTriangleMesh@Gu@physx@@@8 000000018016b700     GuMeshFactory.obj
 0003:00001730       ??_R0PEAVGuMeshFactoryListener@physx@@@8 000000018016b730     GuMeshFactory.obj
 0003:00001768       ??_R0?AVtype_info@@@8      000000018016b768     MSVCRT:std_type_info_static.obj
 0003:00001788       ??_R0?AVbad_alloc@std@@@8  000000018016b788     MSVCRT:throw_bad_alloc.obj
 0003:000017b0       ??_R0?AVexception@std@@@8  000000018016b7b0     MSVCRT:throw_bad_alloc.obj
 0003:000017d8       ??_R0?AVbad_array_new_length@std@@@8 000000018016b7d8     MSVCRT:throw_bad_alloc.obj
 0003:00001818       ?_OptionsStorage@?1??__local_stdio_printf_options@@9@4_KA 000000018016b818     PsWindowsPrintString.obj
 0003:00001820       ?gPhysicalCoreCount@?A0xe97ff064@shdfnd@physx@@3IA 000000018016b820     PsWindowsThread.obj
 0003:00001828       ?sTickDuration@?A0x74b04cad@@3NA 000000018016b828     PsWindowsTime.obj
 0003:00001840       ?mInstance@Foundation@shdfnd@physx@@0PEAV123@EA 000000018016b840     PsFoundation.obj
 0003:00001848       ?mRefCount@Foundation@shdfnd@physx@@0IA 000000018016b848     PsFoundation.obj
 0003:0000184c       ?mWarnOnceTimestap@Foundation@shdfnd@physx@@0IA 000000018016b84c     PsFoundation.obj
 0003:00001c54       ?solverMergeResults@Dynamics@ProfileEventId@Cm@physx@@2UPxProfileEventId@4@B 000000018016bc54     CmEventProfiler.obj
 0003:00001c58       ?updateAggAABBs@BroadPhase@ProfileEventId@Cm@physx@@2UPxProfileEventId@4@B 000000018016bc58     CmEventProfiler.obj
 0003:00001c5c       ?removeArticulation@API@ProfileEventId@Cm@physx@@2UPxProfileEventId@4@B 000000018016bc5c     CmEventProfiler.obj
 0003:00001c60       ?preIslandGenSecondPass@Sim@ProfileEventId@Cm@physx@@2UPxProfileEventId@4@B 000000018016bc60     CmEventProfiler.obj
 0003:00001c64       ?processSleepingIslands@IslandGen@ProfileEventId@Cm@physx@@2UPxProfileEventId@4@B 000000018016bc64     CmEventProfiler.obj
 0003:00001c68       ?stepSetupSimulate@Sim@ProfileEventId@Cm@physx@@2UPxProfileEventId@4@B 000000018016bc68     CmEventProfiler.obj
 0003:00001c6c       ?solveQueueTasks@Sim@ProfileEventId@Cm@physx@@2UPxProfileEventId@4@B 000000018016bc6c     CmEventProfiler.obj
 0003:00001c70       ?findAndReplaceWithLast@API@ProfileEventId@Cm@physx@@2UPxProfileEventId@4@B 000000018016bc70     CmEventProfiler.obj
 0003:00001c74       ?narrowPhase@Sim@ProfileEventId@Cm@physx@@2UPxProfileEventId@4@B 000000018016bc74     CmEventProfiler.obj
 0003:00001c78       ?releasePVDInstance@PVD@ProfileEventId@Cm@physx@@2UPxProfileEventId@4@B 000000018016bc78     CmEventProfiler.obj
 0003:00001c7c       ?addParticleFluid@API@ProfileEventId@Cm@physx@@2UPxProfileEventId@4@B 000000018016bc7c     CmEventProfiler.obj
 0003:00001c80       ?setupProject@Articulations@ProfileEventId@Cm@physx@@2UPxProfileEventId@4@B 000000018016bc80     CmEventProfiler.obj
 0003:00001c84       ?flushQueryUpdates@API@ProfileEventId@Cm@physx@@2UPxProfileEventId@4@B 000000018016bc84     CmEventProfiler.obj
 0003:00001c88       ?ccdPair@Sim@ProfileEventId@Cm@physx@@2UPxProfileEventId@4@B 000000018016bc88     CmEventProfiler.obj
 0003:00001c8c       ?removeActorFromSim@API@ProfileEventId@Cm@physx@@2UPxProfileEventId@4@B 000000018016bc8c     CmEventProfiler.obj
 0003:00001c90       ?removeParticleFluid@API@ProfileEventId@Cm@physx@@2UPxProfileEventId@4@B 000000018016bc90     CmEventProfiler.obj
 0003:00001c94       ?computeAggAggShapePairs@BroadPhase@ProfileEventId@Cm@physx@@2UPxProfileEventId@4@B 000000018016bc94     CmEventProfiler.obj
 0003:00001c98       ?removeShapesFromSim@API@ProfileEventId@Cm@physx@@2UPxProfileEventId@4@B 000000018016bc98     CmEventProfiler.obj
 0003:00001c9c       ?raycastSingle@SceneQuery@ProfileEventId@Cm@physx@@2UPxProfileEventId@4@B 000000018016bc9c     CmEventProfiler.obj
 0003:00001ca0       ?propagateDrivenInertia@Articulations@ProfileEventId@Cm@physx@@2UPxProfileEventId@4@B 000000018016bca0     CmEventProfiler.obj
 0003:00001ca4       ?updateSleeping@PVD@ProfileEventId@Cm@physx@@2UPxProfileEventId@4@B 000000018016bca4     CmEventProfiler.obj
 0003:00001ca8       ?createFinalize@Dynamics@ProfileEventId@Cm@physx@@2UPxProfileEventId@4@B 000000018016bca8     CmEventProfiler.obj
 0003:00001cac       ?processTriggers@Sim@ProfileEventId@Cm@physx@@2UPxProfileEventId@4@B 000000018016bcac     CmEventProfiler.obj
 0003:00001cb0       ?computeAABBUpdateLists@BroadPhase@ProfileEventId@Cm@physx@@2UPxProfileEventId@4@B 000000018016bcb0     CmEventProfiler.obj
 0003:00001cb4       ?fireCallBacksPreSync@Sim@ProfileEventId@Cm@physx@@2UPxProfileEventId@4@B 000000018016bcb4     CmEventProfiler.obj
 0003:00001cb8       ?sweepMultiple@BatchedSceneQuery@ProfileEventId@Cm@physx@@2UPxProfileEventId@4@B 000000018016bcb8     CmEventProfiler.obj
 0003:00001cbc       ?execute@BatchedSceneQuery@ProfileEventId@Cm@physx@@2UPxProfileEventId@4@B 000000018016bcbc     CmEventProfiler.obj
 0003:00001cc0       ?updateDynamicBodies@PVD@ProfileEventId@Cm@physx@@2UPxProfileEventId@4@B 000000018016bcc0     CmEventProfiler.obj
 0003:00001cc4       ?resizeArrays@IslandGen@ProfileEventId@Cm@physx@@2UPxProfileEventId@4@B 000000018016bcc4     CmEventProfiler.obj
 0003:00001cc8       ?addArticulation@API@ProfileEventId@Cm@physx@@2UPxProfileEventId@4@B 000000018016bcc8     CmEventProfiler.obj
 0003:00001ccc       ?MBPUpdate@BroadPhase@ProfileEventId@Cm@physx@@2UPxProfileEventId@4@B 000000018016bccc     CmEventProfiler.obj
 0003:00001cd0       ?stepSetupSolve@Sim@ProfileEventId@Cm@physx@@2UPxProfileEventId@4@B 000000018016bcd0     CmEventProfiler.obj
 0003:00001cd4       ?prepareFsData@Articulations@ProfileEventId@Cm@physx@@2UPxProfileEventId@4@B 000000018016bcd4     CmEventProfiler.obj
 0003:00001cd8       ?releaseBatchQuery@API@ProfileEventId@Cm@physx@@2UPxProfileEventId@4@B 000000018016bcd8     CmEventProfiler.obj
 0003:00001cdc       ?getSimEvents@Sim@ProfileEventId@Cm@physx@@2UPxProfileEventId@4@B 000000018016bcdc     CmEventProfiler.obj
 0003:00001ce0       ?SapUpdate@BroadPhase@ProfileEventId@Cm@physx@@2UPxProfileEventId@4@B 000000018016bce0     CmEventProfiler.obj
 0003:00001ce4       ?fireCallBacksPostSync@Sim@ProfileEventId@Cm@physx@@2UPxProfileEventId@4@B 000000018016bce4     CmEventProfiler.obj
 0003:00001ce8       ?SapPostUpdate@BroadPhase@ProfileEventId@Cm@physx@@2UPxProfileEventId@4@B 000000018016bce8     CmEventProfiler.obj
 0003:00001cec       ?addParticleSystem@API@ProfileEventId@Cm@physx@@2UPxProfileEventId@4@B 000000018016bcec     CmEventProfiler.obj
 0003:00001cf0       ?narrowPhaseMerge@Sim@ProfileEventId@Cm@physx@@2UPxProfileEventId@4@B 000000018016bcf0     CmEventProfiler.obj
 0003:00001cf4       ?cleanupEdgeEvents@IslandGen@ProfileEventId@Cm@physx@@2UPxProfileEventId@4@B 000000018016bcf4     CmEventProfiler.obj
 0003:00001cf8       ?ccdSweep@Sim@ProfileEventId@Cm@physx@@2UPxProfileEventId@4@B 000000018016bcf8     CmEventProfiler.obj
 0003:00001cfc       ?sceneUpdate@PVD@ProfileEventId@Cm@physx@@2UPxProfileEventId@4@B 000000018016bcfc     CmEventProfiler.obj
 0003:00001d00       ?processNewOverlaps@Sim@ProfileEventId@Cm@physx@@2UPxProfileEventId@4@B 000000018016bd00     CmEventProfiler.obj
 0003:00001d04       ?setupConstraints@Articulations@ProfileEventId@Cm@physx@@2UPxProfileEventId@4@B 000000018016bd04     CmEventProfiler.obj
 0003:00001d08       ?addAggregate@API@ProfileEventId@Cm@physx@@2UPxProfileEventId@4@B 000000018016bd08     CmEventProfiler.obj
 0003:00001d0c       ?islandGen@Basic@ProfileEventId@Cm@physx@@2UPxProfileEventId@4@B 000000018016bd0c     CmEventProfiler.obj
 0003:00001d10       ?parallelSolve@Dynamics@ProfileEventId@Cm@physx@@2UPxProfileEventId@4@B 000000018016bd10     CmEventProfiler.obj
 0003:00001d14       ?deletedNodesEdges@IslandGen@ProfileEventId@Cm@physx@@2UPxProfileEventId@4@B 000000018016bd14     CmEventProfiler.obj
 0003:00001d18       ?shiftOrigin@API@ProfileEventId@Cm@physx@@2UPxProfileEventId@4@B 000000018016bd18     CmEventProfiler.obj
 0003:00001d1c       ?buildActiveTransforms@Sim@ProfileEventId@Cm@physx@@2UPxProfileEventId@4@B 000000018016bd1c     CmEventProfiler.obj
 0003:00001d20       ?updateCloths@PVD@ProfileEventId@Cm@physx@@2UPxProfileEventId@4@B 000000018016bd20     CmEventProfiler.obj
 0003:00001d24       ?projectionTreeUpdates@Sim@ProfileEventId@Cm@physx@@2UPxProfileEventId@4@B 000000018016bd24     CmEventProfiler.obj
 0003:00001d28       ?simulate@Basic@ProfileEventId@Cm@physx@@2UPxProfileEventId@4@B 000000018016bd28     CmEventProfiler.obj
 0003:00001d2c       ?updatePariclesAndFluids@PVD@ProfileEventId@Cm@physx@@2UPxProfileEventId@4@B 000000018016bd2c     CmEventProfiler.obj
 0003:00001d30       ?sweepAnyList@SceneQuery@ProfileEventId@Cm@physx@@2UPxProfileEventId@4@B 000000018016bd30     CmEventProfiler.obj
 0003:00001d34       ?ccdBroadPhaseComplete@Sim@ProfileEventId@Cm@physx@@2UPxProfileEventId@4@B 000000018016bd34     CmEventProfiler.obj
 0003:00001d38       ?updatePositions@Dynamics@ProfileEventId@Cm@physx@@2UPxProfileEventId@4@B 000000018016bd38     CmEventProfiler.obj
 0003:00001d3c       ?updatePruningTrees@Sim@ProfileEventId@Cm@physx@@2UPxProfileEventId@4@B 000000018016bd3c     CmEventProfiler.obj
 0003:00001d40       ?sendPVDArrays@PVD@ProfileEventId@Cm@physx@@2UPxProfileEventId@4@B 000000018016bd40     CmEventProfiler.obj
 0003:00001d44       ?ccdIsland@Sim@ProfileEventId@Cm@physx@@2UPxProfileEventId@4@B 000000018016bd44     CmEventProfiler.obj
 0003:00001d48       ?sweepSingle@BatchedSceneQuery@ProfileEventId@Cm@physx@@2UPxProfileEventId@4@B 000000018016bd48     CmEventProfiler.obj
 0003:00001d4c       ?sweepSingle@SceneQuery@ProfileEventId@Cm@physx@@2UPxProfileEventId@4@B 000000018016bd4c     CmEventProfiler.obj
 0003:00001d50       ?computeJointDrives@Articulations@ProfileEventId@Cm@physx@@2UPxProfileEventId@4@B 000000018016bd50     CmEventProfiler.obj
 0003:00001d54       ?updateCCDMultiPass@Sim@ProfileEventId@Cm@physx@@2UPxProfileEventId@4@B 000000018016bd54     CmEventProfiler.obj
 0003:00001d58       ?freeBuffers@IslandGen@ProfileEventId@Cm@physx@@2UPxProfileEventId@4@B 000000018016bd58     CmEventProfiler.obj
 0003:00001d5c       ?endStep@ParticleSim@ProfileEventId@Cm@physx@@2UPxProfileEventId@4@B 000000018016bd5c     CmEventProfiler.obj
 0003:00001d60       ?resetDependencies@Sim@ProfileEventId@Cm@physx@@2UPxProfileEventId@4@B 000000018016bd60     CmEventProfiler.obj
 0003:00001d64       ?broadPhase@Basic@ProfileEventId@Cm@physx@@2UPxProfileEventId@4@B 000000018016bd64     CmEventProfiler.obj
 0003:00001d68       ?originShift@PVD@ProfileEventId@Cm@physx@@2UPxProfileEventId@4@B 000000018016bd68     CmEventProfiler.obj
 0003:00001d6c       ?checkConstraintBreakage@Sim@ProfileEventId@Cm@physx@@2UPxProfileEventId@4@B 000000018016bd6c     CmEventProfiler.obj
 0003:00001d70       ?MBPUpdateSPU@BroadPhase@ProfileEventId@Cm@physx@@2UPxProfileEventId@4@B 000000018016bd70     CmEventProfiler.obj
 0003:00001d74       ?SapUpdateSPU@BroadPhase@ProfileEventId@Cm@physx@@2UPxProfileEventId@4@B 000000018016bd74     CmEventProfiler.obj
 0003:00001d78       ?updateContacts@PVD@ProfileEventId@Cm@physx@@2UPxProfileEventId@4@B 000000018016bd78     CmEventProfiler.obj
 0003:00001d7c       ?raycastAny@SceneQuery@ProfileEventId@Cm@physx@@2UPxProfileEventId@4@B 000000018016bd7c     CmEventProfiler.obj
 0003:00001d80       ?removeCloth@API@ProfileEventId@Cm@physx@@2UPxProfileEventId@4@B 000000018016bd80     CmEventProfiler.obj
 0003:00001d84       ?updateIslands@Sim@ProfileEventId@Cm@physx@@2UPxProfileEventId@4@B 000000018016bd84     CmEventProfiler.obj
 0003:00001d88       ?pvdFrameStart@Basic@ProfileEventId@Cm@physx@@2UPxProfileEventId@4@B 000000018016bd88     CmEventProfiler.obj
 0003:00001d8c       ?addCollection@API@ProfileEventId@Cm@physx@@2UPxProfileEventId@4@B 000000018016bd8c     CmEventProfiler.obj
 0003:00001d90       ?setupDrives@Articulations@ProfileEventId@Cm@physx@@2UPxProfileEventId@4@B 000000018016bd90     CmEventProfiler.obj
 0003:00001d94       ?syncState@Sim@ProfileEventId@Cm@physx@@2UPxProfileEventId@4@B 000000018016bd94     CmEventProfiler.obj
 0003:00001d98       ?solverQueueTasks@Dynamics@ProfileEventId@Cm@physx@@2UPxProfileEventId@4@B 000000018016bd98     CmEventProfiler.obj
 0003:00001d9c       ?removeShapesFromSQ@API@ProfileEventId@Cm@physx@@2UPxProfileEventId@4@B 000000018016bd9c     CmEventProfiler.obj
 0003:00001da0       ?createContactPatches@Dynamics@ProfileEventId@Cm@physx@@2UPxProfileEventId@4@B 000000018016bda0     CmEventProfiler.obj
 0003:00001da4       ?ccdSweepMerge@Sim@ProfileEventId@Cm@physx@@2UPxProfileEventId@4@B 000000018016bda4     CmEventProfiler.obj
 0003:00001da8       ?raycastAny@BatchedSceneQuery@ProfileEventId@Cm@physx@@2UPxProfileEventId@4@B 000000018016bda8     CmEventProfiler.obj
 0003:00001dac       ?solver@Dynamics@ProfileEventId@Cm@physx@@2UPxProfileEventId@4@B 000000018016bdac     CmEventProfiler.obj
 0003:00001db0       ?updateLazyAggShapeAABBs@BroadPhase@ProfileEventId@Cm@physx@@2UPxProfileEventId@4@B 000000018016bdb0     CmEventProfiler.obj
 0003:00001db4       ?growPatches@Dynamics@ProfileEventId@Cm@physx@@2UPxProfileEventId@4@B 000000018016bdb4     CmEventProfiler.obj
 0003:00001db8       ?fireCustomFilteringCallbacks@Sim@ProfileEventId@Cm@physx@@2UPxProfileEventId@4@B 000000018016bdb8     CmEventProfiler.obj
 0003:00001dbc       ?updateShapeAABBs@BroadPhase@ProfileEventId@Cm@physx@@2UPxProfileEventId@4@B 000000018016bdbc     CmEventProfiler.obj
 0003:00001dc0       ?rigidBodySolver@Basic@ProfileEventId@Cm@physx@@2UPxProfileEventId@4@B 000000018016bdc0     CmEventProfiler.obj
 0003:00001dc4       ?collideQueueTasks@Sim@ProfileEventId@Cm@physx@@2UPxProfileEventId@4@B 000000018016bdc4     CmEventProfiler.obj
 0003:00001dc8       ?ccdBroadPhase@Sim@ProfileEventId@Cm@physx@@2UPxProfileEventId@4@B 000000018016bdc8     CmEventProfiler.obj
 0003:00001dcc       ?addActorToSim@API@ProfileEventId@Cm@physx@@2UPxProfileEventId@4@B 000000018016bdcc     CmEventProfiler.obj
 0003:00001dd0       ?dynamics@Basic@ProfileEventId@Cm@physx@@2UPxProfileEventId@4@B 000000018016bdd0     CmEventProfiler.obj
 0003:00001dd4       ?createBatchQuery@API@ProfileEventId@Cm@physx@@2UPxProfileEventId@4@B 000000018016bdd4     CmEventProfiler.obj
 0003:00001dd8       ?projectContacts@Sim@ProfileEventId@Cm@physx@@2UPxProfileEventId@4@B 000000018016bdd8     CmEventProfiler.obj
 0003:00001ddc       ?updateAggLocalSpaceBounds@BroadPhase@ProfileEventId@Cm@physx@@2UPxProfileEventId@4@B 000000018016bddc     CmEventProfiler.obj
 0003:00001de0       ?MBPPostUpdateSPU@BroadPhase@ProfileEventId@Cm@physx@@2UPxProfileEventId@4@B 000000018016bde0     CmEventProfiler.obj
 0003:00001de4       ?sweepMultipleList@SceneQuery@ProfileEventId@Cm@physx@@2UPxProfileEventId@4@B 000000018016bde4     CmEventProfiler.obj
 0003:00001de8       ?shapesUpdateProcessing@ParticleSim@ProfileEventId@Cm@physx@@2UPxProfileEventId@4@B 000000018016bde8     CmEventProfiler.obj
 0003:00001dec       ?emptyIslands@IslandGen@ProfileEventId@Cm@physx@@2UPxProfileEventId@4@B 000000018016bdec     CmEventProfiler.obj
 0003:00001df0       ?updateCollision@ParticleSim@ProfileEventId@Cm@physx@@2UPxProfileEventId@4@B 000000018016bdf0     CmEventProfiler.obj
 0003:00001df4       ?updateCCDSinglePass@Sim@ProfileEventId@Cm@physx@@2UPxProfileEventId@4@B 000000018016bdf4     CmEventProfiler.obj
 0003:00001df8       ?updateJoints@PVD@ProfileEventId@Cm@physx@@2UPxProfileEventId@4@B 000000018016bdf8     CmEventProfiler.obj
 0003:00001dfc       ?joinedEdges@IslandGen@ProfileEventId@Cm@physx@@2UPxProfileEventId@4@B 000000018016bdfc     CmEventProfiler.obj
 0003:00001e00       ?syncBodiesAfterSolver@Sim@ProfileEventId@Cm@physx@@2UPxProfileEventId@4@B 000000018016be00     CmEventProfiler.obj
 0003:00001e04       ?setupFinalize@Dynamics@ProfileEventId@Cm@physx@@2UPxProfileEventId@4@B 000000018016be04     CmEventProfiler.obj
 0003:00001e08       ?correlatePatches@Dynamics@ProfileEventId@Cm@physx@@2UPxProfileEventId@4@B 000000018016be08     CmEventProfiler.obj
 0003:00001e0c       ?stepSetupCollide@Sim@ProfileEventId@Cm@physx@@2UPxProfileEventId@4@B 000000018016be0c     CmEventProfiler.obj
 0003:00001e10       ?removeActors@API@ProfileEventId@Cm@physx@@2UPxProfileEventId@4@B 000000018016be10     CmEventProfiler.obj
 0003:00001e14       ?forceDynamicTreeRebuild@API@ProfileEventId@Cm@physx@@2UPxProfileEventId@4@B 000000018016be14     CmEventProfiler.obj
 0003:00001e18       ?removeActor@API@ProfileEventId@Cm@physx@@2UPxProfileEventId@4@B 000000018016be18     CmEventProfiler.obj
 0003:00001e1c       ?flushUpdates@SceneQuery@ProfileEventId@Cm@physx@@2UPxProfileEventId@4@B 000000018016be1c     CmEventProfiler.obj
 0003:00001e20       ?getFrictionPatch@Dynamics@ProfileEventId@Cm@physx@@2UPxProfileEventId@4@B 000000018016be20     CmEventProfiler.obj
 0003:00001e24       ?projectConstraints@Sim@ProfileEventId@Cm@physx@@2UPxProfileEventId@4@B 000000018016be24     CmEventProfiler.obj
 0003:00001e28       ?solveGroup@Dynamics@ProfileEventId@Cm@physx@@2UPxProfileEventId@4@B 000000018016be28     CmEventProfiler.obj
 0003:00001e2c       ?fetchResults@Sim@ProfileEventId@Cm@physx@@2UPxProfileEventId@4@B 000000018016be2c     CmEventProfiler.obj
 0003:00001e30       ?flushSimulation@API@ProfileEventId@Cm@physx@@2UPxProfileEventId@4@B 000000018016be30     CmEventProfiler.obj
 0003:00001e34       ?updateKinematics@Dynamics@ProfileEventId@Cm@physx@@2UPxProfileEventId@4@B 000000018016be34     CmEventProfiler.obj
 0003:00001e38       ?raycastMultiple@BatchedSceneQuery@ProfileEventId@Cm@physx@@2UPxProfileEventId@4@B 000000018016be38     CmEventProfiler.obj
 0003:00001e3c       ?removeAggregate@API@ProfileEventId@Cm@physx@@2UPxProfileEventId@4@B 000000018016be3c     CmEventProfiler.obj
 0003:00001e40       ?syncBodiesAfterIntegration@Sim@ProfileEventId@Cm@physx@@2UPxProfileEventId@4@B 000000018016be40     CmEventProfiler.obj
 0003:00001e44       ?visualizeEndStep@Sim@ProfileEventId@Cm@physx@@2UPxProfileEventId@4@B 000000018016be44     CmEventProfiler.obj
 0003:00001e48       ?startStep@ParticleSim@ProfileEventId@Cm@physx@@2UPxProfileEventId@4@B 000000018016be48     CmEventProfiler.obj
 0003:00001e4c       ?finish@BroadPhase@ProfileEventId@Cm@physx@@2UPxProfileEventId@4@B 000000018016be4c     CmEventProfiler.obj
 0003:00001e50       ?overlapMultiple@SceneQuery@ProfileEventId@Cm@physx@@2UPxProfileEventId@4@B 000000018016be50     CmEventProfiler.obj
 0003:00001e54       ?removeParticleSystem@API@ProfileEventId@Cm@physx@@2UPxProfileEventId@4@B 000000018016be54     CmEventProfiler.obj
 0003:00001e58       ?addActors@API@ProfileEventId@Cm@physx@@2UPxProfileEventId@4@B 000000018016be58     CmEventProfiler.obj
 0003:00001e5c       ?sweepAny@SceneQuery@ProfileEventId@Cm@physx@@2UPxProfileEventId@4@B 000000018016be5c     CmEventProfiler.obj
 0003:00001e60       ?visualizeStartStep@Sim@ProfileEventId@Cm@physx@@2UPxProfileEventId@4@B 000000018016be60     CmEventProfiler.obj
 0003:00001e64       ?raycastSingle@BatchedSceneQuery@ProfileEventId@Cm@physx@@2UPxProfileEventId@4@B 000000018016be64     CmEventProfiler.obj
 0003:00001e68       ?postIslandGenSecondPass@Sim@ProfileEventId@Cm@physx@@2UPxProfileEventId@4@B 000000018016be68     CmEventProfiler.obj
 0003:00001e6c       ?updateIslandsSecondPass@Sim@ProfileEventId@Cm@physx@@2UPxProfileEventId@4@B 000000018016be6c     CmEventProfiler.obj
 0003:00001e70       ?processLostOverlaps@Sim@ProfileEventId@Cm@physx@@2UPxProfileEventId@4@B 000000018016be70     CmEventProfiler.obj
 0003:00001e74       ?updateBroadphase@BroadPhase@ProfileEventId@Cm@physx@@2UPxProfileEventId@4@B 000000018016be74     CmEventProfiler.obj
 0003:00001e78       ?preIslandGen@Sim@ProfileEventId@Cm@physx@@2UPxProfileEventId@4@B 000000018016be78     CmEventProfiler.obj
 0003:00001e7c       ?fetchResults@Basic@ProfileEventId@Cm@physx@@2UPxProfileEventId@4@B 000000018016be7c     CmEventProfiler.obj
 0003:00001e80       ?jointLoads@Articulations@ProfileEventId@Cm@physx@@2UPxProfileEventId@4@B 000000018016be80     CmEventProfiler.obj
 0003:00001e84       ?applyExternalImpulses@Articulations@ProfileEventId@Cm@physx@@2UPxProfileEventId@4@B 000000018016be84     CmEventProfiler.obj
 0003:00001e88       ?duplicateKinematicNodes@IslandGen@ProfileEventId@Cm@physx@@2UPxProfileEventId@4@B 000000018016be88     CmEventProfiler.obj
 0003:00001e8c       ?updatePVDProperties@PVD@ProfileEventId@Cm@physx@@2UPxProfileEventId@4@B 000000018016be8c     CmEventProfiler.obj
 0003:00001e90       ?taskFrameworkSetup@Sim@ProfileEventId@Cm@physx@@2UPxProfileEventId@4@B 000000018016be90     CmEventProfiler.obj
 0003:00001e94       ?prepareDataBlock@Articulations@ProfileEventId@Cm@physx@@2UPxProfileEventId@4@B 000000018016be94     CmEventProfiler.obj
 0003:00001e98       ?addCloth@API@ProfileEventId@Cm@physx@@2UPxProfileEventId@4@B 000000018016be98     CmEventProfiler.obj
 0003:00001e9c       ?updateDirtyShaders@Sim@ProfileEventId@Cm@physx@@2UPxProfileEventId@4@B 000000018016be9c     CmEventProfiler.obj
 0003:00001ea0       ?checkCollision@Basic@ProfileEventId@Cm@physx@@2UPxProfileEventId@4@B 000000018016bea0     CmEventProfiler.obj
 0003:00001ea4       ?sweepSingleList@SceneQuery@ProfileEventId@Cm@physx@@2UPxProfileEventId@4@B 000000018016bea4     CmEventProfiler.obj
 0003:00001ea8       ?overlapMultiple@BatchedSceneQuery@ProfileEventId@Cm@physx@@2UPxProfileEventId@4@B 000000018016bea8     CmEventProfiler.obj
 0003:00001eac       ?createPVDInstance@PVD@ProfileEventId@Cm@physx@@2UPxProfileEventId@4@B 000000018016beac     CmEventProfiler.obj
 0003:00001eb0       ?finishModifiablePairs@Sim@ProfileEventId@Cm@physx@@2UPxProfileEventId@4@B 000000018016beb0     CmEventProfiler.obj
 0003:00001eb4       ?sceneFinalization@Sim@ProfileEventId@Cm@physx@@2UPxProfileEventId@4@B 000000018016beb4     CmEventProfiler.obj
 0003:00001eb8       ?integrate@Articulations@ProfileEventId@Cm@physx@@2UPxProfileEventId@4@B 000000018016beb8     CmEventProfiler.obj
 0003:00001ebc       ?narrowPhase@Basic@ProfileEventId@Cm@physx@@2UPxProfileEventId@4@B 000000018016bebc     CmEventProfiler.obj
 0003:00001ec0       ?addActor@API@ProfileEventId@Cm@physx@@2UPxProfileEventId@4@B 000000018016bec0     CmEventProfiler.obj
 0003:00001ec4       ?brokenEdgeIslands@IslandGen@ProfileEventId@Cm@physx@@2UPxProfileEventId@4@B 000000018016bec4     CmEventProfiler.obj
 0003:00001ec8       ?checkResults@Basic@ProfileEventId@Cm@physx@@2UPxProfileEventId@4@B 000000018016bec8     CmEventProfiler.obj
 0003:00001ecc       ?simAddShapeToBroadPhase@API@ProfileEventId@Cm@physx@@2UPxProfileEventId@4@B 000000018016becc     CmEventProfiler.obj
 0003:00001ed0       ?createdNodes@IslandGen@ProfileEventId@Cm@physx@@2UPxProfileEventId@4@B 000000018016bed0     CmEventProfiler.obj
 0003:00001ed4       ?MBPPostUpdate@BroadPhase@ProfileEventId@Cm@physx@@2UPxProfileEventId@4@B 000000018016bed4     CmEventProfiler.obj
 0003:00001ed8       ?collision@Basic@ProfileEventId@Cm@physx@@2UPxProfileEventId@4@B 000000018016bed8     CmEventProfiler.obj
 0003:00001edc       ?sweepMultiple@SceneQuery@ProfileEventId@Cm@physx@@2UPxProfileEventId@4@B 000000018016bedc     CmEventProfiler.obj
 0003:00001ee0       ?processBPResults@BroadPhase@ProfileEventId@Cm@physx@@2UPxProfileEventId@4@B 000000018016bee0     CmEventProfiler.obj
 0003:00001ee4       ?updateForces@Sim@ProfileEventId@Cm@physx@@2UPxProfileEventId@4@B 000000018016bee4     CmEventProfiler.obj
 0003:00001ee8       ?applyJointDrives@Articulations@ProfileEventId@Cm@physx@@2UPxProfileEventId@4@B 000000018016bee8     CmEventProfiler.obj
 0003:00001eec       ?resizeForKinematics@IslandGen@ProfileEventId@Cm@physx@@2UPxProfileEventId@4@B 000000018016beec     CmEventProfiler.obj
 0003:00001ef0       ?addShapesToSQ@API@ProfileEventId@Cm@physx@@2UPxProfileEventId@4@B 000000018016bef0     CmEventProfiler.obj
 0003:00001ef4       ?queueNarrowPhase@Sim@ProfileEventId@Cm@physx@@2UPxProfileEventId@4@B 000000018016bef4     CmEventProfiler.obj
 0003:00001ef8       ?updateVelocities@Dynamics@ProfileEventId@Cm@physx@@2UPxProfileEventId@4@B 000000018016bef8     CmEventProfiler.obj
 0003:00001efc       ?SapPostUpdateSPU@BroadPhase@ProfileEventId@Cm@physx@@2UPxProfileEventId@4@B 000000018016befc     CmEventProfiler.obj
 0003:00001f00       ?addShapesToSim@API@ProfileEventId@Cm@physx@@2UPxProfileEventId@4@B 000000018016bf00     CmEventProfiler.obj
 0003:00001f04       ?raycastMultiple@SceneQuery@ProfileEventId@Cm@physx@@2UPxProfileEventId@4@B 000000018016bf04     CmEventProfiler.obj
 0003:000021b0       ?boxVertexTable@physx@@3QBT__m128@@B 000000018016c1b0     GuConvexSupportTable.obj
 0003:00002d70       ?sFirstPoolPage@RTree@Gu@physx@@1PEAURTreePage@23@EA 000000018016cd70     GuRTree.obj
 0003:00003bb0       ?__type_info_root_node@@3U__type_info_node@@A 000000018016dbb0     MSVCRT:tncleanup.obj
 0003:00003bc0       __scrt_current_native_startup_state 000000018016dbc0     MSVCRT:utility.obj
 0003:00003bc8       __scrt_native_startup_lock 000000018016dbc8     MSVCRT:utility.obj
 0003:00003c08       __favor                    000000018016dc08     MSVCRT:_cpu_disp_.obj
 0003:00003c0c       __scrt_debugger_hook_flag  000000018016dc0c     MSVCRT:utility_desktop.obj
 0003:00003c10       ?_OptionsStorage@?1??__local_stdio_scanf_options@@9@4_KA 000000018016dc10     MSVCRT:default_local_stdio_options.obj
 0003:00003c18       __dyn_tls_init_callback    000000018016dc18     <common>

 entry point at        0001:00140364

 Static symbols

 0004:ffe92000       $pdata$1$??_EPxTriangleMesh@physx@@MEAAPEAXI@Z 0000000180000000     GuSweepsHF.obj
 0000:ffe87000       .debug$S                   0000000180000000     ucrt:api-ms-win-crt-heap-l1-1-0.dll
 0004:ffe92000       $pdata$??_EPxConvexMesh@physx@@MEAAPEAXI@Z 0000000180000000     GuConvexUtilsInternal.obj
 0000:ffe87000       .debug$S                   0000000180000000     PhysX3Common_x64.exp
 0002:ffebe000       $unwind$??_EPxConvexMesh@physx@@MEAAPEAXI@Z 0000000180000000     GuConvexUtilsInternal.obj
 0004:ffe92000       $pdata$?isKindOf@PxConvexMesh@physx@@MEBA_NPEBD@Z 0000000180000000     GuConvexUtilsInternal.obj
 0002:ffebe000       $unwind$?isKindOf@PxConvexMesh@physx@@MEBA_NPEBD@Z 0000000180000000     GuConvexUtilsInternal.obj
 0004:ffe92000       $pdata$??_GPxBase@physx@@MEAAPEAXI@Z 0000000180000000     GuConvexUtilsInternal.obj
 0002:ffebe000       $unwind$??_GPxBase@physx@@MEAAPEAXI@Z 0000000180000000     GuConvexUtilsInternal.obj
 0004:ffe92000       $pdata$0$??_EPxConvexMesh@physx@@MEAAPEAXI@Z 0000000180000000     GuConvexUtilsInternal.obj
 0002:ffebe000       $chain$1$??_EPxConvexMesh@physx@@MEAAPEAXI@Z 0000000180000000     GuConvexUtilsInternal.obj
 0004:ffe92000       $pdata$?computeBoxPoints@Box@Gu@physx@@QEBAXPEIAVPxVec3@3@@Z 0000000180000000     GuConvexUtilsInternal.obj
 0002:ffebe000       $unwind$?computeBoxPoints@Box@Gu@physx@@QEBAXPEIAVPxVec3@3@@Z 0000000180000000     GuConvexUtilsInternal.obj
 0004:ffe92000       $pdata$?computeAABBExtent@Box@Gu@physx@@QEBA?AVPxVec3@3@XZ 0000000180000000     GuConvexUtilsInternal.obj
 0002:ffebe000       $unwind$?computeAABBExtent@Box@Gu@physx@@QEBA?AVPxVec3@3@XZ 0000000180000000     GuConvexUtilsInternal.obj
 0004:ffe92000       $pdata$?getTransform@Box@Gu@physx@@QEBA?AVPxTransform@3@XZ 0000000180000000     GuConvexUtilsInternal.obj
 0002:ffebe000       $unwind$?getTransform@Box@Gu@physx@@QEBA?AVPxTransform@3@XZ 0000000180000000     GuConvexUtilsInternal.obj
 0004:ffe92000       $pdata$?transform@Box@Gu@physx@@QEBA?AVPxVec3@3@AEBV43@@Z 0000000180000000     GuConvexUtilsInternal.obj
 0002:ffebe000       $unwind$?transform@Box@Gu@physx@@QEBA?AVPxVec3@3@AEBV43@@Z 0000000180000000     GuConvexUtilsInternal.obj
 0004:ffe92000       $pdata$?rotateInv@Box@Gu@physx@@QEBA?AVPxVec3@3@AEBV43@@Z 0000000180000000     GuConvexUtilsInternal.obj
 0002:ffebe000       $unwind$?rotateInv@Box@Gu@physx@@QEBA?AVPxVec3@3@AEBV43@@Z 0000000180000000     GuConvexUtilsInternal.obj
 0004:ffe92000       $pdata$?rotate@Box@Gu@physx@@QEBA?AVPxVec3@3@AEBV43@@Z 0000000180000000     GuConvexUtilsInternal.obj
 0002:ffebe000       $unwind$?rotate@Box@Gu@physx@@QEBA?AVPxVec3@3@AEBV43@@Z 0000000180000000     GuConvexUtilsInternal.obj
 0004:ffe92000       $pdata$?transformQueryBounds@FastVertex2ShapeScaling@Cm@physx@@QEBAXAEAVPxVec3@3@0AEAVPxMat33@3@@Z 0000000180000000     GuConvexUtilsInternal.obj
 0002:ffebe000       $unwind$?transformQueryBounds@FastVertex2ShapeScaling@Cm@physx@@QEBAXAEAVPxVec3@3@0AEAVPxMat33@3@@Z 0000000180000000     GuConvexUtilsInternal.obj
 0004:ffe92000       $pdata$6$?getInverse@PxMat33@physx@@QEBA?AV12@XZ 0000000180000000     GuConvexUtilsInternal.obj
 0002:ffebe000       $chain$6$?getInverse@PxMat33@physx@@QEBA?AV12@XZ 0000000180000000     GuConvexUtilsInternal.obj
 0004:ffe92000       $pdata$5$?getInverse@PxMat33@physx@@QEBA?AV12@XZ 0000000180000000     GuConvexUtilsInternal.obj
 0002:ffebe000       $chain$5$?getInverse@PxMat33@physx@@QEBA?AV12@XZ 0000000180000000     GuConvexUtilsInternal.obj
 0004:ffe92000       $pdata$?getInverse@PxMat33@physx@@QEBA?AV12@XZ 0000000180000000     GuConvexUtilsInternal.obj
 0002:ffebe000       $unwind$?getInverse@PxMat33@physx@@QEBA?AV12@XZ 0000000180000000     GuConvexUtilsInternal.obj
 0004:ffe92000       $pdata$1$??_EPxConvexMesh@physx@@MEAAPEAXI@Z 0000000180000000     GuConvexUtilsInternal.obj
 0002:ffebe000       $unwind$??_GPxFoundation@physx@@MEAAPEAXI@Z 0000000180000000     GuConvexUtilsInternal.obj
 0004:ffe92000       $pdata$??_GPxFoundation@physx@@MEAAPEAXI@Z 0000000180000000     GuConvexUtilsInternal.obj
 0004:ffe92000       $pdata$??_I@YAXPEAX_K1P6AX0@Z@Z 0000000180000000     GuConvexUtilsInternal.obj
 0002:ffebe000       $unwind$??_I@YAXPEAX_K1P6AX0@Z@Z 0000000180000000     GuConvexUtilsInternal.obj
 0002:ffebe000       $unwind$??_EPxFoundation@physx@@MEAAPEAXI@Z 0000000180000000     GuConvexUtilsInternal.obj
 0004:ffe92000       $pdata$??_EPxFoundation@physx@@MEAAPEAXI@Z 0000000180000000     GuConvexUtilsInternal.obj
 0004:ffe92000       $pdata$1$??_EPxFoundation@physx@@MEAAPEAXI@Z 0000000180000000     GuHillClimbing.obj
 0002:ffebe000       $chain$1$??_EPxFoundation@physx@@MEAAPEAXI@Z 0000000180000000     GuHillClimbing.obj
 0004:ffe92000       $pdata$0$??_EPxFoundation@physx@@MEAAPEAXI@Z 0000000180000000     GuHillClimbing.obj
 0002:ffebe000       $chain$0$??_EPxFoundation@physx@@MEAAPEAXI@Z 0000000180000000     GuHillClimbing.obj
 0004:ffe92000       $pdata$??_EPxFoundation@physx@@MEAAPEAXI@Z 0000000180000000     GuHillClimbing.obj
 0002:ffebe000       $unwind$??_EPxFoundation@physx@@MEAAPEAXI@Z 0000000180000000     GuHillClimbing.obj
 0004:ffe92000       $pdata$??_GPxFoundation@physx@@MEAAPEAXI@Z 0000000180000000     GuHillClimbing.obj
 0002:ffebe000       $unwind$??_GPxFoundation@physx@@MEAAPEAXI@Z 0000000180000000     GuHillClimbing.obj
 0004:ffe92000       $pdata$??_I@YAXPEAX_K1P6AX0@Z@Z 0000000180000000     GuHillClimbing.obj
 0002:ffebe000       $unwind$??_I@YAXPEAX_K1P6AX0@Z@Z 0000000180000000     GuHillClimbing.obj
 0002:ffebe000       $chain$0$??_EPxFoundation@physx@@MEAAPEAXI@Z 0000000180000000     GuConvexUtilsInternal.obj
 0004:ffe92000       $pdata$0$??_EPxFoundation@physx@@MEAAPEAXI@Z 0000000180000000     GuConvexUtilsInternal.obj
 0002:ffebe000       $chain$1$??_EPxFoundation@physx@@MEAAPEAXI@Z 0000000180000000     GuConvexUtilsInternal.obj
 0004:ffe92000       $pdata$1$??_EPxFoundation@physx@@MEAAPEAXI@Z 0000000180000000     GuConvexUtilsInternal.obj
 0002:ffebe000       $unwind$??_GRefCountable@Cm@physx@@UEAAPEAXI@Z 0000000180000000     GuConvexUtilsInternal.obj
 0004:ffe92000       $pdata$??_GRefCountable@Cm@physx@@UEAAPEAXI@Z 0000000180000000     GuConvexUtilsInternal.obj
 0002:ffebe000       $unwind$?allocate@?$ReflectionAllocator@UPxDebugLine@physx@@@shdfnd@physx@@QEAAPEAX_KPEBDH@Z 0000000180000000     GuConvexUtilsInternal.obj
 0004:ffe92000       $pdata$?allocate@?$ReflectionAllocator@UPxDebugLine@physx@@@shdfnd@physx@@QEAAPEAX_KPEBDH@Z 0000000180000000     GuConvexUtilsInternal.obj
 0002:ffebe000       $chain$0$?allocate@?$ReflectionAllocator@UPxDebugLine@physx@@@shdfnd@physx@@QEAAPEAX_KPEBDH@Z 0000000180000000     GuConvexUtilsInternal.obj
 0004:ffe92000       $pdata$0$?allocate@?$ReflectionAllocator@UPxDebugLine@physx@@@shdfnd@physx@@QEAAPEAX_KPEBDH@Z 0000000180000000     GuConvexUtilsInternal.obj
 0002:ffebe000       $chain$1$?allocate@?$ReflectionAllocator@UPxDebugLine@physx@@@shdfnd@physx@@QEAAPEAX_KPEBDH@Z 0000000180000000     GuConvexUtilsInternal.obj
 0004:ffe92000       $pdata$1$?allocate@?$ReflectionAllocator@UPxDebugLine@physx@@@shdfnd@physx@@QEAAPEAX_KPEBDH@Z 0000000180000000     GuConvexUtilsInternal.obj
 0002:ffebe000       $unwind$?resizeUninitialized@?$Array@UPxDebugLine@physx@@V?$ReflectionAllocator@UPxDebugLine@physx@@@shdfnd@2@@shdfnd@physx@@QEAAXI@Z 0000000180000000     GuConvexUtilsInternal.obj
 0004:ffe92000       $pdata$?resizeUninitialized@?$Array@UPxDebugLine@physx@@V?$ReflectionAllocator@UPxDebugLine@physx@@@shdfnd@2@@shdfnd@physx@@QEAAXI@Z 0000000180000000     GuConvexUtilsInternal.obj
 0002:ffebe000       $unwind$?copy@?$Array@UPxDebugLine@physx@@V?$ReflectionAllocator@UPxDebugLine@physx@@@shdfnd@2@@shdfnd@physx@@KAXPEAUPxDebugLine@3@0PEBU43@@Z 0000000180000000     GuConvexUtilsInternal.obj
 0004:ffe92000       $pdata$?copy@?$Array@UPxDebugLine@physx@@V?$ReflectionAllocator@UPxDebugLine@physx@@@shdfnd@2@@shdfnd@physx@@KAXPEAUPxDebugLine@3@0PEBU43@@Z 0000000180000000     GuConvexUtilsInternal.obj
 0002:ffebe000       $chain$0$?copy@?$Array@UPxDebugLine@physx@@V?$ReflectionAllocator@UPxDebugLine@physx@@@shdfnd@2@@shdfnd@physx@@KAXPEAUPxDebugLine@3@0PEBU43@@Z 0000000180000000     GuConvexUtilsInternal.obj
 0004:ffe92000       $pdata$??0RTreeMidphase@Gu@physx@@QEAA@AEBW4PxEMPTY@2@@Z 0000000180000000     GuShapeConvex.obj
 0002:ffebe000       $unwind$??0RTreeMidphase@Gu@physx@@QEAA@AEBW4PxEMPTY@2@@Z 0000000180000000     GuShapeConvex.obj
 0004:ffe92000       $pdata$1$??_EPxFoundation@physx@@MEAAPEAXI@Z 0000000180000000     GuShapeConvex.obj
 0002:ffebe000       $chain$1$??_EPxFoundation@physx@@MEAAPEAXI@Z 0000000180000000     GuShapeConvex.obj
 0004:ffe92000       $pdata$0$??_EPxFoundation@physx@@MEAAPEAXI@Z 0000000180000000     GuShapeConvex.obj
 0002:ffebe000       $chain$0$??_EPxFoundation@physx@@MEAAPEAXI@Z 0000000180000000     GuShapeConvex.obj
 0004:ffe92000       $pdata$??_EPxFoundation@physx@@MEAAPEAXI@Z 0000000180000000     GuShapeConvex.obj
 0002:ffebe000       $unwind$??_EPxFoundation@physx@@MEAAPEAXI@Z 0000000180000000     GuShapeConvex.obj
 0004:ffe92000       $pdata$??_GPxFoundation@physx@@MEAAPEAXI@Z 0000000180000000     GuShapeConvex.obj
 0002:ffebe000       $unwind$??_GPxFoundation@physx@@MEAAPEAXI@Z 0000000180000000     GuShapeConvex.obj
 0004:ffe92000       $pdata$?isKindOf@PxTriangleMesh@physx@@MEBA_NPEBD@Z 0000000180000000     GuShapeConvex.obj
 0002:ffebe000       $unwind$?isKindOf@PxTriangleMesh@physx@@MEBA_NPEBD@Z 0000000180000000     GuShapeConvex.obj
 0004:ffe92000       $pdata$??_GPxBase@physx@@MEAAPEAXI@Z 0000000180000000     GuShapeConvex.obj
 0002:ffebe000       $unwind$??_GPxBase@physx@@MEAAPEAXI@Z 0000000180000000     GuShapeConvex.obj
 0004:ffe92000       $pdata$?computeBoxPoints@Box@Gu@physx@@QEBAXPEIAVPxVec3@3@@Z 0000000180000000     GuShapeConvex.obj
 0002:ffebe000       $unwind$?computeBoxPoints@Box@Gu@physx@@QEBAXPEIAVPxVec3@3@@Z 0000000180000000     GuShapeConvex.obj
 0004:ffe92000       $pdata$?computeAABBExtent@Box@Gu@physx@@QEBA?AVPxVec3@3@XZ 0000000180000000     GuShapeConvex.obj
 0002:ffebe000       $unwind$?computeAABBExtent@Box@Gu@physx@@QEBA?AVPxVec3@3@XZ 0000000180000000     GuShapeConvex.obj
 0004:ffe92000       $pdata$?getTransform@Box@Gu@physx@@QEBA?AVPxTransform@3@XZ 0000000180000000     GuShapeConvex.obj
 0002:ffebe000       $unwind$?getTransform@Box@Gu@physx@@QEBA?AVPxTransform@3@XZ 0000000180000000     GuShapeConvex.obj
 0004:ffe92000       $pdata$?transform@Box@Gu@physx@@QEBA?AVPxVec3@3@AEBV43@@Z 0000000180000000     GuShapeConvex.obj
 0002:ffebe000       $unwind$?transform@Box@Gu@physx@@QEBA?AVPxVec3@3@AEBV43@@Z 0000000180000000     GuShapeConvex.obj
 0004:ffe92000       $pdata$?rotateInv@Box@Gu@physx@@QEBA?AVPxVec3@3@AEBV43@@Z 0000000180000000     GuShapeConvex.obj
 0002:ffebe000       $unwind$?rotateInv@Box@Gu@physx@@QEBA?AVPxVec3@3@AEBV43@@Z 0000000180000000     GuShapeConvex.obj
 0004:ffe92000       $pdata$?rotate@Box@Gu@physx@@QEBA?AVPxVec3@3@AEBV43@@Z 0000000180000000     GuShapeConvex.obj
 0002:ffebe000       $unwind$?rotate@Box@Gu@physx@@QEBA?AVPxVec3@3@AEBV43@@Z 0000000180000000     GuShapeConvex.obj
 0004:ffe92000       $pdata$0$?copy@?$Array@UPxDebugLine@physx@@V?$ReflectionAllocator@UPxDebugLine@physx@@@shdfnd@2@@shdfnd@physx@@KAXPEAUPxDebugLine@3@0PEBU43@@Z 0000000180000000     GuConvexUtilsInternal.obj
 0004:ffe92000       $pdata$??0PolygonalBox@Gu@physx@@QEAA@AEBV012@@Z 0000000180000000     GuShapeConvex.obj
 0002:ffebe000       $unwind$??0PolygonalBox@Gu@physx@@QEAA@AEBV012@@Z 0000000180000000     GuShapeConvex.obj
 0002:ffebe000       $chain$1$?copy@?$Array@UPxDebugLine@physx@@V?$ReflectionAllocator@UPxDebugLine@physx@@@shdfnd@2@@shdfnd@physx@@KAXPEAUPxDebugLine@3@0PEBU43@@Z 0000000180000000     GuConvexUtilsInternal.obj
 0004:ffe92000       $pdata$??_I@YAXPEAX_K1P6AX0@Z@Z 0000000180000000     GuShapeConvex.obj
 0002:ffebe000       $unwind$??_I@YAXPEAX_K1P6AX0@Z@Z 0000000180000000     GuShapeConvex.obj
 0004:ffe92000       $pdata$1$??__G@YAXPEAX0_K1P6APEAX00@Z@Z 0000000180000000     GuShapeConvex.obj
 0002:ffebe000       $chain$1$??__G@YAXPEAX0_K1P6APEAX00@Z@Z 0000000180000000     GuShapeConvex.obj
 0004:ffe92000       $pdata$0$??__G@YAXPEAX0_K1P6APEAX00@Z@Z 0000000180000000     GuShapeConvex.obj
 0002:ffebe000       $chain$0$??__G@YAXPEAX0_K1P6APEAX00@Z@Z 0000000180000000     GuShapeConvex.obj
 0004:ffe92000       $pdata$??__G@YAXPEAX0_K1P6APEAX00@Z@Z 0000000180000000     GuShapeConvex.obj
 0002:ffebe000       $unwind$??__G@YAXPEAX0_K1P6APEAX00@Z@Z 0000000180000000     GuShapeConvex.obj
 0004:ffe92000       $pdata$??_H@YAXPEAX_K1P6APEAX0@Z@Z 0000000180000000     GuShapeConvex.obj
 0002:ffebe000       $unwind$??_H@YAXPEAX_K1P6APEAX0@Z@Z 0000000180000000     GuShapeConvex.obj
 0004:ffe92000       $pdata$1$?copy@?$Array@UPxDebugLine@physx@@V?$ReflectionAllocator@UPxDebugLine@physx@@@shdfnd@2@@shdfnd@physx@@KAXPEAUPxDebugLine@3@0PEBU43@@Z 0000000180000000     GuConvexUtilsInternal.obj
 0002:ffebe000       $unwind$?growAndPushBack@?$Array@UPxDebugLine@physx@@V?$ReflectionAllocator@UPxDebugLine@physx@@@shdfnd@2@@shdfnd@physx@@IEAAAEAUPxDebugLine@3@AEBU43@@Z 0000000180000000     GuConvexUtilsInternal.obj
 0004:ffe92000       $pdata$?growAndPushBack@?$Array@UPxDebugLine@physx@@V?$ReflectionAllocator@UPxDebugLine@physx@@@shdfnd@2@@shdfnd@physx@@IEAAAEAUPxDebugLine@3@AEBU43@@Z 0000000180000000     GuConvexUtilsInternal.obj
 0004:ffe92000       $pdata$?computeBoxPoints@Box@Gu@physx@@QEBAXPEIAVPxVec3@3@@Z 0000000180000000     GuDistancePointBox.obj
 0002:ffebe000       $unwind$?computeBoxPoints@Box@Gu@physx@@QEBAXPEIAVPxVec3@3@@Z 0000000180000000     GuDistancePointBox.obj
 0004:ffe92000       $pdata$?computeAABBExtent@Box@Gu@physx@@QEBA?AVPxVec3@3@XZ 0000000180000000     GuDistancePointBox.obj
 0002:ffebe000       $unwind$?computeAABBExtent@Box@Gu@physx@@QEBA?AVPxVec3@3@XZ 0000000180000000     GuDistancePointBox.obj
 0004:ffe92000       $pdata$?getTransform@Box@Gu@physx@@QEBA?AVPxTransform@3@XZ 0000000180000000     GuDistancePointBox.obj
 0002:ffebe000       $unwind$?getTransform@Box@Gu@physx@@QEBA?AVPxTransform@3@XZ 0000000180000000     GuDistancePointBox.obj
 0004:ffe92000       $pdata$?transform@Box@Gu@physx@@QEBA?AVPxVec3@3@AEBV43@@Z 0000000180000000     GuDistancePointBox.obj
 0002:ffebe000       $unwind$?transform@Box@Gu@physx@@QEBA?AVPxVec3@3@AEBV43@@Z 0000000180000000     GuDistancePointBox.obj
 0004:ffe92000       $pdata$?rotateInv@Box@Gu@physx@@QEBA?AVPxVec3@3@AEBV43@@Z 0000000180000000     GuDistancePointBox.obj
 0002:ffebe000       $unwind$?rotateInv@Box@Gu@physx@@QEBA?AVPxVec3@3@AEBV43@@Z 0000000180000000     GuDistancePointBox.obj
 0004:ffe92000       $pdata$?rotate@Box@Gu@physx@@QEBA?AVPxVec3@3@AEBV43@@Z 0000000180000000     GuDistancePointBox.obj
 0002:ffebe000       $unwind$?rotate@Box@Gu@physx@@QEBA?AVPxVec3@3@AEBV43@@Z 0000000180000000     GuDistancePointBox.obj
 0002:ffebe000       $unwind$?recreate@?$Array@UPxDebugLine@physx@@V?$ReflectionAllocator@UPxDebugLine@physx@@@shdfnd@2@@shdfnd@physx@@IEAAXI@Z 0000000180000000     GuConvexUtilsInternal.obj
 0004:ffe92000       $pdata$?recreate@?$Array@UPxDebugLine@physx@@V?$ReflectionAllocator@UPxDebugLine@physx@@@shdfnd@2@@shdfnd@physx@@IEAAXI@Z 0000000180000000     GuConvexUtilsInternal.obj
 0002:ffebe000       $unwind$?reserveSegments@RenderOutput@Cm@physx@@QEAAPEAUPxDebugLine@3@I@Z 0000000180000000     GuConvexUtilsInternal.obj
 0004:ffe92000       $pdata$?reserveSegments@RenderOutput@Cm@physx@@QEAAPEAUPxDebugLine@3@I@Z 0000000180000000     GuConvexUtilsInternal.obj
 0002:ffebe000       $unwind$?outputSegment@RenderOutput@Cm@physx@@QEAAXAEBVPxVec3@3@0@Z 0000000180000000     GuConvexUtilsInternal.obj
 0004:ffe92000       $pdata$?outputSegment@RenderOutput@Cm@physx@@QEAAXAEBVPxVec3@3@0@Z 0000000180000000     GuConvexUtilsInternal.obj
 0002:ffebe000       $unwind$??_EConvexMesh@Gu@physx@@UEAAPEAXI@Z 0000000180000000     GuConvexUtilsInternal.obj
 0004:ffe92000       $pdata$??_EConvexMesh@Gu@physx@@UEAAPEAXI@Z 0000000180000000     GuConvexUtilsInternal.obj
 0002:ffebe000       $chain$2$??_EConvexMesh@Gu@physx@@UEAAPEAXI@Z 0000000180000000     GuConvexUtilsInternal.obj
 0004:ffe92000       $pdata$2$??_EConvexMesh@Gu@physx@@UEAAPEAXI@Z 0000000180000000     GuConvexUtilsInternal.obj
 0002:ffebe000       $chain$3$??_EConvexMesh@Gu@physx@@UEAAPEAXI@Z 0000000180000000     GuConvexUtilsInternal.obj
 0004:ffe92000       $pdata$3$??_EConvexMesh@Gu@physx@@UEAAPEAXI@Z 0000000180000000     GuConvexUtilsInternal.obj
 0002:ffebe000       $chain$5$??_EConvexMesh@Gu@physx@@UEAAPEAXI@Z 0000000180000000     GuConvexUtilsInternal.obj
 0004:ffe92000       $pdata$5$??_EConvexMesh@Gu@physx@@UEAAPEAXI@Z 0000000180000000     GuConvexUtilsInternal.obj
 0002:ffebe000       $chain$6$??_EConvexMesh@Gu@physx@@UEAAPEAXI@Z 0000000180000000     GuConvexUtilsInternal.obj
 0004:ffe92000       $pdata$6$??_EConvexMesh@Gu@physx@@UEAAPEAXI@Z 0000000180000000     GuConvexUtilsInternal.obj
 0002:ffebe000       $unwind$??_I@YAXPEAX_K1P6AX0@Z@Z 0000000180000000     GuConvexMesh.obj
 0004:ffe92000       $pdata$??_I@YAXPEAX_K1P6AX0@Z@Z 0000000180000000     GuConvexMesh.obj
 0002:ffebe000       $unwind$??_GPxFoundation@physx@@MEAAPEAXI@Z 0000000180000000     GuConvexMesh.obj
 0004:ffe92000       $pdata$??_GPxFoundation@physx@@MEAAPEAXI@Z 0000000180000000     GuConvexMesh.obj
 0004:ffe92000       $pdata$?computeBoxPoints@Box@Gu@physx@@QEBAXPEIAVPxVec3@3@@Z 0000000180000000     GuDistanceSegmentBox.obj
 0002:ffebe000       $unwind$?computeBoxPoints@Box@Gu@physx@@QEBAXPEIAVPxVec3@3@@Z 0000000180000000     GuDistanceSegmentBox.obj
 0004:ffe92000       $pdata$?computeAABBExtent@Box@Gu@physx@@QEBA?AVPxVec3@3@XZ 0000000180000000     GuDistanceSegmentBox.obj
 0002:ffebe000       $unwind$?computeAABBExtent@Box@Gu@physx@@QEBA?AVPxVec3@3@XZ 0000000180000000     GuDistanceSegmentBox.obj
 0004:ffe92000       $pdata$?getTransform@Box@Gu@physx@@QEBA?AVPxTransform@3@XZ 0000000180000000     GuDistanceSegmentBox.obj
 0002:ffebe000       $unwind$?getTransform@Box@Gu@physx@@QEBA?AVPxTransform@3@XZ 0000000180000000     GuDistanceSegmentBox.obj
 0004:ffe92000       $pdata$?transform@Box@Gu@physx@@QEBA?AVPxVec3@3@AEBV43@@Z 0000000180000000     GuDistanceSegmentBox.obj
 0002:ffebe000       $unwind$?transform@Box@Gu@physx@@QEBA?AVPxVec3@3@AEBV43@@Z 0000000180000000     GuDistanceSegmentBox.obj
 0004:ffe92000       $pdata$?rotateInv@Box@Gu@physx@@QEBA?AVPxVec3@3@AEBV43@@Z 0000000180000000     GuDistanceSegmentBox.obj
 0002:ffebe000       $unwind$?rotateInv@Box@Gu@physx@@QEBA?AVPxVec3@3@AEBV43@@Z 0000000180000000     GuDistanceSegmentBox.obj
 0004:ffe92000       $pdata$?rotate@Box@Gu@physx@@QEBA?AVPxVec3@3@AEBV43@@Z 0000000180000000     GuDistanceSegmentBox.obj
 0002:ffebe000       $unwind$?rotate@Box@Gu@physx@@QEBA?AVPxVec3@3@AEBV43@@Z 0000000180000000     GuDistanceSegmentBox.obj
 0002:ffebe000       $unwind$??_EPxFoundation@physx@@MEAAPEAXI@Z 0000000180000000     GuConvexMesh.obj
 0004:ffe92000       $pdata$??_EPxFoundation@physx@@MEAAPEAXI@Z 0000000180000000     GuConvexMesh.obj
 0002:ffebe000       $chain$0$??_EPxFoundation@physx@@MEAAPEAXI@Z 0000000180000000     GuConvexMesh.obj
 0004:ffe92000       $pdata$0$??_EPxFoundation@physx@@MEAAPEAXI@Z 0000000180000000     GuConvexMesh.obj
 0002:ffebe000       $chain$1$??_EPxFoundation@physx@@MEAAPEAXI@Z 0000000180000000     GuConvexMesh.obj
 0004:ffe92000       $pdata$1$??_EPxFoundation@physx@@MEAAPEAXI@Z 0000000180000000     GuConvexMesh.obj
 0002:ffebe000       $unwind$?allocate@?$ReflectionAllocator@UPxDebugLine@physx@@@shdfnd@physx@@QEAAPEAX_KPEBDH@Z 0000000180000000     GuConvexMesh.obj
 0004:ffe92000       $pdata$?allocate@?$ReflectionAllocator@UPxDebugLine@physx@@@shdfnd@physx@@QEAAPEAX_KPEBDH@Z 0000000180000000     GuConvexMesh.obj
 0002:ffebe000       $chain$0$?allocate@?$ReflectionAllocator@UPxDebugLine@physx@@@shdfnd@physx@@QEAAPEAX_KPEBDH@Z 0000000180000000     GuConvexMesh.obj
 0004:ffe92000       $pdata$0$?allocate@?$ReflectionAllocator@UPxDebugLine@physx@@@shdfnd@physx@@QEAAPEAX_KPEBDH@Z 0000000180000000     GuConvexMesh.obj
 0002:ffebe000       $chain$1$?allocate@?$ReflectionAllocator@UPxDebugLine@physx@@@shdfnd@physx@@QEAAPEAX_KPEBDH@Z 0000000180000000     GuConvexMesh.obj
 0004:ffe92000       $pdata$1$?allocate@?$ReflectionAllocator@UPxDebugLine@physx@@@shdfnd@physx@@QEAAPEAX_KPEBDH@Z 0000000180000000     GuConvexMesh.obj
 0002:ffebe000       $unwind$?resizeUninitialized@?$Array@UPxDebugLine@physx@@V?$ReflectionAllocator@UPxDebugLine@physx@@@shdfnd@2@@shdfnd@physx@@QEAAXI@Z 0000000180000000     GuConvexMesh.obj
 0004:ffe92000       $pdata$?resizeUninitialized@?$Array@UPxDebugLine@physx@@V?$ReflectionAllocator@UPxDebugLine@physx@@@shdfnd@2@@shdfnd@physx@@QEAAXI@Z 0000000180000000     GuConvexMesh.obj
 0002:ffebe000       $unwind$?copy@?$Array@UPxDebugLine@physx@@V?$ReflectionAllocator@UPxDebugLine@physx@@@shdfnd@2@@shdfnd@physx@@KAXPEAUPxDebugLine@3@0PEBU43@@Z 0000000180000000     GuConvexMesh.obj
 0004:ffe92000       $pdata$?copy@?$Array@UPxDebugLine@physx@@V?$ReflectionAllocator@UPxDebugLine@physx@@@shdfnd@2@@shdfnd@physx@@KAXPEAUPxDebugLine@3@0PEBU43@@Z 0000000180000000     GuConvexMesh.obj
 0002:ffebe000       $chain$0$?copy@?$Array@UPxDebugLine@physx@@V?$ReflectionAllocator@UPxDebugLine@physx@@@shdfnd@2@@shdfnd@physx@@KAXPEAUPxDebugLine@3@0PEBU43@@Z 0000000180000000     GuConvexMesh.obj
 0004:ffe92000       $pdata$0$?copy@?$Array@UPxDebugLine@physx@@V?$ReflectionAllocator@UPxDebugLine@physx@@@shdfnd@2@@shdfnd@physx@@KAXPEAUPxDebugLine@3@0PEBU43@@Z 0000000180000000     GuConvexMesh.obj
 0002:ffebe000       $chain$1$?copy@?$Array@UPxDebugLine@physx@@V?$ReflectionAllocator@UPxDebugLine@physx@@@shdfnd@2@@shdfnd@physx@@KAXPEAUPxDebugLine@3@0PEBU43@@Z 0000000180000000     GuConvexMesh.obj
 0004:ffe92000       $pdata$1$?copy@?$Array@UPxDebugLine@physx@@V?$ReflectionAllocator@UPxDebugLine@physx@@@shdfnd@2@@shdfnd@physx@@KAXPEAUPxDebugLine@3@0PEBU43@@Z 0000000180000000     GuConvexMesh.obj
 0002:ffebe000       $unwind$?growAndPushBack@?$Array@UPxDebugLine@physx@@V?$ReflectionAllocator@UPxDebugLine@physx@@@shdfnd@2@@shdfnd@physx@@IEAAAEAUPxDebugLine@3@AEBU43@@Z 0000000180000000     GuConvexMesh.obj
 0004:ffe92000       $pdata$?growAndPushBack@?$Array@UPxDebugLine@physx@@V?$ReflectionAllocator@UPxDebugLine@physx@@@shdfnd@2@@shdfnd@physx@@IEAAAEAUPxDebugLine@3@AEBU43@@Z 0000000180000000     GuConvexMesh.obj
 0002:ffebe000       $unwind$?recreate@?$Array@UPxDebugLine@physx@@V?$ReflectionAllocator@UPxDebugLine@physx@@@shdfnd@2@@shdfnd@physx@@IEAAXI@Z 0000000180000000     GuConvexMesh.obj
 0004:ffe92000       $pdata$?recreate@?$Array@UPxDebugLine@physx@@V?$ReflectionAllocator@UPxDebugLine@physx@@@shdfnd@2@@shdfnd@physx@@IEAAXI@Z 0000000180000000     GuConvexMesh.obj
 0002:ffebe000       $unwind$?reserveSegments@RenderOutput@Cm@physx@@QEAAPEAUPxDebugLine@3@I@Z 0000000180000000     GuConvexMesh.obj
 0004:ffe92000       $pdata$?reserveSegments@RenderOutput@Cm@physx@@QEAAPEAUPxDebugLine@3@I@Z 0000000180000000     GuConvexMesh.obj
 0002:ffebe000       $unwind$?outputSegment@RenderOutput@Cm@physx@@QEAAXAEBVPxVec3@3@0@Z 0000000180000000     GuConvexMesh.obj
 0004:ffe92000       $pdata$?outputSegment@RenderOutput@Cm@physx@@QEAAXAEBVPxVec3@3@0@Z 0000000180000000     GuConvexMesh.obj
 0002:ffebe000       $unwind$??_GPxBase@physx@@MEAAPEAXI@Z 0000000180000000     GuConvexMesh.obj
 0004:ffe92000       $pdata$??_GPxBase@physx@@MEAAPEAXI@Z 0000000180000000     GuConvexMesh.obj
 0004:ffe92000       $pdata$?outputSegment@RenderOutput@Cm@physx@@QEAAXAEBVPxVec3@3@0@Z 0000000180000000     GuSweepBoxBox.obj
 0002:ffebe000       $unwind$?outputSegment@RenderOutput@Cm@physx@@QEAAXAEBVPxVec3@3@0@Z 0000000180000000     GuSweepBoxBox.obj
 0004:ffe92000       $pdata$?reserveSegments@RenderOutput@Cm@physx@@QEAAPEAUPxDebugLine@3@I@Z 0000000180000000     GuSweepBoxBox.obj
 0002:ffebe000       $unwind$?reserveSegments@RenderOutput@Cm@physx@@QEAAPEAUPxDebugLine@3@I@Z 0000000180000000     GuSweepBoxBox.obj
 0004:ffe92000       $pdata$?recreate@?$Array@UPxDebugLine@physx@@V?$ReflectionAllocator@UPxDebugLine@physx@@@shdfnd@2@@shdfnd@physx@@IEAAXI@Z 0000000180000000     GuSweepBoxBox.obj
 0002:ffebe000       $unwind$?recreate@?$Array@UPxDebugLine@physx@@V?$ReflectionAllocator@UPxDebugLine@physx@@@shdfnd@2@@shdfnd@physx@@IEAAXI@Z 0000000180000000     GuSweepBoxBox.obj
 0004:ffe92000       $pdata$?growAndPushBack@?$Array@UPxDebugLine@physx@@V?$ReflectionAllocator@UPxDebugLine@physx@@@shdfnd@2@@shdfnd@physx@@IEAAAEAUPxDebugLine@3@AEBU43@@Z 0000000180000000     GuSweepBoxBox.obj
 0002:ffebe000       $unwind$?growAndPushBack@?$Array@UPxDebugLine@physx@@V?$ReflectionAllocator@UPxDebugLine@physx@@@shdfnd@2@@shdfnd@physx@@IEAAAEAUPxDebugLine@3@AEBU43@@Z 0000000180000000     GuSweepBoxBox.obj
 0004:ffe92000       $pdata$1$?copy@?$Array@UPxDebugLine@physx@@V?$ReflectionAllocator@UPxDebugLine@physx@@@shdfnd@2@@shdfnd@physx@@KAXPEAUPxDebugLine@3@0PEBU43@@Z 0000000180000000     GuSweepBoxBox.obj
 0002:ffebe000       $chain$1$?copy@?$Array@UPxDebugLine@physx@@V?$ReflectionAllocator@UPxDebugLine@physx@@@shdfnd@2@@shdfnd@physx@@KAXPEAUPxDebugLine@3@0PEBU43@@Z 0000000180000000     GuSweepBoxBox.obj
 0004:ffe92000       $pdata$0$?copy@?$Array@UPxDebugLine@physx@@V?$ReflectionAllocator@UPxDebugLine@physx@@@shdfnd@2@@shdfnd@physx@@KAXPEAUPxDebugLine@3@0PEBU43@@Z 0000000180000000     GuSweepBoxBox.obj
 0002:ffebe000       $chain$0$?copy@?$Array@UPxDebugLine@physx@@V?$ReflectionAllocator@UPxDebugLine@physx@@@shdfnd@2@@shdfnd@physx@@KAXPEAUPxDebugLine@3@0PEBU43@@Z 0000000180000000     GuSweepBoxBox.obj
 0004:ffe92000       $pdata$?copy@?$Array@UPxDebugLine@physx@@V?$ReflectionAllocator@UPxDebugLine@physx@@@shdfnd@2@@shdfnd@physx@@KAXPEAUPxDebugLine@3@0PEBU43@@Z 0000000180000000     GuSweepBoxBox.obj
 0002:ffebe000       $unwind$?copy@?$Array@UPxDebugLine@physx@@V?$ReflectionAllocator@UPxDebugLine@physx@@@shdfnd@2@@shdfnd@physx@@KAXPEAUPxDebugLine@3@0PEBU43@@Z 0000000180000000     GuSweepBoxBox.obj
 0004:ffe92000       $pdata$?resizeUninitialized@?$Array@UPxDebugLine@physx@@V?$ReflectionAllocator@UPxDebugLine@physx@@@shdfnd@2@@shdfnd@physx@@QEAAXI@Z 0000000180000000     GuSweepBoxBox.obj
 0002:ffebe000       $unwind$?resizeUninitialized@?$Array@UPxDebugLine@physx@@V?$ReflectionAllocator@UPxDebugLine@physx@@@shdfnd@2@@shdfnd@physx@@QEAAXI@Z 0000000180000000     GuSweepBoxBox.obj
 0004:ffe92000       $pdata$1$?allocate@?$ReflectionAllocator@UPxDebugLine@physx@@@shdfnd@physx@@QEAAPEAX_KPEBDH@Z 0000000180000000     GuSweepBoxBox.obj
 0002:ffebe000       $chain$1$?allocate@?$ReflectionAllocator@UPxDebugLine@physx@@@shdfnd@physx@@QEAAPEAX_KPEBDH@Z 0000000180000000     GuSweepBoxBox.obj
 0004:ffe92000       $pdata$0$?allocate@?$ReflectionAllocator@UPxDebugLine@physx@@@shdfnd@physx@@QEAAPEAX_KPEBDH@Z 0000000180000000     GuSweepBoxBox.obj
 0002:ffebe000       $chain$0$?allocate@?$ReflectionAllocator@UPxDebugLine@physx@@@shdfnd@physx@@QEAAPEAX_KPEBDH@Z 0000000180000000     GuSweepBoxBox.obj
 0004:ffe92000       $pdata$?allocate@?$ReflectionAllocator@UPxDebugLine@physx@@@shdfnd@physx@@QEAAPEAX_KPEBDH@Z 0000000180000000     GuSweepBoxBox.obj
 0002:ffebe000       $unwind$?allocate@?$ReflectionAllocator@UPxDebugLine@physx@@@shdfnd@physx@@QEAAPEAX_KPEBDH@Z 0000000180000000     GuSweepBoxBox.obj
 0004:ffe92000       $pdata$??_GRefCountable@Cm@physx@@UEAAPEAXI@Z 0000000180000000     GuSweepBoxBox.obj
 0002:ffebe000       $unwind$??_GRefCountable@Cm@physx@@UEAAPEAXI@Z 0000000180000000     GuSweepBoxBox.obj
 0004:ffe92000       $pdata$?GetTriangleVerts@MeshInterface@Gu@physx@@SAXI_K0IAEAVPxVec3@3@11AEAI22@Z 0000000180000000     GuSweepBoxBox.obj
 0002:ffebe000       $unwind$?GetTriangleVerts@MeshInterface@Gu@physx@@SAXI_K0IAEAVPxVec3@3@11AEAI22@Z 0000000180000000     GuSweepBoxBox.obj
 0004:ffe92000       $pdata$??0RTreeMidphase@Gu@physx@@QEAA@AEBW4PxEMPTY@2@@Z 0000000180000000     GuSweepBoxBox.obj
 0002:ffebe000       $unwind$??0RTreeMidphase@Gu@physx@@QEAA@AEBW4PxEMPTY@2@@Z 0000000180000000     GuSweepBoxBox.obj
 0004:ffe92000       $pdata$1$??_EPxFoundation@physx@@MEAAPEAXI@Z 0000000180000000     GuSweepBoxBox.obj
 0002:ffebe000       $chain$1$??_EPxFoundation@physx@@MEAAPEAXI@Z 0000000180000000     GuSweepBoxBox.obj
 0004:ffe92000       $pdata$0$??_EPxFoundation@physx@@MEAAPEAXI@Z 0000000180000000     GuSweepBoxBox.obj
 0002:ffebe000       $chain$0$??_EPxFoundation@physx@@MEAAPEAXI@Z 0000000180000000     GuSweepBoxBox.obj
 0004:ffe92000       $pdata$??_EPxFoundation@physx@@MEAAPEAXI@Z 0000000180000000     GuSweepBoxBox.obj
 0002:ffebe000       $unwind$??_EPxFoundation@physx@@MEAAPEAXI@Z 0000000180000000     GuSweepBoxBox.obj
 0004:ffe92000       $pdata$??_GPxFoundation@physx@@MEAAPEAXI@Z 0000000180000000     GuSweepBoxBox.obj
 0002:ffebe000       $unwind$??_GPxFoundation@physx@@MEAAPEAXI@Z 0000000180000000     GuSweepBoxBox.obj
 0004:ffe92000       $pdata$?isKindOf@PxTriangleMesh@physx@@MEBA_NPEBD@Z 0000000180000000     GuSweepBoxBox.obj
 0002:ffebe000       $unwind$?isKindOf@PxTriangleMesh@physx@@MEBA_NPEBD@Z 0000000180000000     GuSweepBoxBox.obj
 0004:ffe92000       $pdata$??_GPxBase@physx@@MEAAPEAXI@Z 0000000180000000     GuSweepBoxBox.obj
 0002:ffebe000       $unwind$??_GPxBase@physx@@MEAAPEAXI@Z 0000000180000000     GuSweepBoxBox.obj
 0004:ffe92000       $pdata$?computeBoxPoints@Box@Gu@physx@@QEBAXPEIAVPxVec3@3@@Z 0000000180000000     GuSweepBoxBox.obj
 0002:ffebe000       $unwind$?computeBoxPoints@Box@Gu@physx@@QEBAXPEIAVPxVec3@3@@Z 0000000180000000     GuSweepBoxBox.obj
 0004:ffe92000       $pdata$?computeAABBExtent@Box@Gu@physx@@QEBA?AVPxVec3@3@XZ 0000000180000000     GuSweepBoxBox.obj
 0002:ffebe000       $unwind$?computeAABBExtent@Box@Gu@physx@@QEBA?AVPxVec3@3@XZ 0000000180000000     GuSweepBoxBox.obj
 0004:ffe92000       $pdata$?getTransform@Box@Gu@physx@@QEBA?AVPxTransform@3@XZ 0000000180000000     GuSweepBoxBox.obj
 0002:ffebe000       $unwind$?getTransform@Box@Gu@physx@@QEBA?AVPxTransform@3@XZ 0000000180000000     GuSweepBoxBox.obj
 0004:ffe92000       $pdata$?transform@Box@Gu@physx@@QEBA?AVPxVec3@3@AEBV43@@Z 0000000180000000     GuSweepBoxBox.obj
 0002:ffebe000       $unwind$?transform@Box@Gu@physx@@QEBA?AVPxVec3@3@AEBV43@@Z 0000000180000000     GuSweepBoxBox.obj
 0004:ffe92000       $pdata$?rotateInv@Box@Gu@physx@@QEBA?AVPxVec3@3@AEBV43@@Z 0000000180000000     GuSweepBoxBox.obj
 0002:ffebe000       $unwind$?rotateInv@Box@Gu@physx@@QEBA?AVPxVec3@3@AEBV43@@Z 0000000180000000     GuSweepBoxBox.obj
 0004:ffe92000       $pdata$?rotate@Box@Gu@physx@@QEBA?AVPxVec3@3@AEBV43@@Z 0000000180000000     GuSweepBoxBox.obj
 0002:ffebe000       $unwind$?rotate@Box@Gu@physx@@QEBA?AVPxVec3@3@AEBV43@@Z 0000000180000000     GuSweepBoxBox.obj
 0004:ffe92000       $pdata$??_I@YAXPEAX_K1P6AX0@Z@Z 0000000180000000     GuSweepBoxBox.obj
 0002:ffebe000       $unwind$??_I@YAXPEAX_K1P6AX0@Z@Z 0000000180000000     GuSweepBoxBox.obj
 0004:ffe92000       $pdata$??_H@YAXPEAX_K1P6APEAX0@Z@Z 0000000180000000     GuSweepBoxBox.obj
 0002:ffebe000       $unwind$??_H@YAXPEAX_K1P6APEAX0@Z@Z 0000000180000000     GuSweepBoxBox.obj
 0002:ffebe000       $unwind$?isKindOf@PxTriangleMesh@physx@@MEBA_NPEBD@Z 0000000180000000     GuConvexMesh.obj
 0004:ffe92000       $pdata$?isKindOf@PxTriangleMesh@physx@@MEBA_NPEBD@Z 0000000180000000     GuConvexMesh.obj
 0002:ffebe000       $unwind$?isKindOf@PxHeightField@physx@@MEBA_NPEBD@Z 0000000180000000     GuConvexMesh.obj
 0004:ffe92000       $pdata$?isKindOf@PxHeightField@physx@@MEBA_NPEBD@Z 0000000180000000     GuConvexMesh.obj
 0004:ffe92000       $pdata$?computeBoxPoints@Box@Gu@physx@@QEBAXPEIAVPxVec3@3@@Z 0000000180000000     GuSweepBoxSphere.obj
 0002:ffebe000       $unwind$?computeBoxPoints@Box@Gu@physx@@QEBAXPEIAVPxVec3@3@@Z 0000000180000000     GuSweepBoxSphere.obj
 0004:ffe92000       $pdata$?computeAABBExtent@Box@Gu@physx@@QEBA?AVPxVec3@3@XZ 0000000180000000     GuSweepBoxSphere.obj
 0002:ffebe000       $unwind$?computeAABBExtent@Box@Gu@physx@@QEBA?AVPxVec3@3@XZ 0000000180000000     GuSweepBoxSphere.obj
 0004:ffe92000       $pdata$?getTransform@Box@Gu@physx@@QEBA?AVPxTransform@3@XZ 0000000180000000     GuSweepBoxSphere.obj
 0002:ffebe000       $unwind$?getTransform@Box@Gu@physx@@QEBA?AVPxTransform@3@XZ 0000000180000000     GuSweepBoxSphere.obj
 0004:ffe92000       $pdata$?transform@Box@Gu@physx@@QEBA?AVPxVec3@3@AEBV43@@Z 0000000180000000     GuSweepBoxSphere.obj
 0002:ffebe000       $unwind$?transform@Box@Gu@physx@@QEBA?AVPxVec3@3@AEBV43@@Z 0000000180000000     GuSweepBoxSphere.obj
 0004:ffe92000       $pdata$?rotateInv@Box@Gu@physx@@QEBA?AVPxVec3@3@AEBV43@@Z 0000000180000000     GuSweepBoxSphere.obj
 0002:ffebe000       $unwind$?rotateInv@Box@Gu@physx@@QEBA?AVPxVec3@3@AEBV43@@Z 0000000180000000     GuSweepBoxSphere.obj
 0004:ffe92000       $pdata$?rotate@Box@Gu@physx@@QEBA?AVPxVec3@3@AEBV43@@Z 0000000180000000     GuSweepBoxSphere.obj
 0002:ffebe000       $unwind$?rotate@Box@Gu@physx@@QEBA?AVPxVec3@3@AEBV43@@Z 0000000180000000     GuSweepBoxSphere.obj
 0004:ffe92000       $pdata$??_H@YAXPEAX_K1P6APEAX0@Z@Z 0000000180000000     GuSweepBoxSphere.obj
 0002:ffebe000       $unwind$??_H@YAXPEAX_K1P6APEAX0@Z@Z 0000000180000000     GuSweepBoxSphere.obj
 0004:ffe92000       $pdata$6$??_ETriangleMesh@Gu@physx@@UEAAPEAXI@Z 0000000180000000     GuSweepBoxTriangle_FeatureBased.obj
 0002:ffebe000       $chain$6$??_ETriangleMesh@Gu@physx@@UEAAPEAXI@Z 0000000180000000     GuSweepBoxTriangle_FeatureBased.obj
 0004:ffe92000       $pdata$5$??_ETriangleMesh@Gu@physx@@UEAAPEAXI@Z 0000000180000000     GuSweepBoxTriangle_FeatureBased.obj
 0002:ffebe000       $chain$5$??_ETriangleMesh@Gu@physx@@UEAAPEAXI@Z 0000000180000000     GuSweepBoxTriangle_FeatureBased.obj
 0004:ffe92000       $pdata$3$??_ETriangleMesh@Gu@physx@@UEAAPEAXI@Z 0000000180000000     GuSweepBoxTriangle_FeatureBased.obj
 0002:ffebe000       $chain$3$??_ETriangleMesh@Gu@physx@@UEAAPEAXI@Z 0000000180000000     GuSweepBoxTriangle_FeatureBased.obj
 0004:ffe92000       $pdata$2$??_ETriangleMesh@Gu@physx@@UEAAPEAXI@Z 0000000180000000     GuSweepBoxTriangle_FeatureBased.obj
 0002:ffebe000       $chain$2$??_ETriangleMesh@Gu@physx@@UEAAPEAXI@Z 0000000180000000     GuSweepBoxTriangle_FeatureBased.obj
 0004:ffe92000       $pdata$??_ETriangleMesh@Gu@physx@@UEAAPEAXI@Z 0000000180000000     GuSweepBoxTriangle_FeatureBased.obj
 0002:ffebe000       $unwind$??_ETriangleMesh@Gu@physx@@UEAAPEAXI@Z 0000000180000000     GuSweepBoxTriangle_FeatureBased.obj
 0004:ffe92000       $pdata$??0TriangleMesh@Gu@physx@@QEAA@V?$PxFlags@W4Enum@PxBaseFlag@physx@@G@2@@Z 0000000180000000     GuSweepBoxTriangle_FeatureBased.obj
 0002:ffebe000       $unwind$??0TriangleMesh@Gu@physx@@QEAA@V?$PxFlags@W4Enum@PxBaseFlag@physx@@G@2@@Z 0000000180000000     GuSweepBoxTriangle_FeatureBased.obj
 0004:ffe92000       $pdata$?outputSegment@RenderOutput@Cm@physx@@QEAAXAEBVPxVec3@3@0@Z 0000000180000000     GuSweepBoxTriangle_FeatureBased.obj
 0002:ffebe000       $unwind$?outputSegment@RenderOutput@Cm@physx@@QEAAXAEBVPxVec3@3@0@Z 0000000180000000     GuSweepBoxTriangle_FeatureBased.obj
 0004:ffe92000       $pdata$?reserveSegments@RenderOutput@Cm@physx@@QEAAPEAUPxDebugLine@3@I@Z 0000000180000000     GuSweepBoxTriangle_FeatureBased.obj
 0002:ffebe000       $unwind$?reserveSegments@RenderOutput@Cm@physx@@QEAAPEAUPxDebugLine@3@I@Z 0000000180000000     GuSweepBoxTriangle_FeatureBased.obj
 0004:ffe92000       $pdata$?recreate@?$Array@UPxDebugLine@physx@@V?$ReflectionAllocator@UPxDebugLine@physx@@@shdfnd@2@@shdfnd@physx@@IEAAXI@Z 0000000180000000     GuSweepBoxTriangle_FeatureBased.obj
 0002:ffebe000       $unwind$?recreate@?$Array@UPxDebugLine@physx@@V?$ReflectionAllocator@UPxDebugLine@physx@@@shdfnd@2@@shdfnd@physx@@IEAAXI@Z 0000000180000000     GuSweepBoxTriangle_FeatureBased.obj
 0004:ffe92000       $pdata$?growAndPushBack@?$Array@UPxDebugLine@physx@@V?$ReflectionAllocator@UPxDebugLine@physx@@@shdfnd@2@@shdfnd@physx@@IEAAAEAUPxDebugLine@3@AEBU43@@Z 0000000180000000     GuSweepBoxTriangle_FeatureBased.obj
 0002:ffebe000       $unwind$?growAndPushBack@?$Array@UPxDebugLine@physx@@V?$ReflectionAllocator@UPxDebugLine@physx@@@shdfnd@2@@shdfnd@physx@@IEAAAEAUPxDebugLine@3@AEBU43@@Z 0000000180000000     GuSweepBoxTriangle_FeatureBased.obj
 0004:ffe92000       $pdata$1$?copy@?$Array@UPxDebugLine@physx@@V?$ReflectionAllocator@UPxDebugLine@physx@@@shdfnd@2@@shdfnd@physx@@KAXPEAUPxDebugLine@3@0PEBU43@@Z 0000000180000000     GuSweepBoxTriangle_FeatureBased.obj
 0002:ffebe000       $chain$1$?copy@?$Array@UPxDebugLine@physx@@V?$ReflectionAllocator@UPxDebugLine@physx@@@shdfnd@2@@shdfnd@physx@@KAXPEAUPxDebugLine@3@0PEBU43@@Z 0000000180000000     GuSweepBoxTriangle_FeatureBased.obj
 0004:ffe92000       $pdata$0$?copy@?$Array@UPxDebugLine@physx@@V?$ReflectionAllocator@UPxDebugLine@physx@@@shdfnd@2@@shdfnd@physx@@KAXPEAUPxDebugLine@3@0PEBU43@@Z 0000000180000000     GuSweepBoxTriangle_FeatureBased.obj
 0002:ffebe000       $chain$0$?copy@?$Array@UPxDebugLine@physx@@V?$ReflectionAllocator@UPxDebugLine@physx@@@shdfnd@2@@shdfnd@physx@@KAXPEAUPxDebugLine@3@0PEBU43@@Z 0000000180000000     GuSweepBoxTriangle_FeatureBased.obj
 0004:ffe92000       $pdata$?copy@?$Array@UPxDebugLine@physx@@V?$ReflectionAllocator@UPxDebugLine@physx@@@shdfnd@2@@shdfnd@physx@@KAXPEAUPxDebugLine@3@0PEBU43@@Z 0000000180000000     GuSweepBoxTriangle_FeatureBased.obj
 0002:ffebe000       $unwind$?copy@?$Array@UPxDebugLine@physx@@V?$ReflectionAllocator@UPxDebugLine@physx@@@shdfnd@2@@shdfnd@physx@@KAXPEAUPxDebugLine@3@0PEBU43@@Z 0000000180000000     GuSweepBoxTriangle_FeatureBased.obj
 0004:ffe92000       $pdata$?resizeUninitialized@?$Array@UPxDebugLine@physx@@V?$ReflectionAllocator@UPxDebugLine@physx@@@shdfnd@2@@shdfnd@physx@@QEAAXI@Z 0000000180000000     GuSweepBoxTriangle_FeatureBased.obj
 0002:ffebe000       $unwind$?resizeUninitialized@?$Array@UPxDebugLine@physx@@V?$ReflectionAllocator@UPxDebugLine@physx@@@shdfnd@2@@shdfnd@physx@@QEAAXI@Z 0000000180000000     GuSweepBoxTriangle_FeatureBased.obj
 0004:ffe92000       $pdata$1$?allocate@?$ReflectionAllocator@UPxDebugLine@physx@@@shdfnd@physx@@QEAAPEAX_KPEBDH@Z 0000000180000000     GuSweepBoxTriangle_FeatureBased.obj
 0002:ffebe000       $chain$1$?allocate@?$ReflectionAllocator@UPxDebugLine@physx@@@shdfnd@physx@@QEAAPEAX_KPEBDH@Z 0000000180000000     GuSweepBoxTriangle_FeatureBased.obj
 0004:ffe92000       $pdata$0$?allocate@?$ReflectionAllocator@UPxDebugLine@physx@@@shdfnd@physx@@QEAAPEAX_KPEBDH@Z 0000000180000000     GuSweepBoxTriangle_FeatureBased.obj
 0002:ffebe000       $chain$0$?allocate@?$ReflectionAllocator@UPxDebugLine@physx@@@shdfnd@physx@@QEAAPEAX_KPEBDH@Z 0000000180000000     GuSweepBoxTriangle_FeatureBased.obj
 0004:ffe92000       $pdata$?allocate@?$ReflectionAllocator@UPxDebugLine@physx@@@shdfnd@physx@@QEAAPEAX_KPEBDH@Z 0000000180000000     GuSweepBoxTriangle_FeatureBased.obj
 0002:ffebe000       $unwind$?allocate@?$ReflectionAllocator@UPxDebugLine@physx@@@shdfnd@physx@@QEAAPEAX_KPEBDH@Z 0000000180000000     GuSweepBoxTriangle_FeatureBased.obj
 0004:ffe92000       $pdata$??_GRefCountable@Cm@physx@@UEAAPEAXI@Z 0000000180000000     GuSweepBoxTriangle_FeatureBased.obj
 0002:ffebe000       $unwind$??_GRefCountable@Cm@physx@@UEAAPEAXI@Z 0000000180000000     GuSweepBoxTriangle_FeatureBased.obj
 0004:ffe92000       $pdata$??4InternalTriangleMesh@physx@@QEAAAEAV01@AEBV01@@Z 0000000180000000     GuSweepBoxTriangle_FeatureBased.obj
 0002:ffebe000       $unwind$??4InternalTriangleMesh@physx@@QEAAAEAV01@AEBV01@@Z 0000000180000000     GuSweepBoxTriangle_FeatureBased.obj
 0004:ffe92000       $pdata$??0InternalTriangleMesh@physx@@QEAA@AEBV01@@Z 0000000180000000     GuSweepBoxTriangle_FeatureBased.obj
 0002:ffebe000       $unwind$??0InternalTriangleMesh@physx@@QEAA@AEBV01@@Z 0000000180000000     GuSweepBoxTriangle_FeatureBased.obj
 0004:ffe92000       $pdata$??0InternalTriangleMesh@physx@@QEAA@AEBW4PxEMPTY@1@@Z 0000000180000000     GuSweepBoxTriangle_FeatureBased.obj
 0002:ffebe000       $unwind$??0InternalTriangleMesh@physx@@QEAA@AEBW4PxEMPTY@1@@Z 0000000180000000     GuSweepBoxTriangle_FeatureBased.obj
 0004:ffe92000       $pdata$?GetTriangleVerts@MeshInterface@Gu@physx@@SAXI_K0IAEAVPxVec3@3@11AEAI22@Z 0000000180000000     GuSweepBoxTriangle_FeatureBased.obj
 0002:ffebe000       $unwind$?GetTriangleVerts@MeshInterface@Gu@physx@@SAXI_K0IAEAVPxVec3@3@11AEAI22@Z 0000000180000000     GuSweepBoxTriangle_FeatureBased.obj
 0004:ffe92000       $pdata$??0RTreeMidphase@Gu@physx@@QEAA@AEBW4PxEMPTY@2@@Z 0000000180000000     GuSweepBoxTriangle_FeatureBased.obj
 0002:ffebe000       $unwind$??0RTreeMidphase@Gu@physx@@QEAA@AEBW4PxEMPTY@2@@Z 0000000180000000     GuSweepBoxTriangle_FeatureBased.obj
 0004:ffe92000       $pdata$1$??_EPxFoundation@physx@@MEAAPEAXI@Z 0000000180000000     GuSweepBoxTriangle_FeatureBased.obj
 0002:ffebe000       $chain$1$??_EPxFoundation@physx@@MEAAPEAXI@Z 0000000180000000     GuSweepBoxTriangle_FeatureBased.obj
 0004:ffe92000       $pdata$0$??_EPxFoundation@physx@@MEAAPEAXI@Z 0000000180000000     GuSweepBoxTriangle_FeatureBased.obj
 0002:ffebe000       $chain$0$??_EPxFoundation@physx@@MEAAPEAXI@Z 0000000180000000     GuSweepBoxTriangle_FeatureBased.obj
 0004:ffe92000       $pdata$??_EPxFoundation@physx@@MEAAPEAXI@Z 0000000180000000     GuSweepBoxTriangle_FeatureBased.obj
 0002:ffebe000       $unwind$??_EPxFoundation@physx@@MEAAPEAXI@Z 0000000180000000     GuSweepBoxTriangle_FeatureBased.obj
 0004:ffe92000       $pdata$??_GPxFoundation@physx@@MEAAPEAXI@Z 0000000180000000     GuSweepBoxTriangle_FeatureBased.obj
 0002:ffebe000       $unwind$??_GPxFoundation@physx@@MEAAPEAXI@Z 0000000180000000     GuSweepBoxTriangle_FeatureBased.obj
 0004:ffe92000       $pdata$1$??_EPxTriangleMesh@physx@@MEAAPEAXI@Z 0000000180000000     GuSweepBoxTriangle_FeatureBased.obj
 0002:ffebe000       $chain$1$??_EPxTriangleMesh@physx@@MEAAPEAXI@Z 0000000180000000     GuSweepBoxTriangle_FeatureBased.obj
 0004:ffe92000       $pdata$0$??_EPxTriangleMesh@physx@@MEAAPEAXI@Z 0000000180000000     GuSweepBoxTriangle_FeatureBased.obj
 0002:ffebe000       $chain$0$??_EPxTriangleMesh@physx@@MEAAPEAXI@Z 0000000180000000     GuSweepBoxTriangle_FeatureBased.obj
 0004:ffe92000       $pdata$??_EPxTriangleMesh@physx@@MEAAPEAXI@Z 0000000180000000     GuSweepBoxTriangle_FeatureBased.obj
 0002:ffebe000       $unwind$??_EPxTriangleMesh@physx@@MEAAPEAXI@Z 0000000180000000     GuSweepBoxTriangle_FeatureBased.obj
 0004:ffe92000       $pdata$?isKindOf@PxTriangleMesh@physx@@MEBA_NPEBD@Z 0000000180000000     GuSweepBoxTriangle_FeatureBased.obj
 0002:ffebe000       $unwind$?isKindOf@PxTriangleMesh@physx@@MEBA_NPEBD@Z 0000000180000000     GuSweepBoxTriangle_FeatureBased.obj
 0004:ffe92000       $pdata$??_GPxBase@physx@@MEAAPEAXI@Z 0000000180000000     GuSweepBoxTriangle_FeatureBased.obj
 0002:ffebe000       $unwind$??_GPxBase@physx@@MEAAPEAXI@Z 0000000180000000     GuSweepBoxTriangle_FeatureBased.obj
 0004:ffe92000       $pdata$?computeBoxPoints@Box@Gu@physx@@QEBAXPEIAVPxVec3@3@@Z 0000000180000000     GuSweepBoxTriangle_FeatureBased.obj
 0002:ffebe000       $unwind$?computeBoxPoints@Box@Gu@physx@@QEBAXPEIAVPxVec3@3@@Z 0000000180000000     GuSweepBoxTriangle_FeatureBased.obj
 0004:ffe92000       $pdata$?computeAABBExtent@Box@Gu@physx@@QEBA?AVPxVec3@3@XZ 0000000180000000     GuSweepBoxTriangle_FeatureBased.obj
 0002:ffebe000       $unwind$?computeAABBExtent@Box@Gu@physx@@QEBA?AVPxVec3@3@XZ 0000000180000000     GuSweepBoxTriangle_FeatureBased.obj
 0004:ffe92000       $pdata$?getTransform@Box@Gu@physx@@QEBA?AVPxTransform@3@XZ 0000000180000000     GuSweepBoxTriangle_FeatureBased.obj
 0002:ffebe000       $unwind$?getTransform@Box@Gu@physx@@QEBA?AVPxTransform@3@XZ 0000000180000000     GuSweepBoxTriangle_FeatureBased.obj
 0004:ffe92000       $pdata$?transform@Box@Gu@physx@@QEBA?AVPxVec3@3@AEBV43@@Z 0000000180000000     GuSweepBoxTriangle_FeatureBased.obj
 0002:ffebe000       $unwind$?transform@Box@Gu@physx@@QEBA?AVPxVec3@3@AEBV43@@Z 0000000180000000     GuSweepBoxTriangle_FeatureBased.obj
 0004:ffe92000       $pdata$?rotateInv@Box@Gu@physx@@QEBA?AVPxVec3@3@AEBV43@@Z 0000000180000000     GuSweepBoxTriangle_FeatureBased.obj
 0002:ffebe000       $unwind$?rotateInv@Box@Gu@physx@@QEBA?AVPxVec3@3@AEBV43@@Z 0000000180000000     GuSweepBoxTriangle_FeatureBased.obj
 0004:ffe92000       $pdata$?rotate@Box@Gu@physx@@QEBA?AVPxVec3@3@AEBV43@@Z 0000000180000000     GuSweepBoxTriangle_FeatureBased.obj
 0002:ffebe000       $unwind$?rotate@Box@Gu@physx@@QEBA?AVPxVec3@3@AEBV43@@Z 0000000180000000     GuSweepBoxTriangle_FeatureBased.obj
 0004:ffe92000       $pdata$??_I@YAXPEAX_K1P6AX0@Z@Z 0000000180000000     GuSweepBoxTriangle_FeatureBased.obj
 0002:ffebe000       $unwind$??_I@YAXPEAX_K1P6AX0@Z@Z 0000000180000000     GuSweepBoxTriangle_FeatureBased.obj
 0004:ffe92000       $pdata$??_H@YAXPEAX_K1P6APEAX0@Z@Z 0000000180000000     GuSweepBoxTriangle_FeatureBased.obj
 0002:ffebe000       $unwind$??_H@YAXPEAX_K1P6APEAX0@Z@Z 0000000180000000     GuSweepBoxTriangle_FeatureBased.obj
 0002:ffebe000       $unwind$??__G@YAXPEAX0_K1P6APEAX00@Z@Z 0000000180000000     GuConvexHelper.obj
 0004:ffe92000       $pdata$??__G@YAXPEAX0_K1P6APEAX00@Z@Z 0000000180000000     GuConvexHelper.obj
 0002:ffebe000       $chain$0$??__G@YAXPEAX0_K1P6APEAX00@Z@Z 0000000180000000     GuConvexHelper.obj
 0004:ffe92000       $pdata$6$??_ETriangleMesh@Gu@physx@@UEAAPEAXI@Z 0000000180000000     GuSweepBoxTriangle_SAT.obj
 0002:ffebe000       $chain$6$??_ETriangleMesh@Gu@physx@@UEAAPEAXI@Z 0000000180000000     GuSweepBoxTriangle_SAT.obj
 0004:ffe92000       $pdata$5$??_ETriangleMesh@Gu@physx@@UEAAPEAXI@Z 0000000180000000     GuSweepBoxTriangle_SAT.obj
 0002:ffebe000       $chain$5$??_ETriangleMesh@Gu@physx@@UEAAPEAXI@Z 0000000180000000     GuSweepBoxTriangle_SAT.obj
 0004:ffe92000       $pdata$3$??_ETriangleMesh@Gu@physx@@UEAAPEAXI@Z 0000000180000000     GuSweepBoxTriangle_SAT.obj
 0002:ffebe000       $chain$3$??_ETriangleMesh@Gu@physx@@UEAAPEAXI@Z 0000000180000000     GuSweepBoxTriangle_SAT.obj
 0004:ffe92000       $pdata$2$??_ETriangleMesh@Gu@physx@@UEAAPEAXI@Z 0000000180000000     GuSweepBoxTriangle_SAT.obj
 0002:ffebe000       $chain$2$??_ETriangleMesh@Gu@physx@@UEAAPEAXI@Z 0000000180000000     GuSweepBoxTriangle_SAT.obj
 0004:ffe92000       $pdata$??_ETriangleMesh@Gu@physx@@UEAAPEAXI@Z 0000000180000000     GuSweepBoxTriangle_SAT.obj
 0002:ffebe000       $unwind$??_ETriangleMesh@Gu@physx@@UEAAPEAXI@Z 0000000180000000     GuSweepBoxTriangle_SAT.obj
 0004:ffe92000       $pdata$??0TriangleMesh@Gu@physx@@QEAA@V?$PxFlags@W4Enum@PxBaseFlag@physx@@G@2@@Z 0000000180000000     GuSweepBoxTriangle_SAT.obj
 0002:ffebe000       $unwind$??0TriangleMesh@Gu@physx@@QEAA@V?$PxFlags@W4Enum@PxBaseFlag@physx@@G@2@@Z 0000000180000000     GuSweepBoxTriangle_SAT.obj
 0004:ffe92000       $pdata$?outputSegment@RenderOutput@Cm@physx@@QEAAXAEBVPxVec3@3@0@Z 0000000180000000     GuSweepBoxTriangle_SAT.obj
 0002:ffebe000       $unwind$?outputSegment@RenderOutput@Cm@physx@@QEAAXAEBVPxVec3@3@0@Z 0000000180000000     GuSweepBoxTriangle_SAT.obj
 0004:ffe92000       $pdata$?reserveSegments@RenderOutput@Cm@physx@@QEAAPEAUPxDebugLine@3@I@Z 0000000180000000     GuSweepBoxTriangle_SAT.obj
 0002:ffebe000       $unwind$?reserveSegments@RenderOutput@Cm@physx@@QEAAPEAUPxDebugLine@3@I@Z 0000000180000000     GuSweepBoxTriangle_SAT.obj
 0004:ffe92000       $pdata$?recreate@?$Array@UPxDebugLine@physx@@V?$ReflectionAllocator@UPxDebugLine@physx@@@shdfnd@2@@shdfnd@physx@@IEAAXI@Z 0000000180000000     GuSweepBoxTriangle_SAT.obj
 0002:ffebe000       $unwind$?recreate@?$Array@UPxDebugLine@physx@@V?$ReflectionAllocator@UPxDebugLine@physx@@@shdfnd@2@@shdfnd@physx@@IEAAXI@Z 0000000180000000     GuSweepBoxTriangle_SAT.obj
 0004:ffe92000       $pdata$?growAndPushBack@?$Array@UPxDebugLine@physx@@V?$ReflectionAllocator@UPxDebugLine@physx@@@shdfnd@2@@shdfnd@physx@@IEAAAEAUPxDebugLine@3@AEBU43@@Z 0000000180000000     GuSweepBoxTriangle_SAT.obj
 0002:ffebe000       $unwind$?growAndPushBack@?$Array@UPxDebugLine@physx@@V?$ReflectionAllocator@UPxDebugLine@physx@@@shdfnd@2@@shdfnd@physx@@IEAAAEAUPxDebugLine@3@AEBU43@@Z 0000000180000000     GuSweepBoxTriangle_SAT.obj
 0004:ffe92000       $pdata$1$?copy@?$Array@UPxDebugLine@physx@@V?$ReflectionAllocator@UPxDebugLine@physx@@@shdfnd@2@@shdfnd@physx@@KAXPEAUPxDebugLine@3@0PEBU43@@Z 0000000180000000     GuSweepBoxTriangle_SAT.obj
 0002:ffebe000       $chain$1$?copy@?$Array@UPxDebugLine@physx@@V?$ReflectionAllocator@UPxDebugLine@physx@@@shdfnd@2@@shdfnd@physx@@KAXPEAUPxDebugLine@3@0PEBU43@@Z 0000000180000000     GuSweepBoxTriangle_SAT.obj
 0004:ffe92000       $pdata$0$?copy@?$Array@UPxDebugLine@physx@@V?$ReflectionAllocator@UPxDebugLine@physx@@@shdfnd@2@@shdfnd@physx@@KAXPEAUPxDebugLine@3@0PEBU43@@Z 0000000180000000     GuSweepBoxTriangle_SAT.obj
 0002:ffebe000       $chain$0$?copy@?$Array@UPxDebugLine@physx@@V?$ReflectionAllocator@UPxDebugLine@physx@@@shdfnd@2@@shdfnd@physx@@KAXPEAUPxDebugLine@3@0PEBU43@@Z 0000000180000000     GuSweepBoxTriangle_SAT.obj
 0004:ffe92000       $pdata$?copy@?$Array@UPxDebugLine@physx@@V?$ReflectionAllocator@UPxDebugLine@physx@@@shdfnd@2@@shdfnd@physx@@KAXPEAUPxDebugLine@3@0PEBU43@@Z 0000000180000000     GuSweepBoxTriangle_SAT.obj
 0002:ffebe000       $unwind$?copy@?$Array@UPxDebugLine@physx@@V?$ReflectionAllocator@UPxDebugLine@physx@@@shdfnd@2@@shdfnd@physx@@KAXPEAUPxDebugLine@3@0PEBU43@@Z 0000000180000000     GuSweepBoxTriangle_SAT.obj
 0004:ffe92000       $pdata$?resizeUninitialized@?$Array@UPxDebugLine@physx@@V?$ReflectionAllocator@UPxDebugLine@physx@@@shdfnd@2@@shdfnd@physx@@QEAAXI@Z 0000000180000000     GuSweepBoxTriangle_SAT.obj
 0002:ffebe000       $unwind$?resizeUninitialized@?$Array@UPxDebugLine@physx@@V?$ReflectionAllocator@UPxDebugLine@physx@@@shdfnd@2@@shdfnd@physx@@QEAAXI@Z 0000000180000000     GuSweepBoxTriangle_SAT.obj
 0004:ffe92000       $pdata$1$?allocate@?$ReflectionAllocator@UPxDebugLine@physx@@@shdfnd@physx@@QEAAPEAX_KPEBDH@Z 0000000180000000     GuSweepBoxTriangle_SAT.obj
 0002:ffebe000       $chain$1$?allocate@?$ReflectionAllocator@UPxDebugLine@physx@@@shdfnd@physx@@QEAAPEAX_KPEBDH@Z 0000000180000000     GuSweepBoxTriangle_SAT.obj
 0004:ffe92000       $pdata$0$?allocate@?$ReflectionAllocator@UPxDebugLine@physx@@@shdfnd@physx@@QEAAPEAX_KPEBDH@Z 0000000180000000     GuSweepBoxTriangle_SAT.obj
 0002:ffebe000       $chain$0$?allocate@?$ReflectionAllocator@UPxDebugLine@physx@@@shdfnd@physx@@QEAAPEAX_KPEBDH@Z 0000000180000000     GuSweepBoxTriangle_SAT.obj
 0004:ffe92000       $pdata$?allocate@?$ReflectionAllocator@UPxDebugLine@physx@@@shdfnd@physx@@QEAAPEAX_KPEBDH@Z 0000000180000000     GuSweepBoxTriangle_SAT.obj
 0002:ffebe000       $unwind$?allocate@?$ReflectionAllocator@UPxDebugLine@physx@@@shdfnd@physx@@QEAAPEAX_KPEBDH@Z 0000000180000000     GuSweepBoxTriangle_SAT.obj
 0004:ffe92000       $pdata$??_GRefCountable@Cm@physx@@UEAAPEAXI@Z 0000000180000000     GuSweepBoxTriangle_SAT.obj
 0002:ffebe000       $unwind$??_GRefCountable@Cm@physx@@UEAAPEAXI@Z 0000000180000000     GuSweepBoxTriangle_SAT.obj
 0004:ffe92000       $pdata$??4InternalTriangleMesh@physx@@QEAAAEAV01@AEBV01@@Z 0000000180000000     GuSweepBoxTriangle_SAT.obj
 0002:ffebe000       $unwind$??4InternalTriangleMesh@physx@@QEAAAEAV01@AEBV01@@Z 0000000180000000     GuSweepBoxTriangle_SAT.obj
 0004:ffe92000       $pdata$??0InternalTriangleMesh@physx@@QEAA@AEBV01@@Z 0000000180000000     GuSweepBoxTriangle_SAT.obj
 0002:ffebe000       $unwind$??0InternalTriangleMesh@physx@@QEAA@AEBV01@@Z 0000000180000000     GuSweepBoxTriangle_SAT.obj
 0004:ffe92000       $pdata$??0InternalTriangleMesh@physx@@QEAA@AEBW4PxEMPTY@1@@Z 0000000180000000     GuSweepBoxTriangle_SAT.obj
 0002:ffebe000       $unwind$??0InternalTriangleMesh@physx@@QEAA@AEBW4PxEMPTY@1@@Z 0000000180000000     GuSweepBoxTriangle_SAT.obj
 0004:ffe92000       $pdata$?GetTriangleVerts@MeshInterface@Gu@physx@@SAXI_K0IAEAVPxVec3@3@11AEAI22@Z 0000000180000000     GuSweepBoxTriangle_SAT.obj
 0002:ffebe000       $unwind$?GetTriangleVerts@MeshInterface@Gu@physx@@SAXI_K0IAEAVPxVec3@3@11AEAI22@Z 0000000180000000     GuSweepBoxTriangle_SAT.obj
 0004:ffe92000       $pdata$??0RTreeMidphase@Gu@physx@@QEAA@AEBW4PxEMPTY@2@@Z 0000000180000000     GuSweepBoxTriangle_SAT.obj
 0002:ffebe000       $unwind$??0RTreeMidphase@Gu@physx@@QEAA@AEBW4PxEMPTY@2@@Z 0000000180000000     GuSweepBoxTriangle_SAT.obj
 0004:ffe92000       $pdata$1$??_EPxFoundation@physx@@MEAAPEAXI@Z 0000000180000000     GuSweepBoxTriangle_SAT.obj
 0002:ffebe000       $chain$1$??_EPxFoundation@physx@@MEAAPEAXI@Z 0000000180000000     GuSweepBoxTriangle_SAT.obj
 0004:ffe92000       $pdata$0$??_EPxFoundation@physx@@MEAAPEAXI@Z 0000000180000000     GuSweepBoxTriangle_SAT.obj
 0002:ffebe000       $chain$0$??_EPxFoundation@physx@@MEAAPEAXI@Z 0000000180000000     GuSweepBoxTriangle_SAT.obj
 0004:ffe92000       $pdata$??_EPxFoundation@physx@@MEAAPEAXI@Z 0000000180000000     GuSweepBoxTriangle_SAT.obj
 0002:ffebe000       $unwind$??_EPxFoundation@physx@@MEAAPEAXI@Z 0000000180000000     GuSweepBoxTriangle_SAT.obj
 0004:ffe92000       $pdata$??_GPxFoundation@physx@@MEAAPEAXI@Z 0000000180000000     GuSweepBoxTriangle_SAT.obj
 0002:ffebe000       $unwind$??_GPxFoundation@physx@@MEAAPEAXI@Z 0000000180000000     GuSweepBoxTriangle_SAT.obj
 0004:ffe92000       $pdata$1$??_EPxTriangleMesh@physx@@MEAAPEAXI@Z 0000000180000000     GuSweepBoxTriangle_SAT.obj
 0002:ffebe000       $chain$1$??_EPxTriangleMesh@physx@@MEAAPEAXI@Z 0000000180000000     GuSweepBoxTriangle_SAT.obj
 0004:ffe92000       $pdata$0$??_EPxTriangleMesh@physx@@MEAAPEAXI@Z 0000000180000000     GuSweepBoxTriangle_SAT.obj
 0002:ffebe000       $chain$0$??_EPxTriangleMesh@physx@@MEAAPEAXI@Z 0000000180000000     GuSweepBoxTriangle_SAT.obj
 0004:ffe92000       $pdata$??_EPxTriangleMesh@physx@@MEAAPEAXI@Z 0000000180000000     GuSweepBoxTriangle_SAT.obj
 0002:ffebe000       $unwind$??_EPxTriangleMesh@physx@@MEAAPEAXI@Z 0000000180000000     GuSweepBoxTriangle_SAT.obj
 0004:ffe92000       $pdata$?isKindOf@PxTriangleMesh@physx@@MEBA_NPEBD@Z 0000000180000000     GuSweepBoxTriangle_SAT.obj
 0002:ffebe000       $unwind$?isKindOf@PxTriangleMesh@physx@@MEBA_NPEBD@Z 0000000180000000     GuSweepBoxTriangle_SAT.obj
 0004:ffe92000       $pdata$??_GPxBase@physx@@MEAAPEAXI@Z 0000000180000000     GuSweepBoxTriangle_SAT.obj
 0002:ffebe000       $unwind$??_GPxBase@physx@@MEAAPEAXI@Z 0000000180000000     GuSweepBoxTriangle_SAT.obj
 0004:ffe92000       $pdata$?computeBoxPoints@Box@Gu@physx@@QEBAXPEIAVPxVec3@3@@Z 0000000180000000     GuSweepBoxTriangle_SAT.obj
 0002:ffebe000       $unwind$?computeBoxPoints@Box@Gu@physx@@QEBAXPEIAVPxVec3@3@@Z 0000000180000000     GuSweepBoxTriangle_SAT.obj
 0004:ffe92000       $pdata$?computeAABBExtent@Box@Gu@physx@@QEBA?AVPxVec3@3@XZ 0000000180000000     GuSweepBoxTriangle_SAT.obj
 0002:ffebe000       $unwind$?computeAABBExtent@Box@Gu@physx@@QEBA?AVPxVec3@3@XZ 0000000180000000     GuSweepBoxTriangle_SAT.obj
 0004:ffe92000       $pdata$?getTransform@Box@Gu@physx@@QEBA?AVPxTransform@3@XZ 0000000180000000     GuSweepBoxTriangle_SAT.obj
 0002:ffebe000       $unwind$?getTransform@Box@Gu@physx@@QEBA?AVPxTransform@3@XZ 0000000180000000     GuSweepBoxTriangle_SAT.obj
 0004:ffe92000       $pdata$?transform@Box@Gu@physx@@QEBA?AVPxVec3@3@AEBV43@@Z 0000000180000000     GuSweepBoxTriangle_SAT.obj
 0002:ffebe000       $unwind$?transform@Box@Gu@physx@@QEBA?AVPxVec3@3@AEBV43@@Z 0000000180000000     GuSweepBoxTriangle_SAT.obj
 0004:ffe92000       $pdata$?rotateInv@Box@Gu@physx@@QEBA?AVPxVec3@3@AEBV43@@Z 0000000180000000     GuSweepBoxTriangle_SAT.obj
 0002:ffebe000       $unwind$?rotateInv@Box@Gu@physx@@QEBA?AVPxVec3@3@AEBV43@@Z 0000000180000000     GuSweepBoxTriangle_SAT.obj
 0004:ffe92000       $pdata$?rotate@Box@Gu@physx@@QEBA?AVPxVec3@3@AEBV43@@Z 0000000180000000     GuSweepBoxTriangle_SAT.obj
 0002:ffebe000       $unwind$?rotate@Box@Gu@physx@@QEBA?AVPxVec3@3@AEBV43@@Z 0000000180000000     GuSweepBoxTriangle_SAT.obj
 0004:ffe92000       $pdata$0$??__G@YAXPEAX0_K1P6APEAX00@Z@Z 0000000180000000     GuConvexHelper.obj
 0002:ffebe000       $chain$1$??__G@YAXPEAX0_K1P6APEAX00@Z@Z 0000000180000000     GuConvexHelper.obj
 0004:ffe92000       $pdata$1$??__G@YAXPEAX0_K1P6APEAX00@Z@Z 0000000180000000     GuConvexHelper.obj
 0002:ffebe000       $unwind$??_I@YAXPEAX_K1P6AX0@Z@Z 0000000180000000     GuConvexHelper.obj
 0004:ffe92000       $pdata$??_I@YAXPEAX_K1P6AX0@Z@Z 0000000180000000     GuSweepBoxTriangle_SAT.obj
 0002:ffebe000       $unwind$??_I@YAXPEAX_K1P6AX0@Z@Z 0000000180000000     GuSweepBoxTriangle_SAT.obj
 0004:ffe92000       $pdata$??_H@YAXPEAX_K1P6APEAX0@Z@Z 0000000180000000     GuSweepBoxTriangle_SAT.obj
 0002:ffebe000       $unwind$??_H@YAXPEAX_K1P6APEAX0@Z@Z 0000000180000000     GuSweepBoxTriangle_SAT.obj
 0004:ffe92000       $pdata$??_I@YAXPEAX_K1P6AX0@Z@Z 0000000180000000     GuConvexHelper.obj
 0002:ffebe000       $unwind$?getInverse@PxMat33@physx@@QEBA?AV12@XZ 0000000180000000     GuConvexHelper.obj
 0004:ffe92000       $pdata$?getInverse@PxMat33@physx@@QEBA?AV12@XZ 0000000180000000     GuConvexHelper.obj
 0002:ffebe000       $chain$5$?getInverse@PxMat33@physx@@QEBA?AV12@XZ 0000000180000000     GuConvexHelper.obj
 0004:ffe92000       $pdata$5$?getInverse@PxMat33@physx@@QEBA?AV12@XZ 0000000180000000     GuConvexHelper.obj
 0002:ffebe000       $chain$6$?getInverse@PxMat33@physx@@QEBA?AV12@XZ 0000000180000000     GuConvexHelper.obj
 0004:ffe92000       $pdata$6$?getInverse@PxMat33@physx@@QEBA?AV12@XZ 0000000180000000     GuConvexHelper.obj
 0002:ffebe000       $unwind$?init@FastVertex2ShapeScaling@Cm@physx@@QEAAXAEBVPxVec3@3@AEBVPxQuat@3@@Z 0000000180000000     GuConvexHelper.obj
 0004:ffe92000       $pdata$?init@FastVertex2ShapeScaling@Cm@physx@@QEAAXAEBVPxVec3@3@AEBVPxQuat@3@@Z 0000000180000000     GuConvexHelper.obj
 0002:ffebe000       $unwind$??0PolygonalBox@Gu@physx@@QEAA@AEBV012@@Z 0000000180000000     GuConvexHelper.obj
 0004:ffe92000       $pdata$1$??_EPxFoundation@physx@@MEAAPEAXI@Z 0000000180000000     GuSweepCapsuleBox.obj
 0002:ffebe000       $chain$1$??_EPxFoundation@physx@@MEAAPEAXI@Z 0000000180000000     GuSweepCapsuleBox.obj
 0004:ffe92000       $pdata$0$??_EPxFoundation@physx@@MEAAPEAXI@Z 0000000180000000     GuSweepCapsuleBox.obj
 0002:ffebe000       $chain$0$??_EPxFoundation@physx@@MEAAPEAXI@Z 0000000180000000     GuSweepCapsuleBox.obj
 0004:ffe92000       $pdata$??_EPxFoundation@physx@@MEAAPEAXI@Z 0000000180000000     GuSweepCapsuleBox.obj
 0002:ffebe000       $unwind$??_EPxFoundation@physx@@MEAAPEAXI@Z 0000000180000000     GuSweepCapsuleBox.obj
 0004:ffe92000       $pdata$??_GPxFoundation@physx@@MEAAPEAXI@Z 0000000180000000     GuSweepCapsuleBox.obj
 0002:ffebe000       $unwind$??_GPxFoundation@physx@@MEAAPEAXI@Z 0000000180000000     GuSweepCapsuleBox.obj
 0004:ffe92000       $pdata$?computeBoxPoints@Box@Gu@physx@@QEBAXPEIAVPxVec3@3@@Z 0000000180000000     GuSweepCapsuleBox.obj
 0002:ffebe000       $unwind$?computeBoxPoints@Box@Gu@physx@@QEBAXPEIAVPxVec3@3@@Z 0000000180000000     GuSweepCapsuleBox.obj
 0004:ffe92000       $pdata$?computeAABBExtent@Box@Gu@physx@@QEBA?AVPxVec3@3@XZ 0000000180000000     GuSweepCapsuleBox.obj
 0002:ffebe000       $unwind$?computeAABBExtent@Box@Gu@physx@@QEBA?AVPxVec3@3@XZ 0000000180000000     GuSweepCapsuleBox.obj
 0004:ffe92000       $pdata$?getTransform@Box@Gu@physx@@QEBA?AVPxTransform@3@XZ 0000000180000000     GuSweepCapsuleBox.obj
 0002:ffebe000       $unwind$?getTransform@Box@Gu@physx@@QEBA?AVPxTransform@3@XZ 0000000180000000     GuSweepCapsuleBox.obj
 0004:ffe92000       $pdata$?transform@Box@Gu@physx@@QEBA?AVPxVec3@3@AEBV43@@Z 0000000180000000     GuSweepCapsuleBox.obj
 0002:ffebe000       $unwind$?transform@Box@Gu@physx@@QEBA?AVPxVec3@3@AEBV43@@Z 0000000180000000     GuSweepCapsuleBox.obj
 0004:ffe92000       $pdata$?rotateInv@Box@Gu@physx@@QEBA?AVPxVec3@3@AEBV43@@Z 0000000180000000     GuSweepCapsuleBox.obj
 0002:ffebe000       $unwind$?rotateInv@Box@Gu@physx@@QEBA?AVPxVec3@3@AEBV43@@Z 0000000180000000     GuSweepCapsuleBox.obj
 0004:ffe92000       $pdata$?rotate@Box@Gu@physx@@QEBA?AVPxVec3@3@AEBV43@@Z 0000000180000000     GuSweepCapsuleBox.obj
 0002:ffebe000       $unwind$?rotate@Box@Gu@physx@@QEBA?AVPxVec3@3@AEBV43@@Z 0000000180000000     GuSweepCapsuleBox.obj
 0004:ffe92000       $pdata$??0PolygonalBox@Gu@physx@@QEAA@AEBV012@@Z 0000000180000000     GuConvexHelper.obj
 0004:ffe92000       $pdata$??_I@YAXPEAX_K1P6AX0@Z@Z 0000000180000000     GuSweepCapsuleBox.obj
 0002:ffebe000       $unwind$??_I@YAXPEAX_K1P6AX0@Z@Z 0000000180000000     GuSweepCapsuleBox.obj
 0004:ffe92000       $pdata$??_H@YAXPEAX_K1P6APEAX0@Z@Z 0000000180000000     GuSweepCapsuleBox.obj
 0002:ffebe000       $unwind$??_H@YAXPEAX_K1P6APEAX0@Z@Z 0000000180000000     GuSweepCapsuleBox.obj
 0002:ffebe000       $unwind$??_GPxFoundation@physx@@MEAAPEAXI@Z 0000000180000000     GuConvexHelper.obj
 0004:ffe92000       $pdata$??_GPxFoundation@physx@@MEAAPEAXI@Z 0000000180000000     GuConvexHelper.obj
 0002:ffebe000       $unwind$??_EPxFoundation@physx@@MEAAPEAXI@Z 0000000180000000     GuConvexHelper.obj
 0004:ffe92000       $pdata$??_EPxFoundation@physx@@MEAAPEAXI@Z 0000000180000000     GuConvexHelper.obj
 0002:ffebe000       $chain$0$??_EPxFoundation@physx@@MEAAPEAXI@Z 0000000180000000     GuConvexHelper.obj
 0004:ffe92000       $pdata$0$??_EPxFoundation@physx@@MEAAPEAXI@Z 0000000180000000     GuConvexHelper.obj
 0002:ffebe000       $chain$1$??_EPxFoundation@physx@@MEAAPEAXI@Z 0000000180000000     GuConvexHelper.obj
 0004:ffe92000       $pdata$1$??_EPxFoundation@physx@@MEAAPEAXI@Z 0000000180000000     GuConvexHelper.obj
 0002:ffebe000       $unwind$?allocate@MaterialIndicesStruct@physx@@QEAAXG@Z 0000000180000000     GuConvexHelper.obj
 0004:ffe92000       $pdata$?allocate@MaterialIndicesStruct@physx@@QEAAXG@Z 0000000180000000     GuConvexHelper.obj
 0004:ffe92000       $pdata$??_I@YAXPEAX_K1P6AX0@Z@Z 0000000180000000     GuSweepCapsuleCapsule.obj
 0002:ffebe000       $unwind$??_I@YAXPEAX_K1P6AX0@Z@Z 0000000180000000     GuSweepCapsuleCapsule.obj
 0004:ffe92000       $pdata$??_H@YAXPEAX_K1P6APEAX0@Z@Z 0000000180000000     GuSweepCapsuleCapsule.obj
 0002:ffebe000       $unwind$??_H@YAXPEAX_K1P6APEAX0@Z@Z 0000000180000000     GuSweepCapsuleCapsule.obj
 0002:ffebe000       $unwind$?deallocate@MaterialIndicesStruct@physx@@QEAAXXZ 0000000180000000     GuConvexHelper.obj
 0004:ffe92000       $pdata$?deallocate@MaterialIndicesStruct@physx@@QEAAXXZ 0000000180000000     GuConvexHelper.obj
 0002:ffebe000       $unwind$?computeBounds@GeometryUnion@Gu@physx@@QEBA?AVPxBounds3@3@AEBVPxTransform@3@@Z 0000000180000000     GuConvexHelper.obj
 0004:ffe92000       $pdata$?computeBounds@GeometryUnion@Gu@physx@@QEBA?AVPxBounds3@3@AEBVPxTransform@3@@Z 0000000180000000     GuConvexHelper.obj
 0002:ffebe000       $unwind$?rotate@Box@Gu@physx@@QEBA?AVPxVec3@3@AEBV43@@Z 0000000180000000     GuConvexHelper.obj
 0004:ffe92000       $pdata$?rotate@Box@Gu@physx@@QEBA?AVPxVec3@3@AEBV43@@Z 0000000180000000     GuConvexHelper.obj
 0004:ffe92000       $pdata$6$??_ETriangleMesh@Gu@physx@@UEAAPEAXI@Z 0000000180000000     GuSweepCapsuleTriangle.obj
 0002:ffebe000       $chain$6$??_ETriangleMesh@Gu@physx@@UEAAPEAXI@Z 0000000180000000     GuSweepCapsuleTriangle.obj
 0004:ffe92000       $pdata$5$??_ETriangleMesh@Gu@physx@@UEAAPEAXI@Z 0000000180000000     GuSweepCapsuleTriangle.obj
 0002:ffebe000       $chain$5$??_ETriangleMesh@Gu@physx@@UEAAPEAXI@Z 0000000180000000     GuSweepCapsuleTriangle.obj
 0004:ffe92000       $pdata$3$??_ETriangleMesh@Gu@physx@@UEAAPEAXI@Z 0000000180000000     GuSweepCapsuleTriangle.obj
 0002:ffebe000       $chain$3$??_ETriangleMesh@Gu@physx@@UEAAPEAXI@Z 0000000180000000     GuSweepCapsuleTriangle.obj
 0004:ffe92000       $pdata$2$??_ETriangleMesh@Gu@physx@@UEAAPEAXI@Z 0000000180000000     GuSweepCapsuleTriangle.obj
 0002:ffebe000       $chain$2$??_ETriangleMesh@Gu@physx@@UEAAPEAXI@Z 0000000180000000     GuSweepCapsuleTriangle.obj
 0004:ffe92000       $pdata$??_ETriangleMesh@Gu@physx@@UEAAPEAXI@Z 0000000180000000     GuSweepCapsuleTriangle.obj
 0002:ffebe000       $unwind$??_ETriangleMesh@Gu@physx@@UEAAPEAXI@Z 0000000180000000     GuSweepCapsuleTriangle.obj
 0004:ffe92000       $pdata$??0TriangleMesh@Gu@physx@@QEAA@V?$PxFlags@W4Enum@PxBaseFlag@physx@@G@2@@Z 0000000180000000     GuSweepCapsuleTriangle.obj
 0002:ffebe000       $unwind$??0TriangleMesh@Gu@physx@@QEAA@V?$PxFlags@W4Enum@PxBaseFlag@physx@@G@2@@Z 0000000180000000     GuSweepCapsuleTriangle.obj
 0004:ffe92000       $pdata$?outputSegment@RenderOutput@Cm@physx@@QEAAXAEBVPxVec3@3@0@Z 0000000180000000     GuSweepCapsuleTriangle.obj
 0002:ffebe000       $unwind$?outputSegment@RenderOutput@Cm@physx@@QEAAXAEBVPxVec3@3@0@Z 0000000180000000     GuSweepCapsuleTriangle.obj
 0004:ffe92000       $pdata$?reserveSegments@RenderOutput@Cm@physx@@QEAAPEAUPxDebugLine@3@I@Z 0000000180000000     GuSweepCapsuleTriangle.obj
 0002:ffebe000       $unwind$?reserveSegments@RenderOutput@Cm@physx@@QEAAPEAUPxDebugLine@3@I@Z 0000000180000000     GuSweepCapsuleTriangle.obj
 0004:ffe92000       $pdata$?recreate@?$Array@UPxDebugLine@physx@@V?$ReflectionAllocator@UPxDebugLine@physx@@@shdfnd@2@@shdfnd@physx@@IEAAXI@Z 0000000180000000     GuSweepCapsuleTriangle.obj
 0002:ffebe000       $unwind$?recreate@?$Array@UPxDebugLine@physx@@V?$ReflectionAllocator@UPxDebugLine@physx@@@shdfnd@2@@shdfnd@physx@@IEAAXI@Z 0000000180000000     GuSweepCapsuleTriangle.obj
 0004:ffe92000       $pdata$?growAndPushBack@?$Array@UPxDebugLine@physx@@V?$ReflectionAllocator@UPxDebugLine@physx@@@shdfnd@2@@shdfnd@physx@@IEAAAEAUPxDebugLine@3@AEBU43@@Z 0000000180000000     GuSweepCapsuleTriangle.obj
 0002:ffebe000       $unwind$?growAndPushBack@?$Array@UPxDebugLine@physx@@V?$ReflectionAllocator@UPxDebugLine@physx@@@shdfnd@2@@shdfnd@physx@@IEAAAEAUPxDebugLine@3@AEBU43@@Z 0000000180000000     GuSweepCapsuleTriangle.obj
 0004:ffe92000       $pdata$1$?copy@?$Array@UPxDebugLine@physx@@V?$ReflectionAllocator@UPxDebugLine@physx@@@shdfnd@2@@shdfnd@physx@@KAXPEAUPxDebugLine@3@0PEBU43@@Z 0000000180000000     GuSweepCapsuleTriangle.obj
 0002:ffebe000       $chain$1$?copy@?$Array@UPxDebugLine@physx@@V?$ReflectionAllocator@UPxDebugLine@physx@@@shdfnd@2@@shdfnd@physx@@KAXPEAUPxDebugLine@3@0PEBU43@@Z 0000000180000000     GuSweepCapsuleTriangle.obj
 0004:ffe92000       $pdata$0$?copy@?$Array@UPxDebugLine@physx@@V?$ReflectionAllocator@UPxDebugLine@physx@@@shdfnd@2@@shdfnd@physx@@KAXPEAUPxDebugLine@3@0PEBU43@@Z 0000000180000000     GuSweepCapsuleTriangle.obj
 0002:ffebe000       $chain$0$?copy@?$Array@UPxDebugLine@physx@@V?$ReflectionAllocator@UPxDebugLine@physx@@@shdfnd@2@@shdfnd@physx@@KAXPEAUPxDebugLine@3@0PEBU43@@Z 0000000180000000     GuSweepCapsuleTriangle.obj
 0004:ffe92000       $pdata$?copy@?$Array@UPxDebugLine@physx@@V?$ReflectionAllocator@UPxDebugLine@physx@@@shdfnd@2@@shdfnd@physx@@KAXPEAUPxDebugLine@3@0PEBU43@@Z 0000000180000000     GuSweepCapsuleTriangle.obj
 0002:ffebe000       $unwind$?copy@?$Array@UPxDebugLine@physx@@V?$ReflectionAllocator@UPxDebugLine@physx@@@shdfnd@2@@shdfnd@physx@@KAXPEAUPxDebugLine@3@0PEBU43@@Z 0000000180000000     GuSweepCapsuleTriangle.obj
 0004:ffe92000       $pdata$?resizeUninitialized@?$Array@UPxDebugLine@physx@@V?$ReflectionAllocator@UPxDebugLine@physx@@@shdfnd@2@@shdfnd@physx@@QEAAXI@Z 0000000180000000     GuSweepCapsuleTriangle.obj
 0002:ffebe000       $unwind$?resizeUninitialized@?$Array@UPxDebugLine@physx@@V?$ReflectionAllocator@UPxDebugLine@physx@@@shdfnd@2@@shdfnd@physx@@QEAAXI@Z 0000000180000000     GuSweepCapsuleTriangle.obj
 0004:ffe92000       $pdata$1$?allocate@?$ReflectionAllocator@UPxDebugLine@physx@@@shdfnd@physx@@QEAAPEAX_KPEBDH@Z 0000000180000000     GuSweepCapsuleTriangle.obj
 0002:ffebe000       $chain$1$?allocate@?$ReflectionAllocator@UPxDebugLine@physx@@@shdfnd@physx@@QEAAPEAX_KPEBDH@Z 0000000180000000     GuSweepCapsuleTriangle.obj
 0004:ffe92000       $pdata$0$?allocate@?$ReflectionAllocator@UPxDebugLine@physx@@@shdfnd@physx@@QEAAPEAX_KPEBDH@Z 0000000180000000     GuSweepCapsuleTriangle.obj
 0002:ffebe000       $chain$0$?allocate@?$ReflectionAllocator@UPxDebugLine@physx@@@shdfnd@physx@@QEAAPEAX_KPEBDH@Z 0000000180000000     GuSweepCapsuleTriangle.obj
 0004:ffe92000       $pdata$?allocate@?$ReflectionAllocator@UPxDebugLine@physx@@@shdfnd@physx@@QEAAPEAX_KPEBDH@Z 0000000180000000     GuSweepCapsuleTriangle.obj
 0002:ffebe000       $unwind$?allocate@?$ReflectionAllocator@UPxDebugLine@physx@@@shdfnd@physx@@QEAAPEAX_KPEBDH@Z 0000000180000000     GuSweepCapsuleTriangle.obj
 0004:ffe92000       $pdata$??_GRefCountable@Cm@physx@@UEAAPEAXI@Z 0000000180000000     GuSweepCapsuleTriangle.obj
 0002:ffebe000       $unwind$??_GRefCountable@Cm@physx@@UEAAPEAXI@Z 0000000180000000     GuSweepCapsuleTriangle.obj
 0004:ffe92000       $pdata$??4InternalTriangleMesh@physx@@QEAAAEAV01@AEBV01@@Z 0000000180000000     GuSweepCapsuleTriangle.obj
 0002:ffebe000       $unwind$??4InternalTriangleMesh@physx@@QEAAAEAV01@AEBV01@@Z 0000000180000000     GuSweepCapsuleTriangle.obj
 0004:ffe92000       $pdata$??0InternalTriangleMesh@physx@@QEAA@AEBV01@@Z 0000000180000000     GuSweepCapsuleTriangle.obj
 0002:ffebe000       $unwind$??0InternalTriangleMesh@physx@@QEAA@AEBV01@@Z 0000000180000000     GuSweepCapsuleTriangle.obj
 0004:ffe92000       $pdata$??0InternalTriangleMesh@physx@@QEAA@AEBW4PxEMPTY@1@@Z 0000000180000000     GuSweepCapsuleTriangle.obj
 0002:ffebe000       $unwind$??0InternalTriangleMesh@physx@@QEAA@AEBW4PxEMPTY@1@@Z 0000000180000000     GuSweepCapsuleTriangle.obj
 0004:ffe92000       $pdata$?GetTriangleVerts@MeshInterface@Gu@physx@@SAXI_K0IAEAVPxVec3@3@11AEAI22@Z 0000000180000000     GuSweepCapsuleTriangle.obj
 0002:ffebe000       $unwind$?GetTriangleVerts@MeshInterface@Gu@physx@@SAXI_K0IAEAVPxVec3@3@11AEAI22@Z 0000000180000000     GuSweepCapsuleTriangle.obj
 0004:ffe92000       $pdata$??0RTreeMidphase@Gu@physx@@QEAA@AEBW4PxEMPTY@2@@Z 0000000180000000     GuSweepCapsuleTriangle.obj
 0002:ffebe000       $unwind$??0RTreeMidphase@Gu@physx@@QEAA@AEBW4PxEMPTY@2@@Z 0000000180000000     GuSweepCapsuleTriangle.obj
 0004:ffe92000       $pdata$1$??_EPxFoundation@physx@@MEAAPEAXI@Z 0000000180000000     GuSweepCapsuleTriangle.obj
 0002:ffebe000       $chain$1$??_EPxFoundation@physx@@MEAAPEAXI@Z 0000000180000000     GuSweepCapsuleTriangle.obj
 0004:ffe92000       $pdata$0$??_EPxFoundation@physx@@MEAAPEAXI@Z 0000000180000000     GuSweepCapsuleTriangle.obj
 0002:ffebe000       $chain$0$??_EPxFoundation@physx@@MEAAPEAXI@Z 0000000180000000     GuSweepCapsuleTriangle.obj
 0004:ffe92000       $pdata$??_EPxFoundation@physx@@MEAAPEAXI@Z 0000000180000000     GuSweepCapsuleTriangle.obj
 0002:ffebe000       $unwind$??_EPxFoundation@physx@@MEAAPEAXI@Z 0000000180000000     GuSweepCapsuleTriangle.obj
 0004:ffe92000       $pdata$??_GPxFoundation@physx@@MEAAPEAXI@Z 0000000180000000     GuSweepCapsuleTriangle.obj
 0002:ffebe000       $unwind$??_GPxFoundation@physx@@MEAAPEAXI@Z 0000000180000000     GuSweepCapsuleTriangle.obj
 0004:ffe92000       $pdata$1$??_EPxTriangleMesh@physx@@MEAAPEAXI@Z 0000000180000000     GuSweepCapsuleTriangle.obj
 0002:ffebe000       $chain$1$??_EPxTriangleMesh@physx@@MEAAPEAXI@Z 0000000180000000     GuSweepCapsuleTriangle.obj
 0004:ffe92000       $pdata$0$??_EPxTriangleMesh@physx@@MEAAPEAXI@Z 0000000180000000     GuSweepCapsuleTriangle.obj
 0002:ffebe000       $chain$0$??_EPxTriangleMesh@physx@@MEAAPEAXI@Z 0000000180000000     GuSweepCapsuleTriangle.obj
 0004:ffe92000       $pdata$??_EPxTriangleMesh@physx@@MEAAPEAXI@Z 0000000180000000     GuSweepCapsuleTriangle.obj
 0002:ffebe000       $unwind$??_EPxTriangleMesh@physx@@MEAAPEAXI@Z 0000000180000000     GuSweepCapsuleTriangle.obj
 0004:ffe92000       $pdata$?isKindOf@PxTriangleMesh@physx@@MEBA_NPEBD@Z 0000000180000000     GuSweepCapsuleTriangle.obj
 0002:ffebe000       $unwind$?isKindOf@PxTriangleMesh@physx@@MEBA_NPEBD@Z 0000000180000000     GuSweepCapsuleTriangle.obj
 0004:ffe92000       $pdata$??_GPxBase@physx@@MEAAPEAXI@Z 0000000180000000     GuSweepCapsuleTriangle.obj
 0002:ffebe000       $unwind$??_GPxBase@physx@@MEAAPEAXI@Z 0000000180000000     GuSweepCapsuleTriangle.obj
 0004:ffe92000       $pdata$?computeBoxPoints@Box@Gu@physx@@QEBAXPEIAVPxVec3@3@@Z 0000000180000000     GuSweepCapsuleTriangle.obj
 0002:ffebe000       $unwind$?computeBoxPoints@Box@Gu@physx@@QEBAXPEIAVPxVec3@3@@Z 0000000180000000     GuSweepCapsuleTriangle.obj
 0004:ffe92000       $pdata$?computeAABBExtent@Box@Gu@physx@@QEBA?AVPxVec3@3@XZ 0000000180000000     GuSweepCapsuleTriangle.obj
 0002:ffebe000       $unwind$?computeAABBExtent@Box@Gu@physx@@QEBA?AVPxVec3@3@XZ 0000000180000000     GuSweepCapsuleTriangle.obj
 0004:ffe92000       $pdata$?getTransform@Box@Gu@physx@@QEBA?AVPxTransform@3@XZ 0000000180000000     GuSweepCapsuleTriangle.obj
 0002:ffebe000       $unwind$?getTransform@Box@Gu@physx@@QEBA?AVPxTransform@3@XZ 0000000180000000     GuSweepCapsuleTriangle.obj
 0004:ffe92000       $pdata$?transform@Box@Gu@physx@@QEBA?AVPxVec3@3@AEBV43@@Z 0000000180000000     GuSweepCapsuleTriangle.obj
 0002:ffebe000       $unwind$?transform@Box@Gu@physx@@QEBA?AVPxVec3@3@AEBV43@@Z 0000000180000000     GuSweepCapsuleTriangle.obj
 0004:ffe92000       $pdata$?rotateInv@Box@Gu@physx@@QEBA?AVPxVec3@3@AEBV43@@Z 0000000180000000     GuSweepCapsuleTriangle.obj
 0002:ffebe000       $unwind$?rotateInv@Box@Gu@physx@@QEBA?AVPxVec3@3@AEBV43@@Z 0000000180000000     GuSweepCapsuleTriangle.obj
 0004:ffe92000       $pdata$?rotate@Box@Gu@physx@@QEBA?AVPxVec3@3@AEBV43@@Z 0000000180000000     GuSweepCapsuleTriangle.obj
 0002:ffebe000       $unwind$?rotate@Box@Gu@physx@@QEBA?AVPxVec3@3@AEBV43@@Z 0000000180000000     GuSweepCapsuleTriangle.obj
 0002:ffebe000       $unwind$?rotateInv@Box@Gu@physx@@QEBA?AVPxVec3@3@AEBV43@@Z 0000000180000000     GuConvexHelper.obj
 0004:ffe92000       $pdata$?rotateInv@Box@Gu@physx@@QEBA?AVPxVec3@3@AEBV43@@Z 0000000180000000     GuConvexHelper.obj
 0002:ffebe000       $unwind$?transform@Box@Gu@physx@@QEBA?AVPxVec3@3@AEBV43@@Z 0000000180000000     GuConvexHelper.obj
 0004:ffe92000       $pdata$?transform@Box@Gu@physx@@QEBA?AVPxVec3@3@AEBV43@@Z 0000000180000000     GuConvexHelper.obj
 0002:ffebe000       $unwind$?getTransform@Box@Gu@physx@@QEBA?AVPxTransform@3@XZ 0000000180000000     GuConvexHelper.obj
 0004:ffe92000       $pdata$?getTransform@Box@Gu@physx@@QEBA?AVPxTransform@3@XZ 0000000180000000     GuConvexHelper.obj
 0002:ffebe000       $unwind$?computeAABBExtent@Box@Gu@physx@@QEBA?AVPxVec3@3@XZ 0000000180000000     GuConvexHelper.obj
 0004:ffe92000       $pdata$?computeAABBExtent@Box@Gu@physx@@QEBA?AVPxVec3@3@XZ 0000000180000000     GuConvexHelper.obj
 0002:ffebe000       $unwind$?computeBoxPoints@Box@Gu@physx@@QEBAXPEIAVPxVec3@3@@Z 0000000180000000     GuConvexHelper.obj
 0004:ffe92000       $pdata$??_I@YAXPEAX_K1P6AX0@Z@Z 0000000180000000     GuSweepCapsuleTriangle.obj
 0002:ffebe000       $unwind$??_I@YAXPEAX_K1P6AX0@Z@Z 0000000180000000     GuSweepCapsuleTriangle.obj
 0004:ffe92000       $pdata$??_H@YAXPEAX_K1P6APEAX0@Z@Z 0000000180000000     GuSweepCapsuleTriangle.obj
 0002:ffebe000       $unwind$??_H@YAXPEAX_K1P6APEAX0@Z@Z 0000000180000000     GuSweepCapsuleTriangle.obj
 0004:ffe92000       $pdata$?computeBoxPoints@Box@Gu@physx@@QEBAXPEIAVPxVec3@3@@Z 0000000180000000     GuConvexHelper.obj
 0002:ffebe000       $unwind$??_I@YAXPEAX_K1P6AX0@Z@Z 0000000180000000     GuBigConvexData.obj
 0004:ffe92000       $pdata$??_I@YAXPEAX_K1P6AX0@Z@Z 0000000180000000     GuBigConvexData.obj
 0002:ffebe000       $unwind$??_GPxFoundation@physx@@MEAAPEAXI@Z 0000000180000000     GuBigConvexData.obj
 0004:ffe92000       $pdata$??_GPxFoundation@physx@@MEAAPEAXI@Z 0000000180000000     GuBigConvexData.obj
 0002:ffebe000       $unwind$??_EPxFoundation@physx@@MEAAPEAXI@Z 0000000180000000     GuBigConvexData.obj
 0004:ffe92000       $pdata$??_EPxFoundation@physx@@MEAAPEAXI@Z 0000000180000000     GuBigConvexData.obj
 0002:ffebe000       $chain$0$??_EPxFoundation@physx@@MEAAPEAXI@Z 0000000180000000     GuBigConvexData.obj
 0004:ffe92000       $pdata$0$??_EPxFoundation@physx@@MEAAPEAXI@Z 0000000180000000     GuBigConvexData.obj
 0002:ffebe000       $chain$1$??_EPxFoundation@physx@@MEAAPEAXI@Z 0000000180000000     GuBigConvexData.obj
 0004:ffe92000       $pdata$1$??_EPxFoundation@physx@@MEAAPEAXI@Z 0000000180000000     GuBigConvexData.obj
 0004:ffe92000       $pdata$6$??_ETriangleMesh@Gu@physx@@UEAAPEAXI@Z 0000000180000000     GuSweepSphereTriangle.obj
 0002:ffebe000       $chain$6$??_ETriangleMesh@Gu@physx@@UEAAPEAXI@Z 0000000180000000     GuSweepSphereTriangle.obj
 0004:ffe92000       $pdata$5$??_ETriangleMesh@Gu@physx@@UEAAPEAXI@Z 0000000180000000     GuSweepSphereTriangle.obj
 0002:ffebe000       $chain$5$??_ETriangleMesh@Gu@physx@@UEAAPEAXI@Z 0000000180000000     GuSweepSphereTriangle.obj
 0004:ffe92000       $pdata$3$??_ETriangleMesh@Gu@physx@@UEAAPEAXI@Z 0000000180000000     GuSweepSphereTriangle.obj
 0002:ffebe000       $chain$3$??_ETriangleMesh@Gu@physx@@UEAAPEAXI@Z 0000000180000000     GuSweepSphereTriangle.obj
 0004:ffe92000       $pdata$2$??_ETriangleMesh@Gu@physx@@UEAAPEAXI@Z 0000000180000000     GuSweepSphereTriangle.obj
 0002:ffebe000       $chain$2$??_ETriangleMesh@Gu@physx@@UEAAPEAXI@Z 0000000180000000     GuSweepSphereTriangle.obj
 0004:ffe92000       $pdata$??_ETriangleMesh@Gu@physx@@UEAAPEAXI@Z 0000000180000000     GuSweepSphereTriangle.obj
 0002:ffebe000       $unwind$??_ETriangleMesh@Gu@physx@@UEAAPEAXI@Z 0000000180000000     GuSweepSphereTriangle.obj
 0004:ffe92000       $pdata$??0TriangleMesh@Gu@physx@@QEAA@V?$PxFlags@W4Enum@PxBaseFlag@physx@@G@2@@Z 0000000180000000     GuSweepSphereTriangle.obj
 0002:ffebe000       $unwind$??0TriangleMesh@Gu@physx@@QEAA@V?$PxFlags@W4Enum@PxBaseFlag@physx@@G@2@@Z 0000000180000000     GuSweepSphereTriangle.obj
 0004:ffe92000       $pdata$?outputSegment@RenderOutput@Cm@physx@@QEAAXAEBVPxVec3@3@0@Z 0000000180000000     GuSweepSphereTriangle.obj
 0002:ffebe000       $unwind$?outputSegment@RenderOutput@Cm@physx@@QEAAXAEBVPxVec3@3@0@Z 0000000180000000     GuSweepSphereTriangle.obj
 0004:ffe92000       $pdata$?reserveSegments@RenderOutput@Cm@physx@@QEAAPEAUPxDebugLine@3@I@Z 0000000180000000     GuSweepSphereTriangle.obj
 0002:ffebe000       $unwind$?reserveSegments@RenderOutput@Cm@physx@@QEAAPEAUPxDebugLine@3@I@Z 0000000180000000     GuSweepSphereTriangle.obj
 0004:ffe92000       $pdata$?recreate@?$Array@UPxDebugLine@physx@@V?$ReflectionAllocator@UPxDebugLine@physx@@@shdfnd@2@@shdfnd@physx@@IEAAXI@Z 0000000180000000     GuSweepSphereTriangle.obj
 0002:ffebe000       $unwind$?recreate@?$Array@UPxDebugLine@physx@@V?$ReflectionAllocator@UPxDebugLine@physx@@@shdfnd@2@@shdfnd@physx@@IEAAXI@Z 0000000180000000     GuSweepSphereTriangle.obj
 0004:ffe92000       $pdata$?growAndPushBack@?$Array@UPxDebugLine@physx@@V?$ReflectionAllocator@UPxDebugLine@physx@@@shdfnd@2@@shdfnd@physx@@IEAAAEAUPxDebugLine@3@AEBU43@@Z 0000000180000000     GuSweepSphereTriangle.obj
 0002:ffebe000       $unwind$?growAndPushBack@?$Array@UPxDebugLine@physx@@V?$ReflectionAllocator@UPxDebugLine@physx@@@shdfnd@2@@shdfnd@physx@@IEAAAEAUPxDebugLine@3@AEBU43@@Z 0000000180000000     GuSweepSphereTriangle.obj
 0004:ffe92000       $pdata$1$?copy@?$Array@UPxDebugLine@physx@@V?$ReflectionAllocator@UPxDebugLine@physx@@@shdfnd@2@@shdfnd@physx@@KAXPEAUPxDebugLine@3@0PEBU43@@Z 0000000180000000     GuSweepSphereTriangle.obj
 0002:ffebe000       $chain$1$?copy@?$Array@UPxDebugLine@physx@@V?$ReflectionAllocator@UPxDebugLine@physx@@@shdfnd@2@@shdfnd@physx@@KAXPEAUPxDebugLine@3@0PEBU43@@Z 0000000180000000     GuSweepSphereTriangle.obj
 0004:ffe92000       $pdata$0$?copy@?$Array@UPxDebugLine@physx@@V?$ReflectionAllocator@UPxDebugLine@physx@@@shdfnd@2@@shdfnd@physx@@KAXPEAUPxDebugLine@3@0PEBU43@@Z 0000000180000000     GuSweepSphereTriangle.obj
 0002:ffebe000       $chain$0$?copy@?$Array@UPxDebugLine@physx@@V?$ReflectionAllocator@UPxDebugLine@physx@@@shdfnd@2@@shdfnd@physx@@KAXPEAUPxDebugLine@3@0PEBU43@@Z 0000000180000000     GuSweepSphereTriangle.obj
 0004:ffe92000       $pdata$?copy@?$Array@UPxDebugLine@physx@@V?$ReflectionAllocator@UPxDebugLine@physx@@@shdfnd@2@@shdfnd@physx@@KAXPEAUPxDebugLine@3@0PEBU43@@Z 0000000180000000     GuSweepSphereTriangle.obj
 0002:ffebe000       $unwind$?copy@?$Array@UPxDebugLine@physx@@V?$ReflectionAllocator@UPxDebugLine@physx@@@shdfnd@2@@shdfnd@physx@@KAXPEAUPxDebugLine@3@0PEBU43@@Z 0000000180000000     GuSweepSphereTriangle.obj
 0004:ffe92000       $pdata$?resizeUninitialized@?$Array@UPxDebugLine@physx@@V?$ReflectionAllocator@UPxDebugLine@physx@@@shdfnd@2@@shdfnd@physx@@QEAAXI@Z 0000000180000000     GuSweepSphereTriangle.obj
 0002:ffebe000       $unwind$?resizeUninitialized@?$Array@UPxDebugLine@physx@@V?$ReflectionAllocator@UPxDebugLine@physx@@@shdfnd@2@@shdfnd@physx@@QEAAXI@Z 0000000180000000     GuSweepSphereTriangle.obj
 0004:ffe92000       $pdata$1$?allocate@?$ReflectionAllocator@UPxDebugLine@physx@@@shdfnd@physx@@QEAAPEAX_KPEBDH@Z 0000000180000000     GuSweepSphereTriangle.obj
 0002:ffebe000       $chain$1$?allocate@?$ReflectionAllocator@UPxDebugLine@physx@@@shdfnd@physx@@QEAAPEAX_KPEBDH@Z 0000000180000000     GuSweepSphereTriangle.obj
 0004:ffe92000       $pdata$0$?allocate@?$ReflectionAllocator@UPxDebugLine@physx@@@shdfnd@physx@@QEAAPEAX_KPEBDH@Z 0000000180000000     GuSweepSphereTriangle.obj
 0002:ffebe000       $chain$0$?allocate@?$ReflectionAllocator@UPxDebugLine@physx@@@shdfnd@physx@@QEAAPEAX_KPEBDH@Z 0000000180000000     GuSweepSphereTriangle.obj
 0004:ffe92000       $pdata$?allocate@?$ReflectionAllocator@UPxDebugLine@physx@@@shdfnd@physx@@QEAAPEAX_KPEBDH@Z 0000000180000000     GuSweepSphereTriangle.obj
 0002:ffebe000       $unwind$?allocate@?$ReflectionAllocator@UPxDebugLine@physx@@@shdfnd@physx@@QEAAPEAX_KPEBDH@Z 0000000180000000     GuSweepSphereTriangle.obj
 0004:ffe92000       $pdata$??_GRefCountable@Cm@physx@@UEAAPEAXI@Z 0000000180000000     GuSweepSphereTriangle.obj
 0002:ffebe000       $unwind$??_GRefCountable@Cm@physx@@UEAAPEAXI@Z 0000000180000000     GuSweepSphereTriangle.obj
 0004:ffe92000       $pdata$??4InternalTriangleMesh@physx@@QEAAAEAV01@AEBV01@@Z 0000000180000000     GuSweepSphereTriangle.obj
 0002:ffebe000       $unwind$??4InternalTriangleMesh@physx@@QEAAAEAV01@AEBV01@@Z 0000000180000000     GuSweepSphereTriangle.obj
 0004:ffe92000       $pdata$??0InternalTriangleMesh@physx@@QEAA@AEBV01@@Z 0000000180000000     GuSweepSphereTriangle.obj
 0002:ffebe000       $unwind$??0InternalTriangleMesh@physx@@QEAA@AEBV01@@Z 0000000180000000     GuSweepSphereTriangle.obj
 0004:ffe92000       $pdata$??0InternalTriangleMesh@physx@@QEAA@AEBW4PxEMPTY@1@@Z 0000000180000000     GuSweepSphereTriangle.obj
 0002:ffebe000       $unwind$??0InternalTriangleMesh@physx@@QEAA@AEBW4PxEMPTY@1@@Z 0000000180000000     GuSweepSphereTriangle.obj
 0004:ffe92000       $pdata$?GetTriangleVerts@MeshInterface@Gu@physx@@SAXI_K0IAEAVPxVec3@3@11AEAI22@Z 0000000180000000     GuSweepSphereTriangle.obj
 0002:ffebe000       $unwind$?GetTriangleVerts@MeshInterface@Gu@physx@@SAXI_K0IAEAVPxVec3@3@11AEAI22@Z 0000000180000000     GuSweepSphereTriangle.obj
 0004:ffe92000       $pdata$??0RTreeMidphase@Gu@physx@@QEAA@AEBW4PxEMPTY@2@@Z 0000000180000000     GuSweepSphereTriangle.obj
 0002:ffebe000       $unwind$??0RTreeMidphase@Gu@physx@@QEAA@AEBW4PxEMPTY@2@@Z 0000000180000000     GuSweepSphereTriangle.obj
 0004:ffe92000       $pdata$1$??_EPxFoundation@physx@@MEAAPEAXI@Z 0000000180000000     GuSweepSphereTriangle.obj
 0002:ffebe000       $chain$1$??_EPxFoundation@physx@@MEAAPEAXI@Z 0000000180000000     GuSweepSphereTriangle.obj
 0004:ffe92000       $pdata$0$??_EPxFoundation@physx@@MEAAPEAXI@Z 0000000180000000     GuSweepSphereTriangle.obj
 0002:ffebe000       $chain$0$??_EPxFoundation@physx@@MEAAPEAXI@Z 0000000180000000     GuSweepSphereTriangle.obj
 0004:ffe92000       $pdata$??_EPxFoundation@physx@@MEAAPEAXI@Z 0000000180000000     GuSweepSphereTriangle.obj
 0002:ffebe000       $unwind$??_EPxFoundation@physx@@MEAAPEAXI@Z 0000000180000000     GuSweepSphereTriangle.obj
 0004:ffe92000       $pdata$??_GPxFoundation@physx@@MEAAPEAXI@Z 0000000180000000     GuSweepSphereTriangle.obj
 0002:ffebe000       $unwind$??_GPxFoundation@physx@@MEAAPEAXI@Z 0000000180000000     GuSweepSphereTriangle.obj
 0004:ffe92000       $pdata$1$??_EPxTriangleMesh@physx@@MEAAPEAXI@Z 0000000180000000     GuSweepSphereTriangle.obj
 0002:ffebe000       $chain$1$??_EPxTriangleMesh@physx@@MEAAPEAXI@Z 0000000180000000     GuSweepSphereTriangle.obj
 0004:ffe92000       $pdata$0$??_EPxTriangleMesh@physx@@MEAAPEAXI@Z 0000000180000000     GuSweepSphereTriangle.obj
 0002:ffebe000       $chain$0$??_EPxTriangleMesh@physx@@MEAAPEAXI@Z 0000000180000000     GuSweepSphereTriangle.obj
 0004:ffe92000       $pdata$??_EPxTriangleMesh@physx@@MEAAPEAXI@Z 0000000180000000     GuSweepSphereTriangle.obj
 0002:ffebe000       $unwind$??_EPxTriangleMesh@physx@@MEAAPEAXI@Z 0000000180000000     GuSweepSphereTriangle.obj
 0004:ffe92000       $pdata$?isKindOf@PxTriangleMesh@physx@@MEBA_NPEBD@Z 0000000180000000     GuSweepSphereTriangle.obj
 0002:ffebe000       $unwind$?isKindOf@PxTriangleMesh@physx@@MEBA_NPEBD@Z 0000000180000000     GuSweepSphereTriangle.obj
 0004:ffe92000       $pdata$??_GPxBase@physx@@MEAAPEAXI@Z 0000000180000000     GuSweepSphereTriangle.obj
 0002:ffebe000       $unwind$??_GPxBase@physx@@MEAAPEAXI@Z 0000000180000000     GuSweepSphereTriangle.obj
 0004:ffe92000       $pdata$?computeBoxPoints@Box@Gu@physx@@QEBAXPEIAVPxVec3@3@@Z 0000000180000000     GuSweepSphereTriangle.obj
 0002:ffebe000       $unwind$?computeBoxPoints@Box@Gu@physx@@QEBAXPEIAVPxVec3@3@@Z 0000000180000000     GuSweepSphereTriangle.obj
 0004:ffe92000       $pdata$?computeAABBExtent@Box@Gu@physx@@QEBA?AVPxVec3@3@XZ 0000000180000000     GuSweepSphereTriangle.obj
 0002:ffebe000       $unwind$?computeAABBExtent@Box@Gu@physx@@QEBA?AVPxVec3@3@XZ 0000000180000000     GuSweepSphereTriangle.obj
 0004:ffe92000       $pdata$?getTransform@Box@Gu@physx@@QEBA?AVPxTransform@3@XZ 0000000180000000     GuSweepSphereTriangle.obj
 0002:ffebe000       $unwind$?getTransform@Box@Gu@physx@@QEBA?AVPxTransform@3@XZ 0000000180000000     GuSweepSphereTriangle.obj
 0004:ffe92000       $pdata$?transform@Box@Gu@physx@@QEBA?AVPxVec3@3@AEBV43@@Z 0000000180000000     GuSweepSphereTriangle.obj
 0002:ffebe000       $unwind$?transform@Box@Gu@physx@@QEBA?AVPxVec3@3@AEBV43@@Z 0000000180000000     GuSweepSphereTriangle.obj
 0004:ffe92000       $pdata$?rotateInv@Box@Gu@physx@@QEBA?AVPxVec3@3@AEBV43@@Z 0000000180000000     GuSweepSphereTriangle.obj
 0002:ffebe000       $unwind$?rotateInv@Box@Gu@physx@@QEBA?AVPxVec3@3@AEBV43@@Z 0000000180000000     GuSweepSphereTriangle.obj
 0004:ffe92000       $pdata$?rotate@Box@Gu@physx@@QEBA?AVPxVec3@3@AEBV43@@Z 0000000180000000     GuSweepSphereTriangle.obj
 0002:ffebe000       $unwind$?rotate@Box@Gu@physx@@QEBA?AVPxVec3@3@AEBV43@@Z 0000000180000000     GuSweepSphereTriangle.obj
 0002:ffebe000       $unwind$??_H@YAXPEAX_K1P6APEAX0@Z@Z 0000000180000000     GuSeparatingAxes.obj
 0004:ffe92000       $pdata$??_I@YAXPEAX_K1P6AX0@Z@Z 0000000180000000     GuSweepSphereTriangle.obj
 0002:ffebe000       $unwind$??_I@YAXPEAX_K1P6AX0@Z@Z 0000000180000000     GuSweepSphereTriangle.obj
 0004:ffe92000       $pdata$??_H@YAXPEAX_K1P6APEAX0@Z@Z 0000000180000000     GuSweepSphereTriangle.obj
 0002:ffebe000       $unwind$??_H@YAXPEAX_K1P6APEAX0@Z@Z 0000000180000000     GuSweepSphereTriangle.obj
 0004:ffe92000       $pdata$??_H@YAXPEAX_K1P6APEAX0@Z@Z 0000000180000000     GuSeparatingAxes.obj
 0002:ffebe000       $unwind$??__G@YAXPEAX0_K1P6APEAX00@Z@Z 0000000180000000     GuSeparatingAxes.obj
 0004:ffe92000       $pdata$??__G@YAXPEAX0_K1P6APEAX00@Z@Z 0000000180000000     GuSeparatingAxes.obj
 0002:ffebe000       $chain$0$??__G@YAXPEAX0_K1P6APEAX00@Z@Z 0000000180000000     GuSeparatingAxes.obj
 0004:ffe92000       $pdata$0$??__G@YAXPEAX0_K1P6APEAX00@Z@Z 0000000180000000     GuSeparatingAxes.obj
 0002:ffebe000       $chain$1$??__G@YAXPEAX0_K1P6APEAX00@Z@Z 0000000180000000     GuSeparatingAxes.obj
 0004:ffe92000       $pdata$1$??__G@YAXPEAX0_K1P6APEAX00@Z@Z 0000000180000000     GuSeparatingAxes.obj
 0002:ffebe000       $unwind$??_I@YAXPEAX_K1P6AX0@Z@Z 0000000180000000     GuSeparatingAxes.obj
 0004:ffe92000       $pdata$??_I@YAXPEAX_K1P6AX0@Z@Z 0000000180000000     GuSeparatingAxes.obj
 0002:ffebe000       $unwind$??_GPxFoundation@physx@@MEAAPEAXI@Z 0000000180000000     GuSeparatingAxes.obj
 0004:ffe92000       $pdata$??_GPxFoundation@physx@@MEAAPEAXI@Z 0000000180000000     GuSeparatingAxes.obj
 0002:ffebe000       $unwind$??_EPxFoundation@physx@@MEAAPEAXI@Z 0000000180000000     GuSeparatingAxes.obj
 0004:ffe92000       $pdata$??_EPxFoundation@physx@@MEAAPEAXI@Z 0000000180000000     GuSeparatingAxes.obj
 0002:ffebe000       $chain$0$??_EPxFoundation@physx@@MEAAPEAXI@Z 0000000180000000     GuSeparatingAxes.obj
 0004:ffe92000       $pdata$0$??_EPxFoundation@physx@@MEAAPEAXI@Z 0000000180000000     GuSeparatingAxes.obj
 0002:ffebe000       $chain$1$??_EPxFoundation@physx@@MEAAPEAXI@Z 0000000180000000     GuSeparatingAxes.obj
 0004:ffe92000       $pdata$1$??_EPxFoundation@physx@@MEAAPEAXI@Z 0000000180000000     GuSeparatingAxes.obj
 0004:ffe92000       $pdata$6$??_ETriangleMesh@Gu@physx@@UEAAPEAXI@Z 0000000180000000     GuSweepTriangleUtils.obj
 0002:ffebe000       $chain$6$??_ETriangleMesh@Gu@physx@@UEAAPEAXI@Z 0000000180000000     GuSweepTriangleUtils.obj
 0004:ffe92000       $pdata$5$??_ETriangleMesh@Gu@physx@@UEAAPEAXI@Z 0000000180000000     GuSweepTriangleUtils.obj
 0002:ffebe000       $chain$5$??_ETriangleMesh@Gu@physx@@UEAAPEAXI@Z 0000000180000000     GuSweepTriangleUtils.obj
